Archive member included to satisfy reference by file (symbol)

c:/vsarm/armcc/bin/../lib/gcc/arm-none-eabi/7.3.1/../../../../arm-none-eabi/lib/thumb/v7e-m/fpv4-sp/hard\libc_nano.a(lib_a-exit.o)
                              c:/vsarm/armcc/bin/../lib/gcc/arm-none-eabi/7.3.1/../../../../arm-none-eabi/lib/thumb/v7e-m/fpv4-sp/hard/crt0.o (exit)
c:/vsarm/armcc/bin/../lib/gcc/arm-none-eabi/7.3.1/../../../../arm-none-eabi/lib/thumb/v7e-m/fpv4-sp/hard\libc_nano.a(lib_a-impure.o)
                              c:/vsarm/armcc/bin/../lib/gcc/arm-none-eabi/7.3.1/../../../../arm-none-eabi/lib/thumb/v7e-m/fpv4-sp/hard\libc_nano.a(lib_a-exit.o) (_global_impure_ptr)
c:/vsarm/armcc/bin/../lib/gcc/arm-none-eabi/7.3.1/../../../../arm-none-eabi/lib/thumb/v7e-m/fpv4-sp/hard\libc_nano.a(lib_a-init.o)
                              c:/vsarm/armcc/bin/../lib/gcc/arm-none-eabi/7.3.1/../../../../arm-none-eabi/lib/thumb/v7e-m/fpv4-sp/hard/crt0.o (__libc_init_array)
c:/vsarm/armcc/bin/../lib/gcc/arm-none-eabi/7.3.1/../../../../arm-none-eabi/lib/thumb/v7e-m/fpv4-sp/hard\libc_nano.a(lib_a-memset.o)
                              c:/vsarm/armcc/bin/../lib/gcc/arm-none-eabi/7.3.1/../../../../arm-none-eabi/lib/thumb/v7e-m/fpv4-sp/hard/crt0.o (memset)
c:/vsarm/armcc/bin/../lib/gcc/arm-none-eabi/7.3.1/../../../../arm-none-eabi/lib/thumb/v7e-m/fpv4-sp/hard\libc_nano.a(lib_a-puts.o)
                              build/main.o (puts)
c:/vsarm/armcc/bin/../lib/gcc/arm-none-eabi/7.3.1/../../../../arm-none-eabi/lib/thumb/v7e-m/fpv4-sp/hard\libc_nano.a(lib_a-wbuf.o)
                              c:/vsarm/armcc/bin/../lib/gcc/arm-none-eabi/7.3.1/../../../../arm-none-eabi/lib/thumb/v7e-m/fpv4-sp/hard\libc_nano.a(lib_a-puts.o) (__swbuf_r)
c:/vsarm/armcc/bin/../lib/gcc/arm-none-eabi/7.3.1/../../../../arm-none-eabi/lib/thumb/v7e-m/fpv4-sp/hard\libc_nano.a(lib_a-wsetup.o)
                              c:/vsarm/armcc/bin/../lib/gcc/arm-none-eabi/7.3.1/../../../../arm-none-eabi/lib/thumb/v7e-m/fpv4-sp/hard\libc_nano.a(lib_a-puts.o) (__swsetup_r)
c:/vsarm/armcc/bin/../lib/gcc/arm-none-eabi/7.3.1/../../../../arm-none-eabi/lib/thumb/v7e-m/fpv4-sp/hard\libc_nano.a(lib_a-fflush.o)
                              c:/vsarm/armcc/bin/../lib/gcc/arm-none-eabi/7.3.1/../../../../arm-none-eabi/lib/thumb/v7e-m/fpv4-sp/hard\libc_nano.a(lib_a-wbuf.o) (_fflush_r)
c:/vsarm/armcc/bin/../lib/gcc/arm-none-eabi/7.3.1/../../../../arm-none-eabi/lib/thumb/v7e-m/fpv4-sp/hard\libc_nano.a(lib_a-findfp.o)
                              c:/vsarm/armcc/bin/../lib/gcc/arm-none-eabi/7.3.1/../../../../arm-none-eabi/lib/thumb/v7e-m/fpv4-sp/hard\libc_nano.a(lib_a-puts.o) (__sinit)
c:/vsarm/armcc/bin/../lib/gcc/arm-none-eabi/7.3.1/../../../../arm-none-eabi/lib/thumb/v7e-m/fpv4-sp/hard\libc_nano.a(lib_a-fwalk.o)
                              c:/vsarm/armcc/bin/../lib/gcc/arm-none-eabi/7.3.1/../../../../arm-none-eabi/lib/thumb/v7e-m/fpv4-sp/hard\libc_nano.a(lib_a-findfp.o) (_fwalk)
c:/vsarm/armcc/bin/../lib/gcc/arm-none-eabi/7.3.1/../../../../arm-none-eabi/lib/thumb/v7e-m/fpv4-sp/hard\libc_nano.a(lib_a-makebuf.o)
                              c:/vsarm/armcc/bin/../lib/gcc/arm-none-eabi/7.3.1/../../../../arm-none-eabi/lib/thumb/v7e-m/fpv4-sp/hard\libc_nano.a(lib_a-wsetup.o) (__smakebuf_r)
c:/vsarm/armcc/bin/../lib/gcc/arm-none-eabi/7.3.1/../../../../arm-none-eabi/lib/thumb/v7e-m/fpv4-sp/hard\libc_nano.a(lib_a-nano-freer.o)
                              c:/vsarm/armcc/bin/../lib/gcc/arm-none-eabi/7.3.1/../../../../arm-none-eabi/lib/thumb/v7e-m/fpv4-sp/hard\libc_nano.a(lib_a-wsetup.o) (_free_r)
c:/vsarm/armcc/bin/../lib/gcc/arm-none-eabi/7.3.1/../../../../arm-none-eabi/lib/thumb/v7e-m/fpv4-sp/hard\libc_nano.a(lib_a-nano-mallocr.o)
                              c:/vsarm/armcc/bin/../lib/gcc/arm-none-eabi/7.3.1/../../../../arm-none-eabi/lib/thumb/v7e-m/fpv4-sp/hard\libc_nano.a(lib_a-findfp.o) (_malloc_r)
c:/vsarm/armcc/bin/../lib/gcc/arm-none-eabi/7.3.1/../../../../arm-none-eabi/lib/thumb/v7e-m/fpv4-sp/hard\libc_nano.a(lib_a-sbrkr.o)
                              c:/vsarm/armcc/bin/../lib/gcc/arm-none-eabi/7.3.1/../../../../arm-none-eabi/lib/thumb/v7e-m/fpv4-sp/hard\libc_nano.a(lib_a-nano-mallocr.o) (_sbrk_r)
c:/vsarm/armcc/bin/../lib/gcc/arm-none-eabi/7.3.1/../../../../arm-none-eabi/lib/thumb/v7e-m/fpv4-sp/hard\libc_nano.a(lib_a-stdio.o)
                              c:/vsarm/armcc/bin/../lib/gcc/arm-none-eabi/7.3.1/../../../../arm-none-eabi/lib/thumb/v7e-m/fpv4-sp/hard\libc_nano.a(lib_a-findfp.o) (__sread)
c:/vsarm/armcc/bin/../lib/gcc/arm-none-eabi/7.3.1/../../../../arm-none-eabi/lib/thumb/v7e-m/fpv4-sp/hard\libc_nano.a(lib_a-writer.o)
                              c:/vsarm/armcc/bin/../lib/gcc/arm-none-eabi/7.3.1/../../../../arm-none-eabi/lib/thumb/v7e-m/fpv4-sp/hard\libc_nano.a(lib_a-stdio.o) (_write_r)
c:/vsarm/armcc/bin/../lib/gcc/arm-none-eabi/7.3.1/../../../../arm-none-eabi/lib/thumb/v7e-m/fpv4-sp/hard\libc_nano.a(lib_a-closer.o)
                              c:/vsarm/armcc/bin/../lib/gcc/arm-none-eabi/7.3.1/../../../../arm-none-eabi/lib/thumb/v7e-m/fpv4-sp/hard\libc_nano.a(lib_a-stdio.o) (_close_r)
c:/vsarm/armcc/bin/../lib/gcc/arm-none-eabi/7.3.1/../../../../arm-none-eabi/lib/thumb/v7e-m/fpv4-sp/hard\libc_nano.a(lib_a-fstatr.o)
                              c:/vsarm/armcc/bin/../lib/gcc/arm-none-eabi/7.3.1/../../../../arm-none-eabi/lib/thumb/v7e-m/fpv4-sp/hard\libc_nano.a(lib_a-makebuf.o) (_fstat_r)
c:/vsarm/armcc/bin/../lib/gcc/arm-none-eabi/7.3.1/../../../../arm-none-eabi/lib/thumb/v7e-m/fpv4-sp/hard\libc_nano.a(lib_a-isattyr.o)
                              c:/vsarm/armcc/bin/../lib/gcc/arm-none-eabi/7.3.1/../../../../arm-none-eabi/lib/thumb/v7e-m/fpv4-sp/hard\libc_nano.a(lib_a-makebuf.o) (_isatty_r)
c:/vsarm/armcc/bin/../lib/gcc/arm-none-eabi/7.3.1/../../../../arm-none-eabi/lib/thumb/v7e-m/fpv4-sp/hard\libc_nano.a(lib_a-lseekr.o)
                              c:/vsarm/armcc/bin/../lib/gcc/arm-none-eabi/7.3.1/../../../../arm-none-eabi/lib/thumb/v7e-m/fpv4-sp/hard\libc_nano.a(lib_a-stdio.o) (_lseek_r)
c:/vsarm/armcc/bin/../lib/gcc/arm-none-eabi/7.3.1/../../../../arm-none-eabi/lib/thumb/v7e-m/fpv4-sp/hard\libc_nano.a(lib_a-mlock.o)
                              c:/vsarm/armcc/bin/../lib/gcc/arm-none-eabi/7.3.1/../../../../arm-none-eabi/lib/thumb/v7e-m/fpv4-sp/hard\libc_nano.a(lib_a-nano-freer.o) (__malloc_lock)
c:/vsarm/armcc/bin/../lib/gcc/arm-none-eabi/7.3.1/../../../../arm-none-eabi/lib/thumb/v7e-m/fpv4-sp/hard\libc_nano.a(lib_a-readr.o)
                              c:/vsarm/armcc/bin/../lib/gcc/arm-none-eabi/7.3.1/../../../../arm-none-eabi/lib/thumb/v7e-m/fpv4-sp/hard\libc_nano.a(lib_a-stdio.o) (_read_r)
c:/vsarm/armcc/bin/../lib/gcc/arm-none-eabi/7.3.1/../../../../arm-none-eabi/lib/thumb/v7e-m/fpv4-sp/hard\libc_nano.a(lib_a-reent.o)
                              c:/vsarm/armcc/bin/../lib/gcc/arm-none-eabi/7.3.1/../../../../arm-none-eabi/lib/thumb/v7e-m/fpv4-sp/hard\libc_nano.a(lib_a-sbrkr.o) (errno)
c:/vsarm/armcc/bin/../lib/gcc/arm-none-eabi/7.3.1/../../../../arm-none-eabi/lib/thumb/v7e-m/fpv4-sp/hard\libnosys.a(close.o)
                              c:/vsarm/armcc/bin/../lib/gcc/arm-none-eabi/7.3.1/../../../../arm-none-eabi/lib/thumb/v7e-m/fpv4-sp/hard\libc_nano.a(lib_a-closer.o) (_close)
c:/vsarm/armcc/bin/../lib/gcc/arm-none-eabi/7.3.1/../../../../arm-none-eabi/lib/thumb/v7e-m/fpv4-sp/hard\libnosys.a(fstat.o)
                              c:/vsarm/armcc/bin/../lib/gcc/arm-none-eabi/7.3.1/../../../../arm-none-eabi/lib/thumb/v7e-m/fpv4-sp/hard\libc_nano.a(lib_a-fstatr.o) (_fstat)
c:/vsarm/armcc/bin/../lib/gcc/arm-none-eabi/7.3.1/../../../../arm-none-eabi/lib/thumb/v7e-m/fpv4-sp/hard\libnosys.a(isatty.o)
                              c:/vsarm/armcc/bin/../lib/gcc/arm-none-eabi/7.3.1/../../../../arm-none-eabi/lib/thumb/v7e-m/fpv4-sp/hard\libc_nano.a(lib_a-isattyr.o) (_isatty)
c:/vsarm/armcc/bin/../lib/gcc/arm-none-eabi/7.3.1/../../../../arm-none-eabi/lib/thumb/v7e-m/fpv4-sp/hard\libnosys.a(lseek.o)
                              c:/vsarm/armcc/bin/../lib/gcc/arm-none-eabi/7.3.1/../../../../arm-none-eabi/lib/thumb/v7e-m/fpv4-sp/hard\libc_nano.a(lib_a-lseekr.o) (_lseek)
c:/vsarm/armcc/bin/../lib/gcc/arm-none-eabi/7.3.1/../../../../arm-none-eabi/lib/thumb/v7e-m/fpv4-sp/hard\libnosys.a(read.o)
                              c:/vsarm/armcc/bin/../lib/gcc/arm-none-eabi/7.3.1/../../../../arm-none-eabi/lib/thumb/v7e-m/fpv4-sp/hard\libc_nano.a(lib_a-readr.o) (_read)
c:/vsarm/armcc/bin/../lib/gcc/arm-none-eabi/7.3.1/../../../../arm-none-eabi/lib/thumb/v7e-m/fpv4-sp/hard\libnosys.a(sbrk.o)
                              c:/vsarm/armcc/bin/../lib/gcc/arm-none-eabi/7.3.1/../../../../arm-none-eabi/lib/thumb/v7e-m/fpv4-sp/hard\libc_nano.a(lib_a-sbrkr.o) (_sbrk)
c:/vsarm/armcc/bin/../lib/gcc/arm-none-eabi/7.3.1/../../../../arm-none-eabi/lib/thumb/v7e-m/fpv4-sp/hard\libnosys.a(_exit.o)
                              c:/vsarm/armcc/bin/../lib/gcc/arm-none-eabi/7.3.1/../../../../arm-none-eabi/lib/thumb/v7e-m/fpv4-sp/hard\libc_nano.a(lib_a-exit.o) (_exit)
Middlewares/STemWin/Lib/STemWin_CM7_wc32.a(GUICC_M8888I.o)
                              build/LCDConf.o (LCD_API_ColorConv_M8888I)
Middlewares/STemWin/Lib/STemWin_CM7_wc32.a(GUICC_M8888I_Index2Color.o)
                              Middlewares/STemWin/Lib/STemWin_CM7_wc32.a(GUICC_M8888I.o) (LCD_Index2Color_M8888I)
Middlewares/STemWin/Lib/STemWin_CM7_wc32.a(GUI_Alloc.o)
                              build/GUIConf.o (GUI_ALLOC_AssignMemory)
Middlewares/STemWin/Lib/STemWin_CM7_wc32.a(GUI_Common.o)
                              build/LCDConf.o (GUI_GetDrawMode)
Middlewares/STemWin/Lib/STemWin_CM7_wc32.a(GUI_Core.o)
                              Middlewares/STemWin/Lib/STemWin_CM7_wc32.a(GUI_Common.o) (GUI_pfExecAnimations)
Middlewares/STemWin/Lib/STemWin_CM7_wc32.a(GUI_Device.o)
                              build/LCDConf.o (GUI_DEVICE_CreateAndLink)
Middlewares/STemWin/Lib/STemWin_CM7_wc32.a(GUI_DispString.o)
                              Middlewares/STemWin/Lib/STemWin_CM7_wc32.a(GUI_Common.o) (GUI_DispString)
Middlewares/STemWin/Lib/STemWin_CM7_wc32.a(GUI_DispStringInRectEx.o)
                              Middlewares/STemWin/Lib/STemWin_CM7_wc32.a(GUI_DispString.o) (GUI_DispStringInRectEx)
Middlewares/STemWin/Lib/STemWin_CM7_wc32.a(GUI_MULTIBUF.o)
                              build/LCDConf.o (GUI_MULTIBUF_ConfirmEx)
Middlewares/STemWin/Lib/STemWin_CM7_wc32.a(GUI_OnKey.o)
                              Middlewares/STemWin/Lib/STemWin_CM7_wc32.a(GUI_Common.o) (GUI_GetKey)
Middlewares/STemWin/Lib/STemWin_CM7_wc32.a(GUI_SelectLayer.o)
                              build/LCDConf.o (GUI_GetLayerPosEx)
Middlewares/STemWin/Lib/STemWin_CM7_wc32.a(GUI_Time.o)
                              build/main.o (GUI_Delay)
Middlewares/STemWin/Lib/STemWin_CM7_wc32.a(GUI_UC.o)
                              Middlewares/STemWin/Lib/STemWin_CM7_wc32.a(GUI_DispString.o) (GUI_UC__GetCharCodeInc)
Middlewares/STemWin/Lib/STemWin_CM7_wc32.a(GUI_UC_EncodeNone.o)
                              Middlewares/STemWin/Lib/STemWin_CM7_wc32.a(GUI_Core.o) (GUI_UC_None)
Middlewares/STemWin/Lib/STemWin_CM7_wc32.a(GUI_WaitEvent.o)
                              Middlewares/STemWin/Lib/STemWin_CM7_wc32.a(GUI_OnKey.o) (GUI_SignalEvent)
Middlewares/STemWin/Lib/STemWin_CM7_wc32.a(GUI__Private.o)
                              Middlewares/STemWin/Lib/STemWin_CM7_wc32.a(GUI_Common.o) (GUI__HandleEOLine)
Middlewares/STemWin/Lib/STemWin_CM7_wc32.a(GUI__SinHQ.o)
                              Middlewares/STemWin/Lib/STemWin_CM7_wc32.a(GUI_Common.o) (GUI__SinHQ)
Middlewares/STemWin/Lib/STemWin_CM7_wc32.a(GUI__Wrap.o)
                              Middlewares/STemWin/Lib/STemWin_CM7_wc32.a(GUI_DispString.o) (GUI__WrapGetNumCharsDisp)
Middlewares/STemWin/Lib/STemWin_CM7_wc32.a(LCD.o)
                              Middlewares/STemWin/Lib/STemWin_CM7_wc32.a(GUI_Common.o) (LCD_SetDrawMode)
Middlewares/STemWin/Lib/STemWin_CM7_wc32.a(LCD_Color.o)
                              Middlewares/STemWin/Lib/STemWin_CM7_wc32.a(LCD.o) (LCD_InitColors)
Middlewares/STemWin/Lib/STemWin_CM7_wc32.a(LCD_GetColorIndex.o)
                              Middlewares/STemWin/Lib/STemWin_CM7_wc32.a(GUI_Common.o) (LCD_GetBkColorIndex)
Middlewares/STemWin/Lib/STemWin_CM7_wc32.a(LCD_GetEx.o)
                              build/LCDConf.o (LCD_GetBitsPerPixelEx)
Middlewares/STemWin/Lib/STemWin_CM7_wc32.a(LCD_GetNumDisplays.o)
                              Middlewares/STemWin/Lib/STemWin_CM7_wc32.a(LCD_Color.o) (LCD_GetNumLayers)
Middlewares/STemWin/Lib/STemWin_CM7_wc32.a(LCD_GetP.o)
                              Middlewares/STemWin/Lib/STemWin_CM7_wc32.a(GUI_Common.o) (LCD_GetPixelIndex)
Middlewares/STemWin/Lib/STemWin_CM7_wc32.a(LCD_GetPixelColor.o)
                              Middlewares/STemWin/Lib/STemWin_CM7_wc32.a(GUI__Private.o) (LCD_GetPixelColor)
Middlewares/STemWin/Lib/STemWin_CM7_wc32.a(LCD_Rotate180.o)
                              Middlewares/STemWin/Lib/STemWin_CM7_wc32.a(GUI_DispString.o) (LCD_APIList180)
Middlewares/STemWin/Lib/STemWin_CM7_wc32.a(LCD_RotateCCW.o)
                              Middlewares/STemWin/Lib/STemWin_CM7_wc32.a(GUI_DispString.o) (LCD_APIListCCW)
Middlewares/STemWin/Lib/STemWin_CM7_wc32.a(LCD_RotateCW.o)
                              Middlewares/STemWin/Lib/STemWin_CM7_wc32.a(GUI_DispString.o) (LCD_APIListCW)
Middlewares/STemWin/Lib/STemWin_CM7_wc32.a(LCD_SelectLCD.o)
                              Middlewares/STemWin/Lib/STemWin_CM7_wc32.a(GUI_Common.o) (LCD_SelectLCD)
Middlewares/STemWin/Lib/STemWin_CM7_wc32.a(LCD_Set.o)
                              Middlewares/STemWin/Lib/STemWin_CM7_wc32.a(GUI_SelectLayer.o) (LCD_GetPosEx)
Middlewares/STemWin/Lib/STemWin_CM7_wc32.a(LCD_UpdateColorIndices.o)
                              Middlewares/STemWin/Lib/STemWin_CM7_wc32.a(GUI_Common.o) (LCD_UpdateColorIndices)
Middlewares/STemWin/Lib/STemWin_CM7_wc32.a(GUIDRV_Lin_32.o)
                              build/LCDConf.o (GUIDRV_Lin_32_API)
Middlewares/STemWin/Lib/STemWin_CM7_wc32.a(F6x8.o)
                              Middlewares/STemWin/Lib/STemWin_CM7_wc32.a(GUI_Core.o) (GUI_Font6x8)
Middlewares/STemWin/Lib/STemWin_CM7_wc32.a(GUIDEV_32.o)
                              Middlewares/STemWin/Lib/STemWin_CM7_wc32.a(GUIDRV_Lin_32.o) (GUI_MEMDEV_DEVICE_32)
Middlewares/STemWin/Lib/STemWin_CM7_wc32.a(GUIDEV_Usage.o)
                              Middlewares/STemWin/Lib/STemWin_CM7_wc32.a(GUIDEV_32.o) (GUI_USAGE_AddRect)
Middlewares/STemWin/Lib/STemWin_CM7_wc32.a(GUIDEV_WriteToActiveAlpha.o)
                              Middlewares/STemWin/Lib/STemWin_CM7_wc32.a(GUIDEV_32.o) (GUI_MEMDEV__WriteToActiveAlpha)
Middlewares/STemWin/Lib/STemWin_CM7_wc32.a(WM.o)
                              Middlewares/STemWin/Lib/STemWin_CM7_wc32.a(GUI_SelectLayer.o) (WM__TouchedLayer)
Middlewares/STemWin/Lib/STemWin_CM7_wc32.a(WM_Lib.o)
                              Middlewares/STemWin/Lib/STemWin_CM7_wc32.a(GUI_Common.o) (WM_GetClientRect)
Middlewares/STemWin/Lib/STemWin_CM7_wc32.a(WM_Move.o)
                              Middlewares/STemWin/Lib/STemWin_CM7_wc32.a(WM_Lib.o) (WM__MoveWindow)
Middlewares/STemWin/Lib/STemWin_CM7_wc32.a(WM_Timer.o)
                              Middlewares/STemWin/Lib/STemWin_CM7_wc32.a(WM.o) (WM__DeleteAssocTimer)
Middlewares/STemWin/Lib/STemWin_CM7_wc32.a(WM_Touch.o)
                              Middlewares/STemWin/Lib/STemWin_CM7_wc32.a(WM.o) (WM__aCHWinModal)
Middlewares/STemWin/Lib/STemWin_CM7_wc32.a(WM__Private.o)
                              Middlewares/STemWin/Lib/STemWin_CM7_wc32.a(WM_Lib.o) (WM__ForEachDesc)
Middlewares/STemWin/Lib/STemWin_CM7_wc32.a(BUTTON.o)
                              build/FramewinDLG.o (BUTTON_CreateIndirect)
Middlewares/STemWin/Lib/STemWin_CM7_wc32.a(BUTTON_Skin.o)
                              Middlewares/STemWin/Lib/STemWin_CM7_wc32.a(BUTTON.o) (BUTTON__Skin)
Middlewares/STemWin/Lib/STemWin_CM7_wc32.a(BUTTON_SkinFlex.o)
                              Middlewares/STemWin/Lib/STemWin_CM7_wc32.a(BUTTON.o) (BUTTON_DrawSkinFlex)
Middlewares/STemWin/Lib/STemWin_CM7_wc32.a(DIALOG.o)
                              build/FramewinDLG.o (GUI_CreateDialogBox)
Middlewares/STemWin/Lib/STemWin_CM7_wc32.a(FRAMEWIN.o)
                              build/FramewinDLG.o (FRAMEWIN_SetText)
Middlewares/STemWin/Lib/STemWin_CM7_wc32.a(FRAMEWIN_Skin.o)
                              Middlewares/STemWin/Lib/STemWin_CM7_wc32.a(FRAMEWIN.o) (FRAMEWIN__Skin)
Middlewares/STemWin/Lib/STemWin_CM7_wc32.a(FRAMEWIN_SkinFlex.o)
                              Middlewares/STemWin/Lib/STemWin_CM7_wc32.a(FRAMEWIN.o) (FRAMEWIN_DrawSkinFlex)
Middlewares/STemWin/Lib/STemWin_CM7_wc32.a(FRAMEWIN__UpdateButtons.o)
                              Middlewares/STemWin/Lib/STemWin_CM7_wc32.a(FRAMEWIN.o) (FRAMEWIN__UpdateButtons)
Middlewares/STemWin/Lib/STemWin_CM7_wc32.a(GUI_DRAW.o)
                              Middlewares/STemWin/Lib/STemWin_CM7_wc32.a(BUTTON_SkinFlex.o) (GUI_DRAW__Draw)
Middlewares/STemWin/Lib/STemWin_CM7_wc32.a(MULTIEDIT.o)
                              build/FramewinDLG.o (MULTIEDIT_CreateEx)
Middlewares/STemWin/Lib/STemWin_CM7_wc32.a(SCROLLBAR.o)
                              Middlewares/STemWin/Lib/STemWin_CM7_wc32.a(MULTIEDIT.o) (SCROLLBAR_Dec)
Middlewares/STemWin/Lib/STemWin_CM7_wc32.a(SCROLLBAR_Skin.o)
                              Middlewares/STemWin/Lib/STemWin_CM7_wc32.a(SCROLLBAR.o) (SCROLLBAR__Skin)
Middlewares/STemWin/Lib/STemWin_CM7_wc32.a(SCROLLBAR_SkinFlex.o)
                              Middlewares/STemWin/Lib/STemWin_CM7_wc32.a(SCROLLBAR.o) (SCROLLBAR_DrawSkinFlex)
Middlewares/STemWin/Lib/STemWin_CM7_wc32.a(TEXT.o)
                              build/FramewinDLG.o (TEXT_CreateEx)
Middlewares/STemWin/Lib/STemWin_CM7_wc32.a(WIDGET.o)
                              Middlewares/STemWin/Lib/STemWin_CM7_wc32.a(SCROLLBAR_SkinFlex.o) (WIDGET__RotateRect90)
Middlewares/STemWin/Lib/STemWin_CM7_wc32.a(WIDGET_Effect_Simple.o)
                              Middlewares/STemWin/Lib/STemWin_CM7_wc32.a(WIDGET.o) (WIDGET_Effect_Simple)
Middlewares/STemWin/Lib/STemWin_CM7_wc32.a(GUICC_0.o)
                              Middlewares/STemWin/Lib/STemWin_CM7_wc32.a(LCD_Color.o) (LCD_API_ColorConv_0)
Middlewares/STemWin/Lib/STemWin_CM7_wc32.a(GUICC_8888_Index2Color.o)
                              Middlewares/STemWin/Lib/STemWin_CM7_wc32.a(GUIDEV_WriteToActiveAlpha.o) (LCD_Index2Color_8888)
Middlewares/STemWin/Lib/STemWin_CM7_wc32.a(GUI_2DLib.o)
                              Middlewares/STemWin/Lib/STemWin_CM7_wc32.a(BUTTON_SkinFlex.o) (GUI_DrawRect)
Middlewares/STemWin/Lib/STemWin_CM7_wc32.a(GUI_Char.o)
                              Middlewares/STemWin/Lib/STemWin_CM7_wc32.a(GUI_Common.o) (GUI_GetYAdjust)
Middlewares/STemWin/Lib/STemWin_CM7_wc32.a(GUI_CharLine.o)
                              Middlewares/STemWin/Lib/STemWin_CM7_wc32.a(GUI_Common.o) (GUI__GetLineNumChars)
Middlewares/STemWin/Lib/STemWin_CM7_wc32.a(GUI_CharM.o)
                              Middlewares/STemWin/Lib/STemWin_CM7_wc32.a(F6x8.o) (GUIMONO_DispChar)
Middlewares/STemWin/Lib/STemWin_CM7_wc32.a(GUI_Cursor.o)
                              Middlewares/STemWin/Lib/STemWin_CM7_wc32.a(WM_Touch.o) (GUI_CURSOR_SetPositionEx)
Middlewares/STemWin/Lib/STemWin_CM7_wc32.a(GUI_CursorResource.o)
                              Middlewares/STemWin/Lib/STemWin_CM7_wc32.a(GUI_Cursor.o) (GUI_CursorArrowM)
Middlewares/STemWin/Lib/STemWin_CM7_wc32.a(GUI_DispChar.o)
                              Middlewares/STemWin/Lib/STemWin_CM7_wc32.a(GUI_DispString.o) (GUI_DispChar)
Middlewares/STemWin/Lib/STemWin_CM7_wc32.a(GUI_DrawBitmap.o)
                              Middlewares/STemWin/Lib/STemWin_CM7_wc32.a(GUI_Cursor.o) (GUI_DrawBitmap)
Middlewares/STemWin/Lib/STemWin_CM7_wc32.a(GUI_DrawGradient.o)
                              Middlewares/STemWin/Lib/STemWin_CM7_wc32.a(BUTTON_SkinFlex.o) (GUI_DrawGradientV)
Middlewares/STemWin/Lib/STemWin_CM7_wc32.a(GUI_DrawLib.o)
                              Middlewares/STemWin/Lib/STemWin_CM7_wc32.a(BUTTON_SkinFlex.o) (GUI_DrawHLine)
Middlewares/STemWin/Lib/STemWin_CM7_wc32.a(GUI_DrawLine.o)
                              Middlewares/STemWin/Lib/STemWin_CM7_wc32.a(GUI_DrawLib.o) (GL_DrawLineToEx)
Middlewares/STemWin/Lib/STemWin_CM7_wc32.a(GUI_FillPolygon.o)
                              Middlewares/STemWin/Lib/STemWin_CM7_wc32.a(GUI_DrawLine.o) (GL_FillPolygon)
Middlewares/STemWin/Lib/STemWin_CM7_wc32.a(GUI_PID.o)
                              Middlewares/STemWin/Lib/STemWin_CM7_wc32.a(WM_Touch.o) (GUI_PID_GetState)
Middlewares/STemWin/Lib/STemWin_CM7_wc32.a(GUI_SPRITE.o)
                              Middlewares/STemWin/Lib/STemWin_CM7_wc32.a(GUI_Cursor.o) (GUI_SPRITE__CreateEx)
Middlewares/STemWin/Lib/STemWin_CM7_wc32.a(GUI_SPRITE_Anim.o)
                              Middlewares/STemWin/Lib/STemWin_CM7_wc32.a(GUI_Cursor.o) (GUI_SPRITE_CreateExAnim)
Middlewares/STemWin/Lib/STemWin_CM7_wc32.a(GUI_Timer.o)
                              Middlewares/STemWin/Lib/STemWin_CM7_wc32.a(GUI_WaitEvent.o) (GUI_TIMER__IsActive)
Middlewares/STemWin/Lib/STemWin_CM7_wc32.a(GUI__Alpha.o)
                              Middlewares/STemWin/Lib/STemWin_CM7_wc32.a(GUIDEV_WriteToActiveAlpha.o) (GUI__DoAlphaBlending)
Middlewares/STemWin/Lib/STemWin_CM7_wc32.a(GUI__BiDiRouting.o)
                              Middlewares/STemWin/Lib/STemWin_CM7_wc32.a(MULTIEDIT.o) (_pfGUI__BIDI_GetCharDir)
Middlewares/STemWin/Lib/STemWin_CM7_wc32.a(GUI__CompactPixelIndices.o)
                              Middlewares/STemWin/Lib/STemWin_CM7_wc32.a(GUI_SPRITE.o) (GUI__CompactPixelIndices)
Middlewares/STemWin/Lib/STemWin_CM7_wc32.a(GUI__DrawTwinArc.o)
                              Middlewares/STemWin/Lib/STemWin_CM7_wc32.a(FRAMEWIN_SkinFlex.o) (GUI__DrawTwinArc2)
Middlewares/STemWin/Lib/STemWin_CM7_wc32.a(GUI__ExpandPixelIndices.o)
                              Middlewares/STemWin/Lib/STemWin_CM7_wc32.a(GUI__Alpha.o) (GUI__ExpandPixelIndicesEx)
Middlewares/STemWin/Lib/STemWin_CM7_wc32.a(GUI__GetCursorPos.o)
                              Middlewares/STemWin/Lib/STemWin_CM7_wc32.a(MULTIEDIT.o) (GUI__GetCursorPosX)
Middlewares/STemWin/Lib/STemWin_CM7_wc32.a(GUI__ManageCache.o)
                              Middlewares/STemWin/Lib/STemWin_CM7_wc32.a(WM.o) (GUI__ManageCache)
Middlewares/STemWin/Lib/STemWin_CM7_wc32.a(LCD_AA.o)
                              Middlewares/STemWin/Lib/STemWin_CM7_wc32.a(GUI_DrawBitmap.o) (LCD_AA_SetAndMask)
Middlewares/STemWin/Lib/STemWin_CM7_wc32.a(LCD_Mirror.o)
                              Middlewares/STemWin/Lib/STemWin_CM7_wc32.a(GUIDRV_Lin_32.o) (LCD_aMirror)
Middlewares/STemWin/Lib/STemWin_CM7_wc32.a(LCD_ReadRect.o)
                              Middlewares/STemWin/Lib/STemWin_CM7_wc32.a(GUI__Alpha.o) (GUI_ReadRectEx)
Middlewares/STemWin/Lib/STemWin_CM7_wc32.a(LCD_SetClipRectEx.o)
                              Middlewares/STemWin/Lib/STemWin_CM7_wc32.a(WM.o) (LCD_SetClipRectEx)
Middlewares/STemWin/Lib/STemWin_CM7_wc32.a(F13_1.o)
                              Middlewares/STemWin/Lib/STemWin_CM7_wc32.a(BUTTON.o) (GUI_Font13_1)
Middlewares/STemWin/Lib/STemWin_CM7_wc32.a(F13_ASCII.o)
                              Middlewares/STemWin/Lib/STemWin_CM7_wc32.a(F13_1.o) (GUI_Font13ASCII_Prop1)
Middlewares/STemWin/Lib/STemWin_CM7_wc32.a(GUIDEV.o)
                              Middlewares/STemWin/Lib/STemWin_CM7_wc32.a(WM.o) (GUI_MEMDEV_Delete)
Middlewares/STemWin/Lib/STemWin_CM7_wc32.a(GUIDEV_Banding.o)
                              Middlewares/STemWin/Lib/STemWin_CM7_wc32.a(WM.o) (GUI_MEMDEV_Draw)
Middlewares/STemWin/Lib/STemWin_CM7_wc32.a(GUIDEV_Clear.o)
                              Middlewares/STemWin/Lib/STemWin_CM7_wc32.a(GUIDEV_Banding.o) (GUI_MEMDEV_Clear)
Middlewares/STemWin/Lib/STemWin_CM7_wc32.a(GUIDEV_GetDataPtr.o)
                              Middlewares/STemWin/Lib/STemWin_CM7_wc32.a(GUIDEV_WriteToActiveAlpha.o) (GUI_MEMDEV_GetDataPtr)
Middlewares/STemWin/Lib/STemWin_CM7_wc32.a(GUIDEV_GetYSize.o)
                              Middlewares/STemWin/Lib/STemWin_CM7_wc32.a(GUIDEV_Banding.o) (GUI_MEMDEV_GetYSize)
Middlewares/STemWin/Lib/STemWin_CM7_wc32.a(GUIDEV_ReduceYSize.o)
                              Middlewares/STemWin/Lib/STemWin_CM7_wc32.a(GUIDEV_Banding.o) (GUI_MEMDEV_ReduceYSize)
Middlewares/STemWin/Lib/STemWin_CM7_wc32.a(GUIDEV_SetOrg.o)
                              Middlewares/STemWin/Lib/STemWin_CM7_wc32.a(GUIDEV_Banding.o) (GUI_MEMDEV_SetOrg)
Middlewares/STemWin/Lib/STemWin_CM7_wc32.a(GUIDEV_StaticDevices.o)
                              Middlewares/STemWin/Lib/STemWin_CM7_wc32.a(WM.o) (GUI_MEMDEV_Paint1Static)
Middlewares/STemWin/Lib/STemWin_CM7_wc32.a(GUIDEV_UsageBM.o)
                              Middlewares/STemWin/Lib/STemWin_CM7_wc32.a(GUIDEV.o) (GUI_USAGE_BM_Create)
Middlewares/STemWin/Lib/STemWin_CM7_wc32.a(GUIDEV_Write.o)
                              Middlewares/STemWin/Lib/STemWin_CM7_wc32.a(GUIDEV_StaticDevices.o) (GUI_MEMDEV_Write)
Middlewares/STemWin/Lib/STemWin_CM7_wc32.a(GUIDEV_WriteToActiveOpaque.o)
                              Middlewares/STemWin/Lib/STemWin_CM7_wc32.a(GUIDEV.o) (GUI_MEMDEV__WriteToActiveOpaque)
Middlewares/STemWin/Lib/STemWin_CM7_wc32.a(WM_BringToTop.o)
                              Middlewares/STemWin/Lib/STemWin_CM7_wc32.a(FRAMEWIN.o) (WM_BringToTop)
Middlewares/STemWin/Lib/STemWin_CM7_wc32.a(WM_GetWindowSize.o)
                              Middlewares/STemWin/Lib/STemWin_CM7_wc32.a(FRAMEWIN.o) (WM__GetWindowSizeX)
Middlewares/STemWin/Lib/STemWin_CM7_wc32.a(WM_Hide.o)
                              Middlewares/STemWin/Lib/STemWin_CM7_wc32.a(FRAMEWIN.o) (WM_HideWindow)
Middlewares/STemWin/Lib/STemWin_CM7_wc32.a(WM_MemDev.o)
                              Middlewares/STemWin/Lib/STemWin_CM7_wc32.a(FRAMEWIN.o) (WM_DisableMemdev)
Middlewares/STemWin/Lib/STemWin_CM7_wc32.a(WM_PID__GetPrevState.o)
                              Middlewares/STemWin/Lib/STemWin_CM7_wc32.a(WM_Touch.o) (WM_PID__SetPrevState)
Middlewares/STemWin/Lib/STemWin_CM7_wc32.a(WM_Screen2Win.o)
                              Middlewares/STemWin/Lib/STemWin_CM7_wc32.a(WM_Touch.o) (WM_Screen2hWin)
Middlewares/STemWin/Lib/STemWin_CM7_wc32.a(WM_SetCapture.o)
                              Middlewares/STemWin/Lib/STemWin_CM7_wc32.a(SCROLLBAR.o) (WM_SetCapture)
Middlewares/STemWin/Lib/STemWin_CM7_wc32.a(WM_SetCaptureMove.o)
                              Middlewares/STemWin/Lib/STemWin_CM7_wc32.a(FRAMEWIN.o) (WM_SetCaptureMove)
Middlewares/STemWin/Lib/STemWin_CM7_wc32.a(WM_SetFocusOnNextChild.o)
                              Middlewares/STemWin/Lib/STemWin_CM7_wc32.a(DIALOG.o) (WM_SetFocusOnNextChild)
Middlewares/STemWin/Lib/STemWin_CM7_wc32.a(WM_SetFocusOnPrevChild.o)
                              Middlewares/STemWin/Lib/STemWin_CM7_wc32.a(FRAMEWIN.o) (WM_SetFocusOnPrevChild)
Middlewares/STemWin/Lib/STemWin_CM7_wc32.a(WM_SetScrollbar.o)
                              Middlewares/STemWin/Lib/STemWin_CM7_wc32.a(MULTIEDIT.o) (WM_SetScrollbarH)
Middlewares/STemWin/Lib/STemWin_CM7_wc32.a(WM_SetTrans.o)
                              Middlewares/STemWin/Lib/STemWin_CM7_wc32.a(BUTTON_SkinFlex.o) (WM_SetHasTrans)
Middlewares/STemWin/Lib/STemWin_CM7_wc32.a(WM_UserData.o)
                              Middlewares/STemWin/Lib/STemWin_CM7_wc32.a(BUTTON.o) (WM__GetUserDataEx)
Middlewares/STemWin/Lib/STemWin_CM7_wc32.a(GUICC_8888.o)
                              Middlewares/STemWin/Lib/STemWin_CM7_wc32.a(GUIDEV.o) (LCD_API_ColorConv_8888)
Middlewares/STemWin/Lib/STemWin_CM7_wc32.a(GUICC_888_Index2Color.o)
                              Middlewares/STemWin/Lib/STemWin_CM7_wc32.a(GUI__Alpha.o) (LCD_Index2Color_888)
Middlewares/STemWin/Lib/STemWin_CM7_wc32.a(GUI_Arc.o)
                              Middlewares/STemWin/Lib/STemWin_CM7_wc32.a(GUI_DrawLib.o) (GL_DrawArc)
Middlewares/STemWin/Lib/STemWin_CM7_wc32.a(GUI_CharP.o)
                              Middlewares/STemWin/Lib/STemWin_CM7_wc32.a(F13_1.o) (GUIPROP_DispChar)
Middlewares/STemWin/Lib/STemWin_CM7_wc32.a(GUI_Circ.o)
                              Middlewares/STemWin/Lib/STemWin_CM7_wc32.a(GUI_DrawLib.o) (GL_FillCircle)
Middlewares/STemWin/Lib/STemWin_CM7_wc32.a(GUI_SetAlpha.o)
                              Middlewares/STemWin/Lib/STemWin_CM7_wc32.a(GUIDEV_StaticDevices.o) (GUI__AlphaPreserveTrans)
Middlewares/STemWin/Lib/STemWin_CM7_wc32.a(GUIDEV_CreateFixed.o)
                              Middlewares/STemWin/Lib/STemWin_CM7_wc32.a(GUIDEV_StaticDevices.o) (GUI_MEMDEV_CreateFixed)
Middlewares/STemWin/Lib/STemWin_CM7_wc32.a(GUIDEV_GetPos.o)
                              Middlewares/STemWin/Lib/STemWin_CM7_wc32.a(GUIDEV_StaticDevices.o) (GUI_MEMDEV_GetXPos)
Middlewares/STemWin/Lib/STemWin_CM7_wc32.a(GUIDEV_GetXSize.o)
                              Middlewares/STemWin/Lib/STemWin_CM7_wc32.a(GUIDEV_StaticDevices.o) (GUI_MEMDEV_GetXSize)
c:/vsarm/armcc/bin/../lib/gcc/arm-none-eabi/7.3.1/thumb/v7e-m/fpv4-sp/hard\libgcc.a(_arm_addsubdf3.o)
                              Middlewares/STemWin/Lib/STemWin_CM7_wc32.a(GUI_Arc.o) (__aeabi_f2d)
c:/vsarm/armcc/bin/../lib/gcc/arm-none-eabi/7.3.1/thumb/v7e-m/fpv4-sp/hard\libgcc.a(_arm_fixdfsi.o)
                              Middlewares/STemWin/Lib/STemWin_CM7_wc32.a(GUI_Arc.o) (__aeabi_d2iz)
c:/vsarm/armcc/bin/../lib/gcc/arm-none-eabi/7.3.1/thumb/v7e-m/fpv4-sp/hard\libgcc.a(_aeabi_uldivmod.o)
                              build/stm32f7xx_hal_rcc.o (__aeabi_uldivmod)
c:/vsarm/armcc/bin/../lib/gcc/arm-none-eabi/7.3.1/thumb/v7e-m/fpv4-sp/hard\libgcc.a(_udivmoddi4.o)
                              c:/vsarm/armcc/bin/../lib/gcc/arm-none-eabi/7.3.1/thumb/v7e-m/fpv4-sp/hard\libgcc.a(_aeabi_uldivmod.o) (__udivmoddi4)
c:/vsarm/armcc/bin/../lib/gcc/arm-none-eabi/7.3.1/thumb/v7e-m/fpv4-sp/hard\libgcc.a(_dvmd_tls.o)
                              c:/vsarm/armcc/bin/../lib/gcc/arm-none-eabi/7.3.1/thumb/v7e-m/fpv4-sp/hard\libgcc.a(_aeabi_uldivmod.o) (__aeabi_ldiv0)
c:/vsarm/armcc/bin/../lib/gcc/arm-none-eabi/7.3.1/../../../../arm-none-eabi/lib/thumb/v7e-m/fpv4-sp/hard\libc_nano.a(lib_a-memcpy-stub.o)
                              Middlewares/STemWin/Lib/STemWin_CM7_wc32.a(GUI_Common.o) (memcpy)
c:/vsarm/armcc/bin/../lib/gcc/arm-none-eabi/7.3.1/../../../../arm-none-eabi/lib/thumb/v7e-m/fpv4-sp/hard\libc_nano.a(lib_a-memmove.o)
                              Middlewares/STemWin/Lib/STemWin_CM7_wc32.a(GUI_Alloc.o) (memmove)
c:/vsarm/armcc/bin/../lib/gcc/arm-none-eabi/7.3.1/../../../../arm-none-eabi/lib/thumb/v7e-m/fpv4-sp/hard\libc_nano.a(lib_a-strcpy.o)
                              Middlewares/STemWin/Lib/STemWin_CM7_wc32.a(GUI__Private.o) (strcpy)
c:/vsarm/armcc/bin/../lib/gcc/arm-none-eabi/7.3.1/../../../../arm-none-eabi/lib/thumb/v7e-m/fpv4-sp/hard\libc_nano.a(lib_a-strlen.o)
                              Middlewares/STemWin/Lib/STemWin_CM7_wc32.a(BUTTON.o) (strlen)
c:/vsarm/armcc/bin/../lib/gcc/arm-none-eabi/7.3.1/../../../../arm-none-eabi/lib/thumb/v7e-m/fpv4-sp/hard\libm.a(lib_a-s_ceil.o)
                              Middlewares/STemWin/Lib/STemWin_CM7_wc32.a(GUI_Arc.o) (ceil)
c:/vsarm/armcc/bin/../lib/gcc/arm-none-eabi/7.3.1/../../../../arm-none-eabi/lib/thumb/v7e-m/fpv4-sp/hard\libm.a(lib_a-s_floor.o)
                              Middlewares/STemWin/Lib/STemWin_CM7_wc32.a(GUI_Arc.o) (floor)
c:/vsarm/armcc/bin/../lib/gcc/arm-none-eabi/7.3.1/thumb/v7e-m/fpv4-sp/hard\libgcc.a(_arm_cmpdf2.o)
                              c:/vsarm/armcc/bin/../lib/gcc/arm-none-eabi/7.3.1/../../../../arm-none-eabi/lib/thumb/v7e-m/fpv4-sp/hard\libm.a(lib_a-s_ceil.o) (__aeabi_dcmpgt)

Allocating common symbols
Common symbol       size              file

GUI__aNumBuffers    0x2               Middlewares/STemWin/Lib/STemWin_CM7_wc32.a(GUI_Core.o)
sdramHandle         0x34              build/stm32746g_discovery_sdram.o
GUI__NumLayersInUse
                    0x1               Middlewares/STemWin/Lib/STemWin_CM7_wc32.a(GUI_Core.o)
WM__NumWindows      0x2               Middlewares/STemWin/Lib/STemWin_CM7_wc32.a(WM.o)
WM__hATransWindow   0x4               Middlewares/STemWin/Lib/STemWin_CM7_wc32.a(WM.o)
hdma_memtomem_dma2_stream0
                    0x60              build/main.o
GUI__BIDI_Enabled   0x4               Middlewares/STemWin/Lib/STemWin_CM7_wc32.a(GUI__BiDiRouting.o)
textAudioStatus     0x4               build/FramewinDLG.o
_pfGUI__BIDI_GetCursorPosX
                    0x4               Middlewares/STemWin/Lib/STemWin_CM7_wc32.a(GUI__BiDiRouting.o)
errno               0x4               c:/vsarm/armcc/bin/../lib/gcc/arm-none-eabi/7.3.1/../../../../arm-none-eabi/lib/thumb/v7e-m/fpv4-sp/hard\libc_nano.a(lib_a-reent.o)
WM__ahDesktopWin    0x8               Middlewares/STemWin/Lib/STemWin_CM7_wc32.a(WM.o)
GUI__LayerMask      0x4               Middlewares/STemWin/Lib/STemWin_CM7_wc32.a(GUI_Core.o)
WM_pfPollPID        0x4               Middlewares/STemWin/Lib/STemWin_CM7_wc32.a(WM.o)
hcrc                0x24              build/main.o
_pfGUI__BIDI_GetCursorPosChar
                    0x4               Middlewares/STemWin/Lib/STemWin_CM7_wc32.a(GUI__BiDiRouting.o)
GUI_DecChar         0x1               Middlewares/STemWin/Lib/STemWin_CM7_wc32.a(GUI_Core.o)
hi2c2               0x4c              build/main.o
_pfGUI__BIDI_Log2Vis
                    0x4               Middlewares/STemWin/Lib/STemWin_CM7_wc32.a(GUI__BiDiRouting.o)
frameMain           0x4               build/FramewinDLG.o
hLtdcHandler        0xa8              build/stm32746g_discovery_lcd.o
EEPROMDataRead      0x2               build/stm32746g_discovery_eeprom.o
GUI_pLCD_APIList    0x4               Middlewares/STemWin/Lib/STemWin_CM7_wc32.a(GUI_Core.o)
GUI_AA__ClipX0      0x4               Middlewares/STemWin/Lib/STemWin_CM7_wc32.a(GUI_Core.o)
uwTick              0x4               build/stm32f7xx_hal.o
WM__pExecGestures   0x4               Middlewares/STemWin/Lib/STemWin_CM7_wc32.a(WM.o)
pFlash              0x1c              build/stm32f7xx_hal_flash.o
OS_TimeMS           0x4               build/GUI_X.o
_pfGUI__BIDI_GetLogChar
                    0x4               Middlewares/STemWin/Lib/STemWin_CM7_wc32.a(GUI__BiDiRouting.o)
GUI_DCACHE__pfClearCacheHook
                    0x4               Middlewares/STemWin/Lib/STemWin_CM7_wc32.a(GUI_Core.o)
GUI_OrgY            0x2               Middlewares/STemWin/Lib/STemWin_CM7_wc32.a(GUI_Core.o)
GUI_pfHookMTOUCH    0x4               Middlewares/STemWin/Lib/STemWin_CM7_wc32.a(GUI_Core.o)
hltdc               0xa8              build/main.o
WM__ahWinFocus      0x8               Middlewares/STemWin/Lib/STemWin_CM7_wc32.a(WM.o)
GUI_pfDispCharLine  0x4               Middlewares/STemWin/Lib/STemWin_CM7_wc32.a(GUI_Core.o)
GUI_pfTimerExec     0x4               Middlewares/STemWin/Lib/STemWin_CM7_wc32.a(GUI_Core.o)
GUI_OrgX            0x2               Middlewares/STemWin/Lib/STemWin_CM7_wc32.a(GUI_Core.o)
WM__NumInvalidWindows
                    0x2               Middlewares/STemWin/Lib/STemWin_CM7_wc32.a(WM.o)
WM__aCHWinMouseOver
                    0x10              Middlewares/STemWin/Lib/STemWin_CM7_wc32.a(WM_Touch.o)
GUI_pfDispCharStyle
                    0x4               Middlewares/STemWin/Lib/STemWin_CM7_wc32.a(GUI_Core.o)
GUI__IsInitialized  0x1               Middlewares/STemWin/Lib/STemWin_CM7_wc32.a(GUI_Core.o)
_pfGUI__BIDI_GetCharDir
                    0x4               Middlewares/STemWin/Lib/STemWin_CM7_wc32.a(GUI__BiDiRouting.o)
GUI__pfDrawM565BitmapFunc
                    0x4               Middlewares/STemWin/Lib/STemWin_CM7_wc32.a(GUI_Core.o)
EEPROMDataWrite     0x1               build/stm32746g_discovery_eeprom.o
aMemory             0x25800           build/GUIConf.o
_pfGUI__BIDI_IsNSM  0x4               Middlewares/STemWin/Lib/STemWin_CM7_wc32.a(GUI__BiDiRouting.o)
GUI__PreserveTrans  0x1               Middlewares/STemWin/Lib/STemWin_CM7_wc32.a(GUI_Core.o)
WM__FirstWin        0x4               Middlewares/STemWin/Lib/STemWin_CM7_wc32.a(WM.o)
WM__TouchedLayer    0x4               Middlewares/STemWin/Lib/STemWin_CM7_wc32.a(WM.o)
GUI__pfDrawM565MemdevFunc
                    0x4               Middlewares/STemWin/Lib/STemWin_CM7_wc32.a(GUI_Core.o)
GUI_RectDispString  0x8               Middlewares/STemWin/Lib/STemWin_CM7_wc32.a(GUI_DispStringInRectEx.o)
WM__CaptureReleaseAuto
                    0x1               Middlewares/STemWin/Lib/STemWin_CM7_wc32.a(WM.o)
GUI_MTOUCH__pStoreEvent
                    0x4               Middlewares/STemWin/Lib/STemWin_CM7_wc32.a(GUI_Core.o)
WM__InvalidLayerMask
                    0x4               Middlewares/STemWin/Lib/STemWin_CM7_wc32.a(WM.o)
WM__PaintCallbackCnt
                    0x1               Middlewares/STemWin/Lib/STemWin_CM7_wc32.a(WM.o)
WM__aCHWinLast      0x10              Middlewares/STemWin/Lib/STemWin_CM7_wc32.a(WM_Touch.o)
huart6              0x80              build/main.o
textStatus          0x4               build/FramewinDLG.o
GUI_pfExecAnimations
                    0x4               Middlewares/STemWin/Lib/STemWin_CM7_wc32.a(GUI_Core.o)
WM__CreateFlags     0x4               Middlewares/STemWin/Lib/STemWin_CM7_wc32.a(WM.o)
hdma2d              0x40              build/main.o
GUI_pUC_API         0x4               Middlewares/STemWin/Lib/STemWin_CM7_wc32.a(GUI_Core.o)
GUI__pfDrawAlphaBitmapFunc
                    0x4               Middlewares/STemWin/Lib/STemWin_CM7_wc32.a(GUI__Alpha.o)
GUI_pfUpdateSoftLayer
                    0x4               Middlewares/STemWin/Lib/STemWin_CM7_wc32.a(GUI_Core.o)
WM__aBkColor        0x8               Middlewares/STemWin/Lib/STemWin_CM7_wc32.a(WM.o)
WM__pFirstCriticalHandle
                    0x4               Middlewares/STemWin/Lib/STemWin_CM7_wc32.a(WM.o)
editLog             0x4               build/FramewinDLG.o
WM_MULTIBUF__pAPI   0x4               Middlewares/STemWin/Lib/STemWin_CM7_wc32.a(WM.o)
hsdram1             0x34              build/main.o
LCD__aConvTable     0x4               Middlewares/STemWin/Lib/STemWin_CM7_wc32.a(LCD_Color.o)
WM__ahCapture       0x8               Middlewares/STemWin/Lib/STemWin_CM7_wc32.a(WM.o)
WM__hCreateStatic   0x4               Middlewares/STemWin/Lib/STemWin_CM7_wc32.a(WM.o)
WM__TransWindowCnt  0x4               Middlewares/STemWin/Lib/STemWin_CM7_wc32.a(WM.o)
GUI__apDevice       0x8               Middlewares/STemWin/Lib/STemWin_CM7_wc32.a(GUI_Core.o)
GUI_ALLOC__Context  0xc0              Middlewares/STemWin/Lib/STemWin_CM7_wc32.a(GUI_Alloc.o)
WM__aCHWinModal     0x10              Middlewares/STemWin/Lib/STemWin_CM7_wc32.a(WM_Touch.o)
GUI__pfDrawAlphaMemdevFunc
                    0x4               Middlewares/STemWin/Lib/STemWin_CM7_wc32.a(GUI__Alpha.o)
GUI__BufferSize     0x4               Middlewares/STemWin/Lib/STemWin_CM7_wc32.a(GUI_Core.o)
WM_pfHandlePID      0x4               Middlewares/STemWin/Lib/STemWin_CM7_wc32.a(GUI_Core.o)

Discarded input sections

 .text          0x00000000        0x0 c:/vsarm/armcc/bin/../lib/gcc/arm-none-eabi/7.3.1/thumb/v7e-m/fpv4-sp/hard/crti.o
 .data          0x00000000        0x0 c:/vsarm/armcc/bin/../lib/gcc/arm-none-eabi/7.3.1/thumb/v7e-m/fpv4-sp/hard/crti.o
 .bss           0x00000000        0x0 c:/vsarm/armcc/bin/../lib/gcc/arm-none-eabi/7.3.1/thumb/v7e-m/fpv4-sp/hard/crti.o
 .data          0x00000000        0x4 c:/vsarm/armcc/bin/../lib/gcc/arm-none-eabi/7.3.1/thumb/v7e-m/fpv4-sp/hard/crtbegin.o
 .text          0x00000000       0x74 c:/vsarm/armcc/bin/../lib/gcc/arm-none-eabi/7.3.1/../../../../arm-none-eabi/lib/thumb/v7e-m/fpv4-sp/hard/crt0.o
 .data          0x00000000        0x0 c:/vsarm/armcc/bin/../lib/gcc/arm-none-eabi/7.3.1/../../../../arm-none-eabi/lib/thumb/v7e-m/fpv4-sp/hard/crt0.o
 .bss           0x00000000        0x0 c:/vsarm/armcc/bin/../lib/gcc/arm-none-eabi/7.3.1/../../../../arm-none-eabi/lib/thumb/v7e-m/fpv4-sp/hard/crt0.o
 .ARM.extab     0x00000000        0x0 c:/vsarm/armcc/bin/../lib/gcc/arm-none-eabi/7.3.1/../../../../arm-none-eabi/lib/thumb/v7e-m/fpv4-sp/hard/crt0.o
 .ARM.exidx     0x00000000        0x8 c:/vsarm/armcc/bin/../lib/gcc/arm-none-eabi/7.3.1/../../../../arm-none-eabi/lib/thumb/v7e-m/fpv4-sp/hard/crt0.o
 .ARM.attributes
                0x00000000       0x20 c:/vsarm/armcc/bin/../lib/gcc/arm-none-eabi/7.3.1/../../../../arm-none-eabi/lib/thumb/v7e-m/fpv4-sp/hard/crt0.o
 .text          0x00000000        0x0 build/main.o
 .data          0x00000000        0x0 build/main.o
 .bss           0x00000000        0x0 build/main.o
 .text.Error_Handler
                0x00000000        0x2 build/main.o
 .text          0x00000000        0x0 build/stm32f7xx_it.o
 .data          0x00000000        0x0 build/stm32f7xx_it.o
 .bss           0x00000000        0x0 build/stm32f7xx_it.o
 .text          0x00000000        0x0 build/stm32f7xx_hal_ltdc_ex.o
 .data          0x00000000        0x0 build/stm32f7xx_hal_ltdc_ex.o
 .bss           0x00000000        0x0 build/stm32f7xx_hal_ltdc_ex.o
 .debug_info    0x00000000      0x173 build/stm32f7xx_hal_ltdc_ex.o
 .debug_abbrev  0x00000000       0x8f build/stm32f7xx_hal_ltdc_ex.o
 .debug_aranges
                0x00000000       0x18 build/stm32f7xx_hal_ltdc_ex.o
 .debug_line    0x00000000      0x12c build/stm32f7xx_hal_ltdc_ex.o
 .debug_str     0x00000000      0x29b build/stm32f7xx_hal_ltdc_ex.o
 .comment       0x00000000       0x80 build/stm32f7xx_hal_ltdc_ex.o
 .ARM.attributes
                0x00000000       0x39 build/stm32f7xx_hal_ltdc_ex.o
 .text          0x00000000        0x0 build/stm32f7xx_hal.o
 .data          0x00000000        0x0 build/stm32f7xx_hal.o
 .bss           0x00000000        0x0 build/stm32f7xx_hal.o
 .text.HAL_MspDeInit
                0x00000000        0x2 build/stm32f7xx_hal.o
 .text.HAL_DeInit
                0x00000000       0x2c build/stm32f7xx_hal.o
 .text.HAL_GetTickPrio
                0x00000000        0xc build/stm32f7xx_hal.o
 .text.HAL_SetTickFreq
                0x00000000       0x2c build/stm32f7xx_hal.o
 .text.HAL_GetTickFreq
                0x00000000        0xc build/stm32f7xx_hal.o
 .text.HAL_SuspendTick
                0x00000000       0x10 build/stm32f7xx_hal.o
 .text.HAL_ResumeTick
                0x00000000       0x10 build/stm32f7xx_hal.o
 .text.HAL_GetHalVersion
                0x00000000        0x8 build/stm32f7xx_hal.o
 .text.HAL_GetREVID
                0x00000000        0xc build/stm32f7xx_hal.o
 .text.HAL_GetDEVID
                0x00000000       0x10 build/stm32f7xx_hal.o
 .text.HAL_GetUIDw0
                0x00000000        0xc build/stm32f7xx_hal.o
 .text.HAL_GetUIDw1
                0x00000000        0xc build/stm32f7xx_hal.o
 .text.HAL_GetUIDw2
                0x00000000        0xc build/stm32f7xx_hal.o
 .text.HAL_DBGMCU_EnableDBGSleepMode
                0x00000000       0x10 build/stm32f7xx_hal.o
 .text.HAL_DBGMCU_DisableDBGSleepMode
                0x00000000       0x10 build/stm32f7xx_hal.o
 .text.HAL_DBGMCU_EnableDBGStopMode
                0x00000000       0x10 build/stm32f7xx_hal.o
 .text.HAL_DBGMCU_DisableDBGStopMode
                0x00000000       0x10 build/stm32f7xx_hal.o
 .text.HAL_DBGMCU_EnableDBGStandbyMode
                0x00000000       0x10 build/stm32f7xx_hal.o
 .text.HAL_DBGMCU_DisableDBGStandbyMode
                0x00000000       0x10 build/stm32f7xx_hal.o
 .text.HAL_EnableCompensationCell
                0x00000000       0x10 build/stm32f7xx_hal.o
 .text.HAL_DisableCompensationCell
                0x00000000       0x10 build/stm32f7xx_hal.o
 .text.HAL_EnableFMCMemorySwapping
                0x00000000       0x10 build/stm32f7xx_hal.o
 .text.HAL_DisableFMCMemorySwapping
                0x00000000       0x10 build/stm32f7xx_hal.o
 .text          0x00000000        0x0 build/stm32f7xx_hal_uart.o
 .data          0x00000000        0x0 build/stm32f7xx_hal_uart.o
 .bss           0x00000000        0x0 build/stm32f7xx_hal_uart.o
 .text.UART_EndTxTransfer
                0x00000000       0x10 build/stm32f7xx_hal_uart.o
 .text.UART_EndRxTransfer
                0x00000000       0x1e build/stm32f7xx_hal_uart.o
 .text.UART_TxISR_8BIT
                0x00000000       0x42 build/stm32f7xx_hal_uart.o
 .text.UART_TxISR_16BIT
                0x00000000       0x46 build/stm32f7xx_hal_uart.o
 .text.HAL_UART_MspDeInit
                0x00000000        0x2 build/stm32f7xx_hal_uart.o
 .text.HAL_UART_DeInit
                0x00000000       0x38 build/stm32f7xx_hal_uart.o
 .text.HAL_UART_Transmit_IT
                0x00000000       0x78 build/stm32f7xx_hal_uart.o
 .text.HAL_UART_Receive_IT
                0x00000000       0xd8 build/stm32f7xx_hal_uart.o
 .text.HAL_UART_Transmit_DMA
                0x00000000       0xa8 build/stm32f7xx_hal_uart.o
 .text.HAL_UART_Receive_DMA
                0x00000000       0xb0 build/stm32f7xx_hal_uart.o
 .text.HAL_UART_DMAPause
                0x00000000       0x6a build/stm32f7xx_hal_uart.o
 .text.HAL_UART_DMAResume
                0x00000000       0x5a build/stm32f7xx_hal_uart.o
 .text.HAL_UART_DMAStop
                0x00000000       0x86 build/stm32f7xx_hal_uart.o
 .text.HAL_UART_Abort
                0x00000000       0xa4 build/stm32f7xx_hal_uart.o
 .text.HAL_UART_AbortTransmit
                0x00000000       0x4e build/stm32f7xx_hal_uart.o
 .text.HAL_UART_AbortReceive
                0x00000000       0x68 build/stm32f7xx_hal_uart.o
 .text.HAL_UART_TxCpltCallback
                0x00000000        0x2 build/stm32f7xx_hal_uart.o
 .text.UART_DMATransmitCplt
                0x00000000       0x30 build/stm32f7xx_hal_uart.o
 .text.UART_EndTransmit_IT
                0x00000000       0x1a build/stm32f7xx_hal_uart.o
 .text.HAL_UART_TxHalfCpltCallback
                0x00000000        0x2 build/stm32f7xx_hal_uart.o
 .text.UART_DMATxHalfCplt
                0x00000000        0xa build/stm32f7xx_hal_uart.o
 .text.HAL_UART_RxCpltCallback
                0x00000000        0x2 build/stm32f7xx_hal_uart.o
 .text.UART_RxISR_8BIT
                0x00000000       0x62 build/stm32f7xx_hal_uart.o
 .text.UART_RxISR_16BIT
                0x00000000       0x60 build/stm32f7xx_hal_uart.o
 .text.UART_DMAReceiveCplt
                0x00000000       0x3c build/stm32f7xx_hal_uart.o
 .text.HAL_UART_RxHalfCpltCallback
                0x00000000        0x2 build/stm32f7xx_hal_uart.o
 .text.UART_DMARxHalfCplt
                0x00000000        0xa build/stm32f7xx_hal_uart.o
 .text.HAL_UART_ErrorCallback
                0x00000000        0x2 build/stm32f7xx_hal_uart.o
 .text.UART_DMAError
                0x00000000       0x50 build/stm32f7xx_hal_uart.o
 .text.HAL_UART_IRQHandler
                0x00000000      0x160 build/stm32f7xx_hal_uart.o
 .text.UART_DMAAbortOnError
                0x00000000       0x14 build/stm32f7xx_hal_uart.o
 .text.HAL_UART_AbortCpltCallback
                0x00000000        0x2 build/stm32f7xx_hal_uart.o
 .text.HAL_UART_Abort_IT
                0x00000000       0xdc build/stm32f7xx_hal_uart.o
 .text.UART_DMARxAbortCallback
                0x00000000       0x3c build/stm32f7xx_hal_uart.o
 .text.UART_DMATxAbortCallback
                0x00000000       0x32 build/stm32f7xx_hal_uart.o
 .text.HAL_UART_AbortTransmitCpltCallback
                0x00000000        0x2 build/stm32f7xx_hal_uart.o
 .text.HAL_UART_AbortTransmit_IT
                0x00000000       0x64 build/stm32f7xx_hal_uart.o
 .text.UART_DMATxOnlyAbortCallback
                0x00000000       0x14 build/stm32f7xx_hal_uart.o
 .text.HAL_UART_AbortReceiveCpltCallback
                0x00000000        0x2 build/stm32f7xx_hal_uart.o
 .text.HAL_UART_AbortReceive_IT
                0x00000000       0x80 build/stm32f7xx_hal_uart.o
 .text.UART_DMARxOnlyAbortCallback
                0x00000000       0x24 build/stm32f7xx_hal_uart.o
 .text.HAL_UART_ReceiverTimeout_Config
                0x00000000        0xe build/stm32f7xx_hal_uart.o
 .text.HAL_UART_EnableReceiverTimeout
                0x00000000       0x38 build/stm32f7xx_hal_uart.o
 .text.HAL_UART_DisableReceiverTimeout
                0x00000000       0x38 build/stm32f7xx_hal_uart.o
 .text.HAL_MultiProcessor_EnterMuteMode
                0x00000000        0xc build/stm32f7xx_hal_uart.o
 .text.HAL_HalfDuplex_EnableTransmitter
                0x00000000       0x38 build/stm32f7xx_hal_uart.o
 .text.HAL_HalfDuplex_EnableReceiver
                0x00000000       0x38 build/stm32f7xx_hal_uart.o
 .text.HAL_LIN_SendBreak
                0x00000000       0x2e build/stm32f7xx_hal_uart.o
 .text.HAL_UART_GetState
                0x00000000        0x8 build/stm32f7xx_hal_uart.o
 .text.HAL_UART_GetError
                0x00000000        0x4 build/stm32f7xx_hal_uart.o
 .text.HAL_UART_Transmit
                0x00000000       0xdc build/stm32f7xx_hal_uart.o
 .text.HAL_UART_Receive
                0x00000000      0x122 build/stm32f7xx_hal_uart.o
 .text.HAL_HalfDuplex_Init
                0x00000000       0x6e build/stm32f7xx_hal_uart.o
 .text.HAL_LIN_Init
                0x00000000       0x92 build/stm32f7xx_hal_uart.o
 .text.HAL_MultiProcessor_Init
                0x00000000       0x8a build/stm32f7xx_hal_uart.o
 .text.HAL_MultiProcessor_EnableMuteMode
                0x00000000       0x2c build/stm32f7xx_hal_uart.o
 .text.HAL_MultiProcessor_DisableMuteMode
                0x00000000       0x2c build/stm32f7xx_hal_uart.o
 .text          0x00000000        0x0 build/stm32f7xx_hal_rcc_ex.o
 .data          0x00000000        0x0 build/stm32f7xx_hal_rcc_ex.o
 .bss           0x00000000        0x0 build/stm32f7xx_hal_rcc_ex.o
 .text.HAL_RCCEx_GetPeriphCLKConfig
                0x00000000      0x164 build/stm32f7xx_hal_rcc_ex.o
 .text.HAL_RCCEx_GetPeriphCLKFreq
                0x00000000      0x1b0 build/stm32f7xx_hal_rcc_ex.o
 .text.HAL_RCCEx_EnablePLLI2S
                0x00000000       0x78 build/stm32f7xx_hal_rcc_ex.o
 .text.HAL_RCCEx_DisablePLLI2S
                0x00000000       0x34 build/stm32f7xx_hal_rcc_ex.o
 .text.HAL_RCCEx_EnablePLLSAI
                0x00000000       0x78 build/stm32f7xx_hal_rcc_ex.o
 .text.HAL_RCCEx_DisablePLLSAI
                0x00000000       0x34 build/stm32f7xx_hal_rcc_ex.o
 .text          0x00000000        0x0 build/stm32f7xx_hal_dsi.o
 .data          0x00000000        0x0 build/stm32f7xx_hal_dsi.o
 .bss           0x00000000        0x0 build/stm32f7xx_hal_dsi.o
 .debug_info    0x00000000      0x173 build/stm32f7xx_hal_dsi.o
 .debug_abbrev  0x00000000       0x8f build/stm32f7xx_hal_dsi.o
 .debug_aranges
                0x00000000       0x18 build/stm32f7xx_hal_dsi.o
 .debug_line    0x00000000      0x12c build/stm32f7xx_hal_dsi.o
 .debug_str     0x00000000      0x297 build/stm32f7xx_hal_dsi.o
 .comment       0x00000000       0x80 build/stm32f7xx_hal_dsi.o
 .ARM.attributes
                0x00000000       0x39 build/stm32f7xx_hal_dsi.o
 .text          0x00000000        0x0 build/stm32f7xx_hal_crc.o
 .data          0x00000000        0x0 build/stm32f7xx_hal_crc.o
 .bss           0x00000000        0x0 build/stm32f7xx_hal_crc.o
 .text.CRC_Handle_8
                0x00000000       0x7e build/stm32f7xx_hal_crc.o
 .text.CRC_Handle_16
                0x00000000       0x4e build/stm32f7xx_hal_crc.o
 .text.HAL_CRC_MspDeInit
                0x00000000        0x2 build/stm32f7xx_hal_crc.o
 .text.HAL_CRC_DeInit
                0x00000000       0x38 build/stm32f7xx_hal_crc.o
 .text.HAL_CRC_Accumulate
                0x00000000       0x42 build/stm32f7xx_hal_crc.o
 .text.HAL_CRC_Calculate
                0x00000000       0x50 build/stm32f7xx_hal_crc.o
 .text.HAL_CRC_GetState
                0x00000000        0x4 build/stm32f7xx_hal_crc.o
 .text          0x00000000        0x0 build/stm32f7xx_hal_ltdc.o
 .data          0x00000000        0x0 build/stm32f7xx_hal_ltdc.o
 .bss           0x00000000        0x0 build/stm32f7xx_hal_ltdc.o
 .text.HAL_LTDC_MspInit
                0x00000000        0x2 build/stm32f7xx_hal_ltdc.o
 .text.HAL_LTDC_MspDeInit
                0x00000000        0x2 build/stm32f7xx_hal_ltdc.o
 .text.HAL_LTDC_LineEventCallback
                0x00000000        0x2 build/stm32f7xx_hal_ltdc.o
 .text.HAL_LTDC_DisableCLUT
                0x00000000       0x3c build/stm32f7xx_hal_ltdc.o
 .text.HAL_LTDC_DisableDither
                0x00000000       0x34 build/stm32f7xx_hal_ltdc.o
 .text.HAL_LTDC_SetWindowSize
                0x00000000       0x52 build/stm32f7xx_hal_ltdc.o
 .text.HAL_LTDC_SetPixelFormat
                0x00000000       0x42 build/stm32f7xx_hal_ltdc.o
 .text.HAL_LTDC_SetPitch
                0x00000000       0xa4 build/stm32f7xx_hal_ltdc.o
 .text.HAL_LTDC_Reload
                0x00000000       0x3a build/stm32f7xx_hal_ltdc.o
 .text.HAL_LTDC_ConfigLayer_NoReload
                0x00000000       0x56 build/stm32f7xx_hal_ltdc.o
 .text.HAL_LTDC_SetWindowSize_NoReload
                0x00000000       0x4e build/stm32f7xx_hal_ltdc.o
 .text.HAL_LTDC_SetWindowPosition_NoReload
                0x00000000       0x4e build/stm32f7xx_hal_ltdc.o
 .text.HAL_LTDC_SetPixelFormat_NoReload
                0x00000000       0x3e build/stm32f7xx_hal_ltdc.o
 .text.HAL_LTDC_SetAlpha_NoReload
                0x00000000       0x3e build/stm32f7xx_hal_ltdc.o
 .text.HAL_LTDC_SetAddress_NoReload
                0x00000000       0x3e build/stm32f7xx_hal_ltdc.o
 .text.HAL_LTDC_SetPitch_NoReload
                0x00000000       0x8c build/stm32f7xx_hal_ltdc.o
 .text.HAL_LTDC_ConfigColorKeying_NoReload
                0x00000000       0x44 build/stm32f7xx_hal_ltdc.o
 .text.HAL_LTDC_EnableColorKeying_NoReload
                0x00000000       0x38 build/stm32f7xx_hal_ltdc.o
 .text.HAL_LTDC_DisableColorKeying_NoReload
                0x00000000       0x38 build/stm32f7xx_hal_ltdc.o
 .text.HAL_LTDC_EnableCLUT_NoReload
                0x00000000       0x38 build/stm32f7xx_hal_ltdc.o
 .text.HAL_LTDC_DisableCLUT_NoReload
                0x00000000       0x38 build/stm32f7xx_hal_ltdc.o
 .text.HAL_LTDC_GetState
                0x00000000        0x6 build/stm32f7xx_hal_ltdc.o
 .text.HAL_LTDC_GetError
                0x00000000        0x6 build/stm32f7xx_hal_ltdc.o
 .text          0x00000000        0x0 build/stm32f7xx_hal_pwr_ex.o
 .data          0x00000000        0x0 build/stm32f7xx_hal_pwr_ex.o
 .bss           0x00000000        0x0 build/stm32f7xx_hal_pwr_ex.o
 .text.HAL_PWREx_EnableBkUpReg
                0x00000000       0x3c build/stm32f7xx_hal_pwr_ex.o
 .text.HAL_PWREx_DisableBkUpReg
                0x00000000       0x3c build/stm32f7xx_hal_pwr_ex.o
 .text.HAL_PWREx_EnableFlashPowerDown
                0x00000000       0x10 build/stm32f7xx_hal_pwr_ex.o
 .text.HAL_PWREx_DisableFlashPowerDown
                0x00000000       0x10 build/stm32f7xx_hal_pwr_ex.o
 .text.HAL_PWREx_EnableMainRegulatorLowVoltage
                0x00000000       0x10 build/stm32f7xx_hal_pwr_ex.o
 .text.HAL_PWREx_DisableMainRegulatorLowVoltage
                0x00000000       0x10 build/stm32f7xx_hal_pwr_ex.o
 .text.HAL_PWREx_EnableLowRegulatorLowVoltage
                0x00000000       0x10 build/stm32f7xx_hal_pwr_ex.o
 .text.HAL_PWREx_DisableLowRegulatorLowVoltage
                0x00000000       0x10 build/stm32f7xx_hal_pwr_ex.o
 .text.HAL_PWREx_DisableOverDrive
                0x00000000       0x7c build/stm32f7xx_hal_pwr_ex.o
 .text.HAL_PWREx_EnterUnderDriveSTOPMode
                0x00000000       0x94 build/stm32f7xx_hal_pwr_ex.o
 .text.HAL_PWREx_GetVoltageRange
                0x00000000       0x10 build/stm32f7xx_hal_pwr_ex.o
 .text.HAL_PWREx_ControlVoltageScaling
                0x00000000       0xbc build/stm32f7xx_hal_pwr_ex.o
 .text          0x00000000        0x0 build/stm32f7xx_hal_sdram.o
 .data          0x00000000        0x0 build/stm32f7xx_hal_sdram.o
 .bss           0x00000000        0x0 build/stm32f7xx_hal_sdram.o
 .text.HAL_SDRAM_DMA_XferCpltCallback
                0x00000000        0x2 build/stm32f7xx_hal_sdram.o
 .text.HAL_SDRAM_DMA_XferErrorCallback
                0x00000000        0x2 build/stm32f7xx_hal_sdram.o
 .text.HAL_SDRAM_MspDeInit
                0x00000000        0x2 build/stm32f7xx_hal_sdram.o
 .text.HAL_SDRAM_DeInit
                0x00000000       0x1c build/stm32f7xx_hal_sdram.o
 .text.HAL_SDRAM_RefreshErrorCallback
                0x00000000        0x2 build/stm32f7xx_hal_sdram.o
 .text.HAL_SDRAM_IRQHandler
                0x00000000       0x20 build/stm32f7xx_hal_sdram.o
 .text.HAL_SDRAM_Read_8b
                0x00000000       0x4a build/stm32f7xx_hal_sdram.o
 .text.HAL_SDRAM_Write_8b
                0x00000000       0x46 build/stm32f7xx_hal_sdram.o
 .text.HAL_SDRAM_Read_16b
                0x00000000       0x4a build/stm32f7xx_hal_sdram.o
 .text.HAL_SDRAM_Write_16b
                0x00000000       0x46 build/stm32f7xx_hal_sdram.o
 .text.HAL_SDRAM_Read_32b
                0x00000000       0x4a build/stm32f7xx_hal_sdram.o
 .text.HAL_SDRAM_Write_32b
                0x00000000       0x46 build/stm32f7xx_hal_sdram.o
 .text.HAL_SDRAM_Read_DMA
                0x00000000       0x50 build/stm32f7xx_hal_sdram.o
 .text.HAL_SDRAM_Write_DMA
                0x00000000       0x58 build/stm32f7xx_hal_sdram.o
 .text.HAL_SDRAM_WriteProtection_Enable
                0x00000000       0x2a build/stm32f7xx_hal_sdram.o
 .text.HAL_SDRAM_WriteProtection_Disable
                0x00000000       0x2a build/stm32f7xx_hal_sdram.o
 .text.HAL_SDRAM_SetAutoRefreshNumber
                0x00000000       0x28 build/stm32f7xx_hal_sdram.o
 .text.HAL_SDRAM_GetModeStatus
                0x00000000        0xc build/stm32f7xx_hal_sdram.o
 .text.HAL_SDRAM_GetState
                0x00000000        0x6 build/stm32f7xx_hal_sdram.o
 .text          0x00000000        0x0 build/stm32f7xx_hal_flash.o
 .data          0x00000000        0x0 build/stm32f7xx_hal_flash.o
 .bss           0x00000000        0x0 build/stm32f7xx_hal_flash.o
 .text.FLASH_Program_DoubleWord
                0x00000000       0x30 build/stm32f7xx_hal_flash.o
 .text.FLASH_Program_Word
                0x00000000       0x28 build/stm32f7xx_hal_flash.o
 .text.FLASH_Program_HalfWord
                0x00000000       0x28 build/stm32f7xx_hal_flash.o
 .text.FLASH_Program_Byte
                0x00000000       0x24 build/stm32f7xx_hal_flash.o
 .text.FLASH_SetErrorCode
                0x00000000       0x74 build/stm32f7xx_hal_flash.o
 .text.HAL_FLASH_Program_IT
                0x00000000       0x74 build/stm32f7xx_hal_flash.o
 .text.HAL_FLASH_EndOfOperationCallback
                0x00000000        0x2 build/stm32f7xx_hal_flash.o
 .text.HAL_FLASH_OperationErrorCallback
                0x00000000        0x2 build/stm32f7xx_hal_flash.o
 .text.HAL_FLASH_IRQHandler
                0x00000000      0x108 build/stm32f7xx_hal_flash.o
 .text.HAL_FLASH_Unlock
                0x00000000       0x30 build/stm32f7xx_hal_flash.o
 .text.HAL_FLASH_Lock
                0x00000000       0x14 build/stm32f7xx_hal_flash.o
 .text.HAL_FLASH_OB_Unlock
                0x00000000       0x28 build/stm32f7xx_hal_flash.o
 .text.HAL_FLASH_OB_Lock
                0x00000000       0x14 build/stm32f7xx_hal_flash.o
 .text.HAL_FLASH_GetError
                0x00000000        0xc build/stm32f7xx_hal_flash.o
 .text.FLASH_WaitForLastOperation
                0x00000000       0x68 build/stm32f7xx_hal_flash.o
 .text.HAL_FLASH_Program
                0x00000000       0x84 build/stm32f7xx_hal_flash.o
 .text.HAL_FLASH_OB_Launch
                0x00000000       0x1c build/stm32f7xx_hal_flash.o
 .debug_info    0x00000000      0x819 build/stm32f7xx_hal_flash.o
 .debug_abbrev  0x00000000      0x2b6 build/stm32f7xx_hal_flash.o
 .debug_loc     0x00000000      0x43b build/stm32f7xx_hal_flash.o
 .debug_aranges
                0x00000000       0xa0 build/stm32f7xx_hal_flash.o
 .debug_ranges  0x00000000       0x90 build/stm32f7xx_hal_flash.o
 .debug_line    0x00000000      0x41f build/stm32f7xx_hal_flash.o
 .debug_str     0x00000000      0x5ee build/stm32f7xx_hal_flash.o
 .comment       0x00000000       0x80 build/stm32f7xx_hal_flash.o
 .debug_frame   0x00000000      0x188 build/stm32f7xx_hal_flash.o
 .ARM.attributes
                0x00000000       0x39 build/stm32f7xx_hal_flash.o
 COMMON         0x00000000       0x1c build/stm32f7xx_hal_flash.o
 .text          0x00000000        0x0 build/stm32f7xx_hal_rcc.o
 .data          0x00000000        0x0 build/stm32f7xx_hal_rcc.o
 .bss           0x00000000        0x0 build/stm32f7xx_hal_rcc.o
 .text.HAL_RCC_DeInit
                0x00000000      0x15c build/stm32f7xx_hal_rcc.o
 .text.HAL_RCC_MCOConfig
                0x00000000       0x98 build/stm32f7xx_hal_rcc.o
 .text.HAL_RCC_EnableCSS
                0x00000000       0x10 build/stm32f7xx_hal_rcc.o
 .text.HAL_RCC_DisableCSS
                0x00000000       0x10 build/stm32f7xx_hal_rcc.o
 .text.HAL_RCC_GetOscConfig
                0x00000000       0xcc build/stm32f7xx_hal_rcc.o
 .text.HAL_RCC_GetClockConfig
                0x00000000       0x3c build/stm32f7xx_hal_rcc.o
 .text.HAL_RCC_CSSCallback
                0x00000000        0x2 build/stm32f7xx_hal_rcc.o
 .text.HAL_RCC_NMI_IRQHandler
                0x00000000       0x24 build/stm32f7xx_hal_rcc.o
 .text          0x00000000        0x0 build/stm32f7xx_hal_dma_ex.o
 .data          0x00000000        0x0 build/stm32f7xx_hal_dma_ex.o
 .bss           0x00000000        0x0 build/stm32f7xx_hal_dma_ex.o
 .text.DMA_MultiBufferSetConfig
                0x00000000       0x24 build/stm32f7xx_hal_dma_ex.o
 .text.HAL_DMAEx_MultiBufferStart
                0x00000000       0x5e build/stm32f7xx_hal_dma_ex.o
 .text.HAL_DMAEx_MultiBufferStart_IT
                0x00000000      0xee8 build/stm32f7xx_hal_dma_ex.o
 .text.HAL_DMAEx_ChangeMemory
                0x00000000       0x10 build/stm32f7xx_hal_dma_ex.o
 .debug_info    0x00000000      0x673 build/stm32f7xx_hal_dma_ex.o
 .debug_abbrev  0x00000000      0x1e4 build/stm32f7xx_hal_dma_ex.o
 .debug_loc     0x00000000      0x485 build/stm32f7xx_hal_dma_ex.o
 .debug_aranges
                0x00000000       0x38 build/stm32f7xx_hal_dma_ex.o
 .debug_ranges  0x00000000       0x28 build/stm32f7xx_hal_dma_ex.o
 .debug_line    0x00000000      0x84e build/stm32f7xx_hal_dma_ex.o
 .debug_str     0x00000000      0x61c build/stm32f7xx_hal_dma_ex.o
 .comment       0x00000000       0x80 build/stm32f7xx_hal_dma_ex.o
 .debug_frame   0x00000000       0x80 build/stm32f7xx_hal_dma_ex.o
 .ARM.attributes
                0x00000000       0x39 build/stm32f7xx_hal_dma_ex.o
 .text          0x00000000        0x0 build/stm32f7xx_hal_i2c.o
 .data          0x00000000        0x0 build/stm32f7xx_hal_i2c.o
 .bss           0x00000000        0x0 build/stm32f7xx_hal_i2c.o
 .text.I2C_Flush_TXDR
                0x00000000       0x22 build/stm32f7xx_hal_i2c.o
 .text.I2C_TransferConfig
                0x00000000       0x36 build/stm32f7xx_hal_i2c.o
 .text.I2C_Enable_IRQ
                0x00000000       0x80 build/stm32f7xx_hal_i2c.o
 .text.I2C_Disable_IRQ
                0x00000000       0xb8 build/stm32f7xx_hal_i2c.o
 .text.I2C_ConvertOtherXferOptions
                0x00000000       0x1e build/stm32f7xx_hal_i2c.o
 .text.I2C_IsAcknowledgeFailed
                0x00000000       0x90 build/stm32f7xx_hal_i2c.o
 .text.I2C_WaitOnTXISFlagUntilTimeout
                0x00000000       0x56 build/stm32f7xx_hal_i2c.o
 .text.I2C_WaitOnFlagUntilTimeout
                0x00000000       0x52 build/stm32f7xx_hal_i2c.o
 .text.I2C_RequestMemoryWrite
                0x00000000       0x70 build/stm32f7xx_hal_i2c.o
 .text.I2C_RequestMemoryRead
                0x00000000       0x70 build/stm32f7xx_hal_i2c.o
 .text.I2C_WaitOnSTOPFlagUntilTimeout
                0x00000000       0x50 build/stm32f7xx_hal_i2c.o
 .text.I2C_WaitOnRXNEFlagUntilTimeout
                0x00000000       0x98 build/stm32f7xx_hal_i2c.o
 .text.HAL_I2C_MspDeInit
                0x00000000        0x2 build/stm32f7xx_hal_i2c.o
 .text.HAL_I2C_DeInit
                0x00000000       0x32 build/stm32f7xx_hal_i2c.o
 .text.HAL_I2C_Master_Transmit
                0x00000000      0x17c build/stm32f7xx_hal_i2c.o
 .text.HAL_I2C_Master_Receive
                0x00000000      0x17c build/stm32f7xx_hal_i2c.o
 .text.HAL_I2C_Slave_Transmit
                0x00000000      0x194 build/stm32f7xx_hal_i2c.o
 .text.HAL_I2C_Slave_Receive
                0x00000000      0x176 build/stm32f7xx_hal_i2c.o
 .text.HAL_I2C_Master_Transmit_IT
                0x00000000       0x98 build/stm32f7xx_hal_i2c.o
 .text.HAL_I2C_Master_Receive_IT
                0x00000000       0x98 build/stm32f7xx_hal_i2c.o
 .text.HAL_I2C_Slave_Transmit_IT
                0x00000000       0x64 build/stm32f7xx_hal_i2c.o
 .text.HAL_I2C_Slave_Receive_IT
                0x00000000       0x64 build/stm32f7xx_hal_i2c.o
 .text.HAL_I2C_Master_Transmit_DMA
                0x00000000      0x150 build/stm32f7xx_hal_i2c.o
 .text.HAL_I2C_Master_Receive_DMA
                0x00000000      0x150 build/stm32f7xx_hal_i2c.o
 .text.HAL_I2C_Slave_Transmit_DMA
                0x00000000       0xf4 build/stm32f7xx_hal_i2c.o
 .text.HAL_I2C_Slave_Receive_DMA
                0x00000000       0xf8 build/stm32f7xx_hal_i2c.o
 .text.HAL_I2C_Mem_Write
                0x00000000      0x1ae build/stm32f7xx_hal_i2c.o
 .text.HAL_I2C_Mem_Read
                0x00000000      0x1b8 build/stm32f7xx_hal_i2c.o
 .text.HAL_I2C_Mem_Write_IT
                0x00000000       0xe8 build/stm32f7xx_hal_i2c.o
 .text.HAL_I2C_Mem_Read_IT
                0x00000000       0xec build/stm32f7xx_hal_i2c.o
 .text.HAL_I2C_Mem_Write_DMA
                0x00000000      0x16c build/stm32f7xx_hal_i2c.o
 .text.HAL_I2C_Mem_Read_DMA
                0x00000000      0x174 build/stm32f7xx_hal_i2c.o
 .text.HAL_I2C_IsDeviceReady
                0x00000000      0x170 build/stm32f7xx_hal_i2c.o
 .text.HAL_I2C_Master_Seq_Transmit_IT
                0x00000000       0xb4 build/stm32f7xx_hal_i2c.o
 .text.HAL_I2C_Master_Seq_Transmit_DMA
                0x00000000      0x16c build/stm32f7xx_hal_i2c.o
 .text.HAL_I2C_Master_Seq_Receive_IT
                0x00000000       0xb4 build/stm32f7xx_hal_i2c.o
 .text.HAL_I2C_Master_Seq_Receive_DMA
                0x00000000      0x16c build/stm32f7xx_hal_i2c.o
 .text.HAL_I2C_Slave_Seq_Transmit_IT
                0x00000000       0xdc build/stm32f7xx_hal_i2c.o
 .text.HAL_I2C_Slave_Seq_Transmit_DMA
                0x00000000      0x1a0 build/stm32f7xx_hal_i2c.o
 .text.HAL_I2C_Slave_Seq_Receive_IT
                0x00000000       0xdc build/stm32f7xx_hal_i2c.o
 .text.HAL_I2C_Slave_Seq_Receive_DMA
                0x00000000      0x1a0 build/stm32f7xx_hal_i2c.o
 .text.HAL_I2C_EnableListen_IT
                0x00000000       0x28 build/stm32f7xx_hal_i2c.o
 .text.HAL_I2C_DisableListen_IT
                0x00000000       0x38 build/stm32f7xx_hal_i2c.o
 .text.HAL_I2C_Master_Abort_IT
                0x00000000       0x68 build/stm32f7xx_hal_i2c.o
 .text.HAL_I2C_EV_IRQHandler
                0x00000000       0x10 build/stm32f7xx_hal_i2c.o
 .text.HAL_I2C_MasterTxCpltCallback
                0x00000000        0x2 build/stm32f7xx_hal_i2c.o
 .text.HAL_I2C_MasterRxCpltCallback
                0x00000000        0x2 build/stm32f7xx_hal_i2c.o
 .text.I2C_ITMasterSeqCplt
                0x00000000       0x54 build/stm32f7xx_hal_i2c.o
 .text.HAL_I2C_SlaveTxCpltCallback
                0x00000000        0x2 build/stm32f7xx_hal_i2c.o
 .text.HAL_I2C_SlaveRxCpltCallback
                0x00000000        0x2 build/stm32f7xx_hal_i2c.o
 .text.I2C_ITSlaveSeqCplt
                0x00000000       0x5c build/stm32f7xx_hal_i2c.o
 .text.I2C_DMASlaveTransmitCplt
                0x00000000       0x22 build/stm32f7xx_hal_i2c.o
 .text.I2C_DMASlaveReceiveCplt
                0x00000000       0x24 build/stm32f7xx_hal_i2c.o
 .text.HAL_I2C_AddrCallback
                0x00000000        0x2 build/stm32f7xx_hal_i2c.o
 .text.I2C_ITAddrCplt
                0x00000000       0x9c build/stm32f7xx_hal_i2c.o
 .text.HAL_I2C_ListenCpltCallback
                0x00000000        0x2 build/stm32f7xx_hal_i2c.o
 .text.I2C_ITListenCplt
                0x00000000       0x64 build/stm32f7xx_hal_i2c.o
 .text.HAL_I2C_MemTxCpltCallback
                0x00000000        0x2 build/stm32f7xx_hal_i2c.o
 .text.HAL_I2C_MemRxCpltCallback
                0x00000000        0x2 build/stm32f7xx_hal_i2c.o
 .text.HAL_I2C_ErrorCallback
                0x00000000        0x2 build/stm32f7xx_hal_i2c.o
 .text.HAL_I2C_AbortCpltCallback
                0x00000000        0x2 build/stm32f7xx_hal_i2c.o
 .text.I2C_ITError
                0x00000000       0xf4 build/stm32f7xx_hal_i2c.o
 .text.I2C_ITSlaveCplt
                0x00000000      0x120 build/stm32f7xx_hal_i2c.o
 .text.I2C_Slave_ISR_IT
                0x00000000      0x158 build/stm32f7xx_hal_i2c.o
 .text.I2C_ITMasterCplt
                0x00000000       0xe2 build/stm32f7xx_hal_i2c.o
 .text.I2C_Master_ISR_IT
                0x00000000      0x17c build/stm32f7xx_hal_i2c.o
 .text.I2C_Slave_ISR_DMA
                0x00000000      0x10a build/stm32f7xx_hal_i2c.o
 .text.I2C_Master_ISR_DMA
                0x00000000      0x140 build/stm32f7xx_hal_i2c.o
 .text.I2C_DMAError
                0x00000000       0x44 build/stm32f7xx_hal_i2c.o
 .text.I2C_DMAMasterTransmitCplt
                0x00000000       0x5a build/stm32f7xx_hal_i2c.o
 .text.I2C_DMAMasterReceiveCplt
                0x00000000       0x5a build/stm32f7xx_hal_i2c.o
 .text.HAL_I2C_ER_IRQHandler
                0x00000000       0x6a build/stm32f7xx_hal_i2c.o
 .text.I2C_DMAAbort
                0x00000000       0x2a build/stm32f7xx_hal_i2c.o
 .text.HAL_I2C_GetState
                0x00000000        0x6 build/stm32f7xx_hal_i2c.o
 .text.HAL_I2C_GetMode
                0x00000000        0x6 build/stm32f7xx_hal_i2c.o
 .text.HAL_I2C_GetError
                0x00000000        0x4 build/stm32f7xx_hal_i2c.o
 .text          0x00000000        0x0 build/stm32f7xx_hal_pwr.o
 .data          0x00000000        0x0 build/stm32f7xx_hal_pwr.o
 .bss           0x00000000        0x0 build/stm32f7xx_hal_pwr.o
 .text.HAL_PWR_DeInit
                0x00000000       0x18 build/stm32f7xx_hal_pwr.o
 .text.HAL_PWR_DisableBkUpAccess
                0x00000000       0x10 build/stm32f7xx_hal_pwr.o
 .text.HAL_PWR_ConfigPVD
                0x00000000       0x84 build/stm32f7xx_hal_pwr.o
 .text.HAL_PWR_EnablePVD
                0x00000000       0x10 build/stm32f7xx_hal_pwr.o
 .text.HAL_PWR_DisablePVD
                0x00000000       0x10 build/stm32f7xx_hal_pwr.o
 .text.HAL_PWR_EnableWakeUpPin
                0x00000000       0x24 build/stm32f7xx_hal_pwr.o
 .text.HAL_PWR_DisableWakeUpPin
                0x00000000       0x10 build/stm32f7xx_hal_pwr.o
 .text.HAL_PWR_EnterSLEEPMode
                0x00000000       0x28 build/stm32f7xx_hal_pwr.o
 .text.HAL_PWR_EnterSTOPMode
                0x00000000       0x40 build/stm32f7xx_hal_pwr.o
 .text.HAL_PWR_EnterSTANDBYMode
                0x00000000       0x20 build/stm32f7xx_hal_pwr.o
 .text.HAL_PWR_PVDCallback
                0x00000000        0x2 build/stm32f7xx_hal_pwr.o
 .text.HAL_PWR_PVD_IRQHandler
                0x00000000       0x20 build/stm32f7xx_hal_pwr.o
 .text.HAL_PWR_EnableSleepOnExit
                0x00000000       0x10 build/stm32f7xx_hal_pwr.o
 .text.HAL_PWR_DisableSleepOnExit
                0x00000000       0x10 build/stm32f7xx_hal_pwr.o
 .text.HAL_PWR_EnableSEVOnPend
                0x00000000       0x10 build/stm32f7xx_hal_pwr.o
 .text.HAL_PWR_DisableSEVOnPend
                0x00000000       0x10 build/stm32f7xx_hal_pwr.o
 .text          0x00000000        0x0 build/stm32f7xx_hal_dma.o
 .data          0x00000000        0x0 build/stm32f7xx_hal_dma.o
 .bss           0x00000000        0x0 build/stm32f7xx_hal_dma.o
 .text.DMA_SetConfig
                0x00000000       0x2c build/stm32f7xx_hal_dma.o
 .text.HAL_DMA_Start
                0x00000000       0x48 build/stm32f7xx_hal_dma.o
 .text.HAL_DMA_Start_IT
                0x00000000       0x74 build/stm32f7xx_hal_dma.o
 .text.HAL_DMA_Abort
                0x00000000       0x94 build/stm32f7xx_hal_dma.o
 .text.HAL_DMA_Abort_IT
                0x00000000       0x26 build/stm32f7xx_hal_dma.o
 .text.HAL_DMA_PollForTransfer
                0x00000000      0x11c build/stm32f7xx_hal_dma.o
 .text.HAL_DMA_IRQHandler
                0x00000000      0x1dc build/stm32f7xx_hal_dma.o
 .text.HAL_DMA_RegisterCallback
                0x00000000       0x5e build/stm32f7xx_hal_dma.o
 .text.HAL_DMA_UnRegisterCallback
                0x00000000       0x70 build/stm32f7xx_hal_dma.o
 .text.HAL_DMA_GetState
                0x00000000        0x6 build/stm32f7xx_hal_dma.o
 .text.HAL_DMA_GetError
                0x00000000        0x4 build/stm32f7xx_hal_dma.o
 .text          0x00000000        0x0 build/stm32f7xx_hal_uart_ex.o
 .data          0x00000000        0x0 build/stm32f7xx_hal_uart_ex.o
 .bss           0x00000000        0x0 build/stm32f7xx_hal_uart_ex.o
 .text.HAL_RS485Ex_Init
                0x00000000       0x84 build/stm32f7xx_hal_uart_ex.o
 .text.HAL_MultiProcessorEx_AddressLength_Set
                0x00000000       0x32 build/stm32f7xx_hal_uart_ex.o
 .debug_info    0x00000000      0x8cb build/stm32f7xx_hal_uart_ex.o
 .debug_abbrev  0x00000000      0x1b3 build/stm32f7xx_hal_uart_ex.o
 .debug_loc     0x00000000      0x202 build/stm32f7xx_hal_uart_ex.o
 .debug_aranges
                0x00000000       0x28 build/stm32f7xx_hal_uart_ex.o
 .debug_ranges  0x00000000       0x18 build/stm32f7xx_hal_uart_ex.o
 .debug_line    0x00000000      0x211 build/stm32f7xx_hal_uart_ex.o
 .debug_str     0x00000000      0x7d1 build/stm32f7xx_hal_uart_ex.o
 .comment       0x00000000       0x80 build/stm32f7xx_hal_uart_ex.o
 .debug_frame   0x00000000       0x64 build/stm32f7xx_hal_uart_ex.o
 .ARM.attributes
                0x00000000       0x39 build/stm32f7xx_hal_uart_ex.o
 .text          0x00000000        0x0 build/stm32f7xx_hal_tim_ex.o
 .data          0x00000000        0x0 build/stm32f7xx_hal_tim_ex.o
 .bss           0x00000000        0x0 build/stm32f7xx_hal_tim_ex.o
 .debug_info    0x00000000      0x173 build/stm32f7xx_hal_tim_ex.o
 .debug_abbrev  0x00000000       0x8f build/stm32f7xx_hal_tim_ex.o
 .debug_aranges
                0x00000000       0x18 build/stm32f7xx_hal_tim_ex.o
 .debug_line    0x00000000      0x12c build/stm32f7xx_hal_tim_ex.o
 .debug_str     0x00000000      0x29a build/stm32f7xx_hal_tim_ex.o
 .comment       0x00000000       0x80 build/stm32f7xx_hal_tim_ex.o
 .ARM.attributes
                0x00000000       0x39 build/stm32f7xx_hal_tim_ex.o
 .text          0x00000000        0x0 build/stm32f7xx_hal_cortex.o
 .data          0x00000000        0x0 build/stm32f7xx_hal_cortex.o
 .bss           0x00000000        0x0 build/stm32f7xx_hal_cortex.o
 .text.HAL_NVIC_DisableIRQ
                0x00000000       0x24 build/stm32f7xx_hal_cortex.o
 .text.HAL_NVIC_SystemReset
                0x00000000       0x24 build/stm32f7xx_hal_cortex.o
 .text.HAL_MPU_Disable
                0x00000000       0x20 build/stm32f7xx_hal_cortex.o
 .text.HAL_MPU_Enable
                0x00000000       0x24 build/stm32f7xx_hal_cortex.o
 .text.HAL_MPU_ConfigRegion
                0x00000000       0x54 build/stm32f7xx_hal_cortex.o
 .text.HAL_NVIC_GetPriorityGrouping
                0x00000000       0x10 build/stm32f7xx_hal_cortex.o
 .text.HAL_NVIC_GetPriority
                0x00000000       0x5c build/stm32f7xx_hal_cortex.o
 .text.HAL_NVIC_SetPendingIRQ
                0x00000000       0x1c build/stm32f7xx_hal_cortex.o
 .text.HAL_NVIC_GetPendingIRQ
                0x00000000       0x24 build/stm32f7xx_hal_cortex.o
 .text.HAL_NVIC_ClearPendingIRQ
                0x00000000       0x1c build/stm32f7xx_hal_cortex.o
 .text.HAL_NVIC_GetActive
                0x00000000       0x24 build/stm32f7xx_hal_cortex.o
 .text.HAL_SYSTICK_CLKSourceConfig
                0x00000000       0x20 build/stm32f7xx_hal_cortex.o
 .text.HAL_SYSTICK_Callback
                0x00000000        0x2 build/stm32f7xx_hal_cortex.o
 .text          0x00000000        0x0 build/stm32f7xx_ll_fmc.o
 .data          0x00000000        0x0 build/stm32f7xx_ll_fmc.o
 .bss           0x00000000        0x0 build/stm32f7xx_ll_fmc.o
 .text.FMC_NORSRAM_Init
                0x00000000       0x80 build/stm32f7xx_ll_fmc.o
 .text.FMC_NORSRAM_DeInit
                0x00000000       0x38 build/stm32f7xx_ll_fmc.o
 .text.FMC_NORSRAM_Timing_Init
                0x00000000       0x58 build/stm32f7xx_ll_fmc.o
 .text.FMC_NORSRAM_Extended_Timing_Init
                0x00000000       0x44 build/stm32f7xx_ll_fmc.o
 .text.FMC_NORSRAM_WriteOperation_Enable
                0x00000000       0x10 build/stm32f7xx_ll_fmc.o
 .text.FMC_NORSRAM_WriteOperation_Disable
                0x00000000       0x10 build/stm32f7xx_ll_fmc.o
 .text.FMC_NAND_Init
                0x00000000       0x38 build/stm32f7xx_ll_fmc.o
 .text.FMC_NAND_CommonSpace_Timing_Init
                0x00000000       0x1c build/stm32f7xx_ll_fmc.o
 .text.FMC_NAND_AttributeSpace_Timing_Init
                0x00000000       0x1c build/stm32f7xx_ll_fmc.o
 .text.FMC_NAND_DeInit
                0x00000000       0x1c build/stm32f7xx_ll_fmc.o
 .text.FMC_NAND_ECC_Enable
                0x00000000        0xc build/stm32f7xx_ll_fmc.o
 .text.FMC_NAND_ECC_Disable
                0x00000000        0xc build/stm32f7xx_ll_fmc.o
 .text.FMC_NAND_GetECC
                0x00000000       0x38 build/stm32f7xx_ll_fmc.o
 .text.FMC_SDRAM_DeInit
                0x00000000       0x1e build/stm32f7xx_ll_fmc.o
 .text.FMC_SDRAM_WriteProtection_Enable
                0x00000000       0x10 build/stm32f7xx_ll_fmc.o
 .text.FMC_SDRAM_WriteProtection_Disable
                0x00000000       0x10 build/stm32f7xx_ll_fmc.o
 .text.FMC_SDRAM_SetAutoRefreshNumber
                0x00000000        0xc build/stm32f7xx_ll_fmc.o
 .text.FMC_SDRAM_GetModeStatus
                0x00000000       0x14 build/stm32f7xx_ll_fmc.o
 .text          0x00000000        0x0 build/stm32f7xx_hal_flash_ex.o
 .data          0x00000000        0x0 build/stm32f7xx_hal_flash_ex.o
 .bss           0x00000000        0x0 build/stm32f7xx_hal_flash_ex.o
 .text.FLASH_MassErase
                0x00000000       0x28 build/stm32f7xx_hal_flash_ex.o
 .text.FLASH_OB_GetWRP
                0x00000000       0x10 build/stm32f7xx_hal_flash_ex.o
 .text.FLASH_OB_GetUser
                0x00000000       0x1c build/stm32f7xx_hal_flash_ex.o
 .text.FLASH_OB_BOR_LevelConfig
                0x00000000       0x14 build/stm32f7xx_hal_flash_ex.o
 .text.FLASH_OB_GetRDP
                0x00000000       0x24 build/stm32f7xx_hal_flash_ex.o
 .text.FLASH_OB_GetBOR
                0x00000000       0x10 build/stm32f7xx_hal_flash_ex.o
 .text.FLASH_OB_GetBootAddress
                0x00000000       0x18 build/stm32f7xx_hal_flash_ex.o
 .text.FLASH_OB_EnableWRP
                0x00000000       0x24 build/stm32f7xx_hal_flash_ex.o
 .text.FLASH_OB_DisableWRP
                0x00000000       0x20 build/stm32f7xx_hal_flash_ex.o
 .text.FLASH_OB_RDP_LevelConfig
                0x00000000       0x1c build/stm32f7xx_hal_flash_ex.o
 .text.FLASH_OB_UserConfig
                0x00000000       0x40 build/stm32f7xx_hal_flash_ex.o
 .text.FLASH_OB_BootAddressConfig
                0x00000000       0x3c build/stm32f7xx_hal_flash_ex.o
 .text.HAL_FLASHEx_OBProgram
                0x00000000       0xb8 build/stm32f7xx_hal_flash_ex.o
 .text.HAL_FLASHEx_OBGetConfig
                0x00000000       0x32 build/stm32f7xx_hal_flash_ex.o
 .text.FLASH_Erase_Sector
                0x00000000       0x5c build/stm32f7xx_hal_flash_ex.o
 .text.HAL_FLASHEx_Erase
                0x00000000       0x90 build/stm32f7xx_hal_flash_ex.o
 .text.HAL_FLASHEx_Erase_IT
                0x00000000       0x64 build/stm32f7xx_hal_flash_ex.o
 .debug_info    0x00000000      0x996 build/stm32f7xx_hal_flash_ex.o
 .debug_abbrev  0x00000000      0x252 build/stm32f7xx_hal_flash_ex.o
 .debug_loc     0x00000000      0x7f3 build/stm32f7xx_hal_flash_ex.o
 .debug_aranges
                0x00000000       0xa0 build/stm32f7xx_hal_flash_ex.o
 .debug_ranges  0x00000000       0x90 build/stm32f7xx_hal_flash_ex.o
 .debug_line    0x00000000      0x3ee build/stm32f7xx_hal_flash_ex.o
 .debug_str     0x00000000      0x6a9 build/stm32f7xx_hal_flash_ex.o
 .comment       0x00000000       0x80 build/stm32f7xx_hal_flash_ex.o
 .debug_frame   0x00000000      0x1cc build/stm32f7xx_hal_flash_ex.o
 .ARM.attributes
                0x00000000       0x39 build/stm32f7xx_hal_flash_ex.o
 .text          0x00000000        0x0 build/stm32f7xx_hal_exti.o
 .data          0x00000000        0x0 build/stm32f7xx_hal_exti.o
 .bss           0x00000000        0x0 build/stm32f7xx_hal_exti.o
 .text.HAL_EXTI_SetConfigLine
                0x00000000       0xe0 build/stm32f7xx_hal_exti.o
 .text.HAL_EXTI_GetConfigLine
                0x00000000       0xb0 build/stm32f7xx_hal_exti.o
 .text.HAL_EXTI_ClearConfigLine
                0x00000000       0x7c build/stm32f7xx_hal_exti.o
 .text.HAL_EXTI_RegisterCallback
                0x00000000        0xc build/stm32f7xx_hal_exti.o
 .text.HAL_EXTI_GetHandle
                0x00000000        0xc build/stm32f7xx_hal_exti.o
 .text.HAL_EXTI_IRQHandler
                0x00000000       0x24 build/stm32f7xx_hal_exti.o
 .text.HAL_EXTI_GetPending
                0x00000000       0x1c build/stm32f7xx_hal_exti.o
 .text.HAL_EXTI_ClearPending
                0x00000000       0x14 build/stm32f7xx_hal_exti.o
 .text.HAL_EXTI_GenerateSWI
                0x00000000       0x14 build/stm32f7xx_hal_exti.o
 .debug_info    0x00000000      0x64f build/stm32f7xx_hal_exti.o
 .debug_abbrev  0x00000000      0x1f5 build/stm32f7xx_hal_exti.o
 .debug_loc     0x00000000      0x531 build/stm32f7xx_hal_exti.o
 .debug_aranges
                0x00000000       0x60 build/stm32f7xx_hal_exti.o
 .debug_ranges  0x00000000       0x50 build/stm32f7xx_hal_exti.o
 .debug_line    0x00000000      0x2e0 build/stm32f7xx_hal_exti.o
 .debug_str     0x00000000      0x4b4 build/stm32f7xx_hal_exti.o
 .comment       0x00000000       0x80 build/stm32f7xx_hal_exti.o
 .debug_frame   0x00000000       0xfc build/stm32f7xx_hal_exti.o
 .ARM.attributes
                0x00000000       0x39 build/stm32f7xx_hal_exti.o
 .text          0x00000000        0x0 build/stm32f7xx_hal_gpio.o
 .data          0x00000000        0x0 build/stm32f7xx_hal_gpio.o
 .bss           0x00000000        0x0 build/stm32f7xx_hal_gpio.o
 .text.HAL_GPIO_DeInit
                0x00000000      0x140 build/stm32f7xx_hal_gpio.o
 .text.HAL_GPIO_ReadPin
                0x00000000        0xe build/stm32f7xx_hal_gpio.o
 .text.HAL_GPIO_LockPin
                0x00000000       0x2e build/stm32f7xx_hal_gpio.o
 .text.HAL_GPIO_EXTI_Callback
                0x00000000        0x2 build/stm32f7xx_hal_gpio.o
 .text.HAL_GPIO_EXTI_IRQHandler
                0x00000000       0x1c build/stm32f7xx_hal_gpio.o
 .text          0x00000000        0x0 build/stm32f7xx_hal_dma2d.o
 .data          0x00000000        0x0 build/stm32f7xx_hal_dma2d.o
 .bss           0x00000000        0x0 build/stm32f7xx_hal_dma2d.o
 .text.DMA2D_SetConfig
                0x00000000       0x8c build/stm32f7xx_hal_dma2d.o
 .text.HAL_DMA2D_MspInit
                0x00000000        0x2 build/stm32f7xx_hal_dma2d.o
 .text.HAL_DMA2D_MspDeInit
                0x00000000        0x2 build/stm32f7xx_hal_dma2d.o
 .text.HAL_DMA2D_Start
                0x00000000       0x38 build/stm32f7xx_hal_dma2d.o
 .text.HAL_DMA2D_Start_IT
                0x00000000       0x42 build/stm32f7xx_hal_dma2d.o
 .text.HAL_DMA2D_BlendingStart
                0x00000000       0x40 build/stm32f7xx_hal_dma2d.o
 .text.HAL_DMA2D_BlendingStart_IT
                0x00000000       0x4a build/stm32f7xx_hal_dma2d.o
 .text.HAL_DMA2D_Abort
                0x00000000       0x5a build/stm32f7xx_hal_dma2d.o
 .text.HAL_DMA2D_Suspend
                0x00000000       0x5e build/stm32f7xx_hal_dma2d.o
 .text.HAL_DMA2D_Resume
                0x00000000       0x20 build/stm32f7xx_hal_dma2d.o
 .text.HAL_DMA2D_EnableCLUT
                0x00000000       0x36 build/stm32f7xx_hal_dma2d.o
 .text.HAL_DMA2D_CLUTLoad
                0x00000000       0x84 build/stm32f7xx_hal_dma2d.o
 .text.HAL_DMA2D_CLUTLoad_IT
                0x00000000       0x98 build/stm32f7xx_hal_dma2d.o
 .text.HAL_DMA2D_CLUTLoading_Abort
                0x00000000       0x64 build/stm32f7xx_hal_dma2d.o
 .text.HAL_DMA2D_DeInit
                0x00000000       0x90 build/stm32f7xx_hal_dma2d.o
 .text.HAL_DMA2D_CLUTLoading_Suspend
                0x00000000       0x9a build/stm32f7xx_hal_dma2d.o
 .text.HAL_DMA2D_CLUTLoading_Resume
                0x00000000       0x42 build/stm32f7xx_hal_dma2d.o
 .text.HAL_DMA2D_PollForTransfer
                0x00000000      0x13e build/stm32f7xx_hal_dma2d.o
 .text.HAL_DMA2D_ConfigCLUT
                0x00000000       0x7c build/stm32f7xx_hal_dma2d.o
 .text.HAL_DMA2D_ProgramLineEvent
                0x00000000       0x3e build/stm32f7xx_hal_dma2d.o
 .text.HAL_DMA2D_EnableDeadTime
                0x00000000       0x2e build/stm32f7xx_hal_dma2d.o
 .text.HAL_DMA2D_DisableDeadTime
                0x00000000       0x30 build/stm32f7xx_hal_dma2d.o
 .text.HAL_DMA2D_ConfigDeadTime
                0x00000000       0x3a build/stm32f7xx_hal_dma2d.o
 .text.HAL_DMA2D_GetState
                0x00000000        0x6 build/stm32f7xx_hal_dma2d.o
 .text.HAL_DMA2D_GetError
                0x00000000        0x4 build/stm32f7xx_hal_dma2d.o
 .text          0x00000000        0x0 build/stm32f7xx_hal_tim.o
 .data          0x00000000        0x0 build/stm32f7xx_hal_tim.o
 .bss           0x00000000        0x0 build/stm32f7xx_hal_tim.o
 .debug_info    0x00000000      0x173 build/stm32f7xx_hal_tim.o
 .debug_abbrev  0x00000000       0x8f build/stm32f7xx_hal_tim.o
 .debug_aranges
                0x00000000       0x18 build/stm32f7xx_hal_tim.o
 .debug_line    0x00000000      0x12c build/stm32f7xx_hal_tim.o
 .debug_str     0x00000000      0x297 build/stm32f7xx_hal_tim.o
 .comment       0x00000000       0x80 build/stm32f7xx_hal_tim.o
 .ARM.attributes
                0x00000000       0x39 build/stm32f7xx_hal_tim.o
 .text          0x00000000        0x0 build/stm32f7xx_hal_i2c_ex.o
 .data          0x00000000        0x0 build/stm32f7xx_hal_i2c_ex.o
 .bss           0x00000000        0x0 build/stm32f7xx_hal_i2c_ex.o
 .text          0x00000000        0x0 build/stm32f7xx_hal_crc_ex.o
 .data          0x00000000        0x0 build/stm32f7xx_hal_crc_ex.o
 .bss           0x00000000        0x0 build/stm32f7xx_hal_crc_ex.o
 .text.HAL_CRCEx_Input_Data_Reverse
                0x00000000       0x18 build/stm32f7xx_hal_crc_ex.o
 .text.HAL_CRCEx_Output_Data_Reverse
                0x00000000       0x18 build/stm32f7xx_hal_crc_ex.o
 .text          0x00000000        0x0 build/system_stm32f7xx.o
 .data          0x00000000        0x0 build/system_stm32f7xx.o
 .bss           0x00000000        0x0 build/system_stm32f7xx.o
 .text.SystemCoreClockUpdate
                0x00000000       0xa0 build/system_stm32f7xx.o
 .text          0x00000000        0x0 build/ft5336.o
 .data          0x00000000        0x0 build/ft5336.o
 .bss           0x00000000        0x0 build/ft5336.o
 .text.ft5336_Reset
                0x00000000        0x2 build/ft5336.o
 .text.ft5336_TS_ITStatus
                0x00000000        0x4 build/ft5336.o
 .text.ft5336_TS_ClearIT
                0x00000000        0x2 build/ft5336.o
 .text.ft5336_Get_I2C_InitializedStatus
                0x00000000        0xc build/ft5336.o
 .text.ft5336_I2C_InitializeIfRequired
                0x00000000       0x1c build/ft5336.o
 .text.ft5336_Init
                0x00000000        0xe build/ft5336.o
 .text.ft5336_ReadID
                0x00000000       0x4a build/ft5336.o
 .text.ft5336_TS_DetectTouch
                0x00000000       0x4c build/ft5336.o
 .text.ft5336_TS_GetXY
                0x00000000      0x154 build/ft5336.o
 .text.ft5336_TS_EnableIT
                0x00000000        0xe build/ft5336.o
 .text.ft5336_TS_DisableIT
                0x00000000        0xe build/ft5336.o
 .text.ft5336_TS_Start
                0x00000000        0x8 build/ft5336.o
 .text.ft5336_TS_GetGestureID
                0x00000000       0x22 build/ft5336.o
 .text.ft5336_TS_GetTouchInfo
                0x00000000       0xe0 build/ft5336.o
 .bss.coord.5529
                0x00000000        0x2 build/ft5336.o
 .bss.ft5336_handle
                0x00000000        0x3 build/ft5336.o
 .data.ft5336_ts_drv
                0x00000000       0x28 build/ft5336.o
 .debug_info    0x00000000      0x790 build/ft5336.o
 .debug_abbrev  0x00000000      0x270 build/ft5336.o
 .debug_loc     0x00000000      0x9a4 build/ft5336.o
 .debug_aranges
                0x00000000       0x88 build/ft5336.o
 .debug_ranges  0x00000000       0x78 build/ft5336.o
 .debug_line    0x00000000      0x294 build/ft5336.o
 .debug_str     0x00000000      0x4c6 build/ft5336.o
 .comment       0x00000000       0x80 build/ft5336.o
 .debug_frame   0x00000000      0x1a0 build/ft5336.o
 .ARM.attributes
                0x00000000       0x39 build/ft5336.o
 .text          0x00000000        0x0 build/wm8994.o
 .data          0x00000000        0x0 build/wm8994.o
 .bss           0x00000000        0x0 build/wm8994.o
 .text.CODEC_IO_Write
                0x00000000        0xa build/wm8994.o
 .text.wm8994_SetMute
                0x00000000       0x58 build/wm8994.o
 .text.wm8994_Play
                0x00000000        0xa build/wm8994.o
 .text.wm8994_Resume
                0x00000000        0xa build/wm8994.o
 .text.wm8994_Pause
                0x00000000       0x1a build/wm8994.o
 .text.wm8994_Stop
                0x00000000       0x7c build/wm8994.o
 .text.wm8994_SetVolume
                0x00000000      0x138 build/wm8994.o
 .text.wm8994_Init
                0x00000000      0x788 build/wm8994.o
 .text.wm8994_SetOutputMode
                0x00000000      0x136 build/wm8994.o
 .text.wm8994_SetFrequency
                0x00000000       0xc0 build/wm8994.o
 .text.wm8994_Reset
                0x00000000       0x20 build/wm8994.o
 .text.wm8994_DeInit
                0x00000000        0x8 build/wm8994.o
 .text.wm8994_ReadID
                0x00000000       0x12 build/wm8994.o
 .bss.inputEnabled
                0x00000000        0x4 build/wm8994.o
 .bss.outputEnabled
                0x00000000        0x4 build/wm8994.o
 .data.ColdStartup
                0x00000000        0x1 build/wm8994.o
 .data.wm8994_drv
                0x00000000       0x30 build/wm8994.o
 .debug_info    0x00000000     0x1c59 build/wm8994.o
 .debug_abbrev  0x00000000      0x1ab build/wm8994.o
 .debug_loc     0x00000000      0xb79 build/wm8994.o
 .debug_aranges
                0x00000000       0x80 build/wm8994.o
 .debug_ranges  0x00000000       0x70 build/wm8994.o
 .debug_line    0x00000000      0x376 build/wm8994.o
 .debug_str     0x00000000      0x412 build/wm8994.o
 .comment       0x00000000       0x80 build/wm8994.o
 .debug_frame   0x00000000      0x1a8 build/wm8994.o
 .ARM.attributes
                0x00000000       0x39 build/wm8994.o
 .text          0x00000000        0x0 build/stm32746g_discovery.o
 .data          0x00000000        0x0 build/stm32746g_discovery.o
 .bss           0x00000000        0x0 build/stm32746g_discovery.o
 .text.I2Cx_MspInit
                0x00000000      0x128 build/stm32746g_discovery.o
 .text.I2Cx_Init
                0x00000000       0x4c build/stm32746g_discovery.o
 .text.I2Cx_Error
                0x00000000       0x10 build/stm32746g_discovery.o
 .text.I2Cx_WriteMultiple
                0x00000000       0x32 build/stm32746g_discovery.o
 .text.I2Cx_ReadMultiple
                0x00000000       0x32 build/stm32746g_discovery.o
 .text.I2Cx_IsDeviceReady
                0x00000000        0xc build/stm32746g_discovery.o
 .text.BSP_GetVersion
                0x00000000        0x6 build/stm32746g_discovery.o
 .text.BSP_LED_DeInit
                0x00000000       0x20 build/stm32746g_discovery.o
 .text.BSP_LED_On
                0x00000000       0x18 build/stm32746g_discovery.o
 .text.BSP_LED_Off
                0x00000000       0x18 build/stm32746g_discovery.o
 .text.BSP_LED_Toggle
                0x00000000       0x14 build/stm32746g_discovery.o
 .text.BSP_PB_Init
                0x00000000       0xd0 build/stm32746g_discovery.o
 .text.BSP_PB_DeInit
                0x00000000       0x30 build/stm32746g_discovery.o
 .text.BSP_PB_GetState
                0x00000000       0x1c build/stm32746g_discovery.o
 .text.BSP_COM_Init
                0x00000000       0xa0 build/stm32746g_discovery.o
 .text.BSP_COM_DeInit
                0x00000000       0x28 build/stm32746g_discovery.o
 .text.AUDIO_IO_Init
                0x00000000       0x10 build/stm32746g_discovery.o
 .text.AUDIO_IO_DeInit
                0x00000000        0x2 build/stm32746g_discovery.o
 .text.AUDIO_IO_Write
                0x00000000       0x2c build/stm32746g_discovery.o
 .text.AUDIO_IO_Read
                0x00000000       0x34 build/stm32746g_discovery.o
 .text.AUDIO_IO_Delay
                0x00000000        0x8 build/stm32746g_discovery.o
 .text.CAMERA_IO_Init
                0x00000000       0x10 build/stm32746g_discovery.o
 .text.CAMERA_IO_Write
                0x00000000       0x24 build/stm32746g_discovery.o
 .text.CAMERA_IO_Read
                0x00000000       0x2c build/stm32746g_discovery.o
 .text.CAMERA_Delay
                0x00000000        0x8 build/stm32746g_discovery.o
 .text.EEPROM_IO_Init
                0x00000000       0x10 build/stm32746g_discovery.o
 .text.EEPROM_IO_WriteData
                0x00000000       0x20 build/stm32746g_discovery.o
 .text.EEPROM_IO_ReadData
                0x00000000       0x20 build/stm32746g_discovery.o
 .text.EEPROM_IO_IsDeviceReady
                0x00000000       0x14 build/stm32746g_discovery.o
 .text.TS_IO_Init
                0x00000000       0x10 build/stm32746g_discovery.o
 .text.TS_IO_Write
                0x00000000       0x24 build/stm32746g_discovery.o
 .text.TS_IO_Read
                0x00000000       0x2c build/stm32746g_discovery.o
 .text.TS_IO_Delay
                0x00000000        0x8 build/stm32746g_discovery.o
 .bss.hI2cAudioHandler
                0x00000000       0x4c build/stm32746g_discovery.o
 .bss.hI2cExtHandler
                0x00000000       0x4c build/stm32746g_discovery.o
 .data.BUTTON_PORT
                0x00000000        0xc build/stm32746g_discovery.o
 .data.COM_RX_PORT
                0x00000000        0x4 build/stm32746g_discovery.o
 .data.COM_TX_PORT
                0x00000000        0x4 build/stm32746g_discovery.o
 .data.COM_USART
                0x00000000        0x4 build/stm32746g_discovery.o
 .rodata.BUTTON_IRQn
                0x00000000        0x6 build/stm32746g_discovery.o
 .rodata.BUTTON_PIN
                0x00000000        0x6 build/stm32746g_discovery.o
 .rodata.COM_RX_AF
                0x00000000        0x2 build/stm32746g_discovery.o
 .rodata.COM_RX_PIN
                0x00000000        0x2 build/stm32746g_discovery.o
 .rodata.COM_TX_AF
                0x00000000        0x2 build/stm32746g_discovery.o
 .rodata.COM_TX_PIN
                0x00000000        0x2 build/stm32746g_discovery.o
 .rodata.GPIO_PIN
                0x00000000        0x4 build/stm32746g_discovery.o
 .text          0x00000000        0x0 build/stm32746g_discovery_lcd.o
 .data          0x00000000        0x0 build/stm32746g_discovery_lcd.o
 .bss           0x00000000        0x0 build/stm32746g_discovery_lcd.o
 .text.LL_FillBuffer
                0x00000000       0x80 build/stm32746g_discovery_lcd.o
 .text.LL_ConvertLineToARGB8888
                0x00000000       0x64 build/stm32746g_discovery_lcd.o
 .text.BSP_LCD_GetXSize
                0x00000000       0x18 build/stm32746g_discovery_lcd.o
 .text.BSP_LCD_GetYSize
                0x00000000       0x18 build/stm32746g_discovery_lcd.o
 .text.BSP_LCD_SetXSize
                0x00000000       0x18 build/stm32746g_discovery_lcd.o
 .text.BSP_LCD_SetYSize
                0x00000000       0x18 build/stm32746g_discovery_lcd.o
 .text.BSP_LCD_LayerDefaultInit
                0x00000000       0x80 build/stm32746g_discovery_lcd.o
 .text.BSP_LCD_LayerRgb565Init
                0x00000000       0x80 build/stm32746g_discovery_lcd.o
 .text.BSP_LCD_SelectLayer
                0x00000000        0xc build/stm32746g_discovery_lcd.o
 .text.BSP_LCD_SetLayerVisible
                0x00000000       0x40 build/stm32746g_discovery_lcd.o
 .text.BSP_LCD_SetLayerVisible_NoReload
                0x00000000       0x34 build/stm32746g_discovery_lcd.o
 .text.BSP_LCD_SetTransparency
                0x00000000       0x10 build/stm32746g_discovery_lcd.o
 .text.BSP_LCD_SetTransparency_NoReload
                0x00000000       0x10 build/stm32746g_discovery_lcd.o
 .text.BSP_LCD_SetLayerAddress
                0x00000000       0x10 build/stm32746g_discovery_lcd.o
 .text.BSP_LCD_SetLayerAddress_NoReload
                0x00000000       0x10 build/stm32746g_discovery_lcd.o
 .text.BSP_LCD_SetLayerWindow
                0x00000000       0x2c build/stm32746g_discovery_lcd.o
 .text.BSP_LCD_SetLayerWindow_NoReload
                0x00000000       0x2c build/stm32746g_discovery_lcd.o
 .text.BSP_LCD_SetColorKeying
                0x00000000       0x1c build/stm32746g_discovery_lcd.o
 .text.BSP_LCD_SetColorKeying_NoReload
                0x00000000       0x1c build/stm32746g_discovery_lcd.o
 .text.BSP_LCD_ResetColorKeying
                0x00000000       0x10 build/stm32746g_discovery_lcd.o
 .text.BSP_LCD_ResetColorKeying_NoReload
                0x00000000       0x10 build/stm32746g_discovery_lcd.o
 .text.BSP_LCD_Reload
                0x00000000       0x10 build/stm32746g_discovery_lcd.o
 .text.BSP_LCD_SetTextColor
                0x00000000       0x18 build/stm32746g_discovery_lcd.o
 .text.BSP_LCD_GetTextColor
                0x00000000       0x18 build/stm32746g_discovery_lcd.o
 .text.BSP_LCD_SetBackColor
                0x00000000       0x1c build/stm32746g_discovery_lcd.o
 .text.BSP_LCD_GetBackColor
                0x00000000       0x1c build/stm32746g_discovery_lcd.o
 .text.BSP_LCD_SetFont
                0x00000000       0x1c build/stm32746g_discovery_lcd.o
 .text.BSP_LCD_GetFont
                0x00000000       0x1c build/stm32746g_discovery_lcd.o
 .text.BSP_LCD_ReadPixel
                0x00000000       0x94 build/stm32746g_discovery_lcd.o
 .text.BSP_LCD_Clear
                0x00000000       0x3c build/stm32746g_discovery_lcd.o
 .text.BSP_LCD_DrawHLine
                0x00000000       0x78 build/stm32746g_discovery_lcd.o
 .text.BSP_LCD_DrawVLine
                0x00000000       0x7c build/stm32746g_discovery_lcd.o
 .text.BSP_LCD_DrawRect
                0x00000000       0x32 build/stm32746g_discovery_lcd.o
 .text.BSP_LCD_DrawPixel
                0x00000000       0x54 build/stm32746g_discovery_lcd.o
 .text.DrawChar
                0x00000000       0xe8 build/stm32746g_discovery_lcd.o
 .text.BSP_LCD_DisplayChar
                0x00000000       0x38 build/stm32746g_discovery_lcd.o
 .text.BSP_LCD_DisplayStringAt
                0x00000000       0xd0 build/stm32746g_discovery_lcd.o
 .text.BSP_LCD_DisplayStringAtLine
                0x00000000       0x1e build/stm32746g_discovery_lcd.o
 .text.BSP_LCD_DrawLine
                0x00000000       0xfc build/stm32746g_discovery_lcd.o
 .text.BSP_LCD_DrawPolygon
                0x00000000       0x5a build/stm32746g_discovery_lcd.o
 .text.FillTriangle
                0x00000000       0xf4 build/stm32746g_discovery_lcd.o
 .text.BSP_LCD_DrawCircle
                0x00000000      0x128 build/stm32746g_discovery_lcd.o
 .text.BSP_LCD_DrawEllipse
                0x00000000      0x10c build/stm32746g_discovery_lcd.o
 .text.BSP_LCD_DrawBitmap
                0x00000000       0xcc build/stm32746g_discovery_lcd.o
 .text.BSP_LCD_FillRect
                0x00000000       0x90 build/stm32746g_discovery_lcd.o
 .text.BSP_LCD_ClearStringLine
                0x00000000       0x54 build/stm32746g_discovery_lcd.o
 .text.BSP_LCD_FillCircle
                0x00000000       0xd8 build/stm32746g_discovery_lcd.o
 .text.BSP_LCD_FillPolygon
                0x00000000      0x12a build/stm32746g_discovery_lcd.o
 .text.BSP_LCD_FillEllipse
                0x00000000       0xb6 build/stm32746g_discovery_lcd.o
 .text.BSP_LCD_DisplayOn
                0x00000000       0x34 build/stm32746g_discovery_lcd.o
 .text.BSP_LCD_DisplayOff
                0x00000000       0x34 build/stm32746g_discovery_lcd.o
 .text.BSP_LCD_MspInit
                0x00000000      0x148 build/stm32746g_discovery_lcd.o
 .text.BSP_LCD_MspDeInit
                0x00000000       0x60 build/stm32746g_discovery_lcd.o
 .text.BSP_LCD_DeInit
                0x00000000       0x2c build/stm32746g_discovery_lcd.o
 .text.BSP_LCD_ClockConfig
                0x00000000       0x20 build/stm32746g_discovery_lcd.o
 .text.BSP_LCD_Init
                0x00000000       0xac build/stm32746g_discovery_lcd.o
 .bss.ActiveLayer
                0x00000000        0x4 build/stm32746g_discovery_lcd.o
 .bss.DrawProp  0x00000000       0x18 build/stm32746g_discovery_lcd.o
 .bss.hDma2dHandler
                0x00000000       0x40 build/stm32746g_discovery_lcd.o
 .bss.periph_clk_init_struct.9349
                0x00000000       0x84 build/stm32746g_discovery_lcd.o
 .data.Font12   0x00000000        0x8 build/stm32746g_discovery_lcd.o
 .data.Font16   0x00000000        0x8 build/stm32746g_discovery_lcd.o
 .data.Font20   0x00000000        0x8 build/stm32746g_discovery_lcd.o
 .data.Font24   0x00000000        0x8 build/stm32746g_discovery_lcd.o
 .data.Font8    0x00000000        0x8 build/stm32746g_discovery_lcd.o
 .rodata.Font12_Table
                0x00000000      0x474 build/stm32746g_discovery_lcd.o
 .rodata.Font16_Table
                0x00000000      0xbe0 build/stm32746g_discovery_lcd.o
 .rodata.Font20_Table
                0x00000000      0xed8 build/stm32746g_discovery_lcd.o
 .rodata.Font24_Table
                0x00000000     0x1ab8 build/stm32746g_discovery_lcd.o
 .rodata.Font8_Table
                0x00000000      0x2f8 build/stm32746g_discovery_lcd.o
 .debug_info    0x00000000     0x33ed build/stm32746g_discovery_lcd.o
 .debug_abbrev  0x00000000      0x305 build/stm32746g_discovery_lcd.o
 .debug_loc     0x00000000     0x2bf9 build/stm32746g_discovery_lcd.o
 .debug_aranges
                0x00000000      0x1d8 build/stm32746g_discovery_lcd.o
 .debug_ranges  0x00000000      0x1c8 build/stm32746g_discovery_lcd.o
 .debug_line    0x00000000      0x93f build/stm32746g_discovery_lcd.o
 .debug_str     0x00000000     0x1687 build/stm32746g_discovery_lcd.o
 .comment       0x00000000       0x80 build/stm32746g_discovery_lcd.o
 .debug_frame   0x00000000      0x7b4 build/stm32746g_discovery_lcd.o
 .ARM.attributes
                0x00000000       0x39 build/stm32746g_discovery_lcd.o
 COMMON         0x00000000       0xa8 build/stm32746g_discovery_lcd.o
 .text          0x00000000        0x0 build/stm32746g_discovery_ts.o
 .data          0x00000000        0x0 build/stm32746g_discovery_ts.o
 .bss           0x00000000        0x0 build/stm32746g_discovery_ts.o
 .text.BSP_TS_Init
                0x00000000       0x50 build/stm32746g_discovery_ts.o
 .text.BSP_TS_DeInit
                0x00000000        0x4 build/stm32746g_discovery_ts.o
 .text.BSP_TS_ITConfig
                0x00000000       0x50 build/stm32746g_discovery_ts.o
 .text.BSP_TS_ITGetStatus
                0x00000000       0x18 build/stm32746g_discovery_ts.o
 .text.BSP_TS_Get_GestureId
                0x00000000       0x74 build/stm32746g_discovery_ts.o
 .text.BSP_TS_GetState
                0x00000000      0x1d0 build/stm32746g_discovery_ts.o
 .text.BSP_TS_ITClear
                0x00000000       0x18 build/stm32746g_discovery_ts.o
 .text.BSP_TS_ResetTouchData
                0x00000000       0x3a build/stm32746g_discovery_ts.o
 .bss.I2cAddress
                0x00000000        0x1 build/stm32746g_discovery_ts.o
 .bss._x.8914   0x00000000       0x14 build/stm32746g_discovery_ts.o
 .bss._y.8915   0x00000000       0x14 build/stm32746g_discovery_ts.o
 .bss.tsDriver  0x00000000        0x4 build/stm32746g_discovery_ts.o
 .bss.tsOrientation
                0x00000000        0x1 build/stm32746g_discovery_ts.o
 .bss.tsXBoundary
                0x00000000        0x2 build/stm32746g_discovery_ts.o
 .bss.tsYBoundary
                0x00000000        0x2 build/stm32746g_discovery_ts.o
 .debug_info    0x00000000      0xb96 build/stm32746g_discovery_ts.o
 .debug_abbrev  0x00000000      0x28a build/stm32746g_discovery_ts.o
 .debug_loc     0x00000000      0x33a build/stm32746g_discovery_ts.o
 .debug_aranges
                0x00000000       0x58 build/stm32746g_discovery_ts.o
 .debug_ranges  0x00000000       0x48 build/stm32746g_discovery_ts.o
 .debug_line    0x00000000      0x3be build/stm32746g_discovery_ts.o
 .debug_str     0x00000000      0xc69 build/stm32746g_discovery_ts.o
 .comment       0x00000000       0x80 build/stm32746g_discovery_ts.o
 .debug_frame   0x00000000       0xf8 build/stm32746g_discovery_ts.o
 .ARM.attributes
                0x00000000       0x39 build/stm32746g_discovery_ts.o
 .text          0x00000000        0x0 build/stm32746g_discovery_sdram.o
 .data          0x00000000        0x0 build/stm32746g_discovery_sdram.o
 .bss           0x00000000        0x0 build/stm32746g_discovery_sdram.o
 .text.BSP_SDRAM_ReadData
                0x00000000       0x1c build/stm32746g_discovery_sdram.o
 .text.BSP_SDRAM_ReadData_DMA
                0x00000000       0x1c build/stm32746g_discovery_sdram.o
 .text.BSP_SDRAM_WriteData
                0x00000000       0x1c build/stm32746g_discovery_sdram.o
 .text.BSP_SDRAM_WriteData_DMA
                0x00000000       0x1c build/stm32746g_discovery_sdram.o
 .text.BSP_SDRAM_Sendcmd
                0x00000000       0x1c build/stm32746g_discovery_sdram.o
 .text.BSP_SDRAM_MspDeInit
                0x00000000       0x1c build/stm32746g_discovery_sdram.o
 .text.BSP_SDRAM_DeInit
                0x00000000       0x38 build/stm32746g_discovery_sdram.o
 .bss.dma_handle.8812
                0x00000000       0x60 build/stm32746g_discovery_sdram.o
 .data.sdramstatus.8766
                0x00000000        0x1 build/stm32746g_discovery_sdram.o
 .text          0x00000000        0x0 build/stm32746g_discovery_eeprom.o
 .data          0x00000000        0x0 build/stm32746g_discovery_eeprom.o
 .bss           0x00000000        0x0 build/stm32746g_discovery_eeprom.o
 .text.BSP_EEPROM_Init
                0x00000000       0x3c build/stm32746g_discovery_eeprom.o
 .text.BSP_EEPROM_DeInit
                0x00000000        0x4 build/stm32746g_discovery_eeprom.o
 .text.BSP_EEPROM_TIMEOUT_UserCallback
                0x00000000        0x2 build/stm32746g_discovery_eeprom.o
 .text.BSP_EEPROM_ReadBuffer
                0x00000000       0x2c build/stm32746g_discovery_eeprom.o
 .text.BSP_EEPROM_WaitEepromStandbyState
                0x00000000       0x20 build/stm32746g_discovery_eeprom.o
 .text.BSP_EEPROM_WritePage
                0x00000000       0x38 build/stm32746g_discovery_eeprom.o
 .text.BSP_EEPROM_WriteBuffer
                0x00000000      0x11e build/stm32746g_discovery_eeprom.o
 .bss.EEPROMAddress
                0x00000000        0x2 build/stm32746g_discovery_eeprom.o
 .debug_info    0x00000000      0x5ad build/stm32746g_discovery_eeprom.o
 .debug_abbrev  0x00000000      0x1a5 build/stm32746g_discovery_eeprom.o
 .debug_loc     0x00000000      0x712 build/stm32746g_discovery_eeprom.o
 .debug_aranges
                0x00000000       0x50 build/stm32746g_discovery_eeprom.o
 .debug_ranges  0x00000000       0x40 build/stm32746g_discovery_eeprom.o
 .debug_line    0x00000000      0x293 build/stm32746g_discovery_eeprom.o
 .debug_str     0x00000000      0x46f build/stm32746g_discovery_eeprom.o
 .comment       0x00000000       0x80 build/stm32746g_discovery_eeprom.o
 .debug_frame   0x00000000       0xd0 build/stm32746g_discovery_eeprom.o
 .ARM.attributes
                0x00000000       0x39 build/stm32746g_discovery_eeprom.o
 COMMON         0x00000000        0x3 build/stm32746g_discovery_eeprom.o
 .text          0x00000000        0x0 build/GUIConf.o
 .data          0x00000000        0x0 build/GUIConf.o
 .bss           0x00000000        0x0 build/GUIConf.o
 .text          0x00000000        0x0 build/LCDConf.o
 .data          0x00000000        0x0 build/LCDConf.o
 .bss           0x00000000        0x0 build/LCDConf.o
 .text.HAL_DMA2D_MspDeInit
                0x00000000       0x18 build/LCDConf.o
 .text          0x00000000        0x0 build/GUI_X.o
 .data          0x00000000        0x0 build/GUI_X.o
 .bss           0x00000000        0x0 build/GUI_X.o
 .text.GUI_X_ExecIdle
                0x00000000        0x2 build/GUI_X.o
 .text.GUI_X_Log
                0x00000000        0x2 build/GUI_X.o
 .text.GUI_X_Warn
                0x00000000        0x2 build/GUI_X.o
 .text.GUI_X_ErrorOut
                0x00000000        0x2 build/GUI_X.o
 .text          0x00000000        0x0 build/FramewinDLG.o
 .data          0x00000000        0x0 build/FramewinDLG.o
 .bss           0x00000000        0x0 build/FramewinDLG.o
 .text          0x00000000       0x14 build/startup_stm32f746xx.o
 .data          0x00000000        0x0 build/startup_stm32f746xx.o
 .bss           0x00000000        0x0 build/startup_stm32f746xx.o
 .text          0x00000000        0x0 c:/vsarm/armcc/bin/../lib/gcc/arm-none-eabi/7.3.1/../../../../arm-none-eabi/lib/thumb/v7e-m/fpv4-sp/hard\libc_nano.a(lib_a-exit.o)
 .data          0x00000000        0x0 c:/vsarm/armcc/bin/../lib/gcc/arm-none-eabi/7.3.1/../../../../arm-none-eabi/lib/thumb/v7e-m/fpv4-sp/hard\libc_nano.a(lib_a-exit.o)
 .bss           0x00000000        0x0 c:/vsarm/armcc/bin/../lib/gcc/arm-none-eabi/7.3.1/../../../../arm-none-eabi/lib/thumb/v7e-m/fpv4-sp/hard\libc_nano.a(lib_a-exit.o)
 .text.exit     0x00000000       0x28 c:/vsarm/armcc/bin/../lib/gcc/arm-none-eabi/7.3.1/../../../../arm-none-eabi/lib/thumb/v7e-m/fpv4-sp/hard\libc_nano.a(lib_a-exit.o)
 .debug_frame   0x00000000       0x28 c:/vsarm/armcc/bin/../lib/gcc/arm-none-eabi/7.3.1/../../../../arm-none-eabi/lib/thumb/v7e-m/fpv4-sp/hard\libc_nano.a(lib_a-exit.o)
 .ARM.attributes
                0x00000000       0x34 c:/vsarm/armcc/bin/../lib/gcc/arm-none-eabi/7.3.1/../../../../arm-none-eabi/lib/thumb/v7e-m/fpv4-sp/hard\libc_nano.a(lib_a-exit.o)
 .text          0x00000000        0x0 c:/vsarm/armcc/bin/../lib/gcc/arm-none-eabi/7.3.1/../../../../arm-none-eabi/lib/thumb/v7e-m/fpv4-sp/hard\libc_nano.a(lib_a-impure.o)
 .data          0x00000000        0x0 c:/vsarm/armcc/bin/../lib/gcc/arm-none-eabi/7.3.1/../../../../arm-none-eabi/lib/thumb/v7e-m/fpv4-sp/hard\libc_nano.a(lib_a-impure.o)
 .bss           0x00000000        0x0 c:/vsarm/armcc/bin/../lib/gcc/arm-none-eabi/7.3.1/../../../../arm-none-eabi/lib/thumb/v7e-m/fpv4-sp/hard\libc_nano.a(lib_a-impure.o)
 .text          0x00000000        0x0 c:/vsarm/armcc/bin/../lib/gcc/arm-none-eabi/7.3.1/../../../../arm-none-eabi/lib/thumb/v7e-m/fpv4-sp/hard\libc_nano.a(lib_a-init.o)
 .data          0x00000000        0x0 c:/vsarm/armcc/bin/../lib/gcc/arm-none-eabi/7.3.1/../../../../arm-none-eabi/lib/thumb/v7e-m/fpv4-sp/hard\libc_nano.a(lib_a-init.o)
 .bss           0x00000000        0x0 c:/vsarm/armcc/bin/../lib/gcc/arm-none-eabi/7.3.1/../../../../arm-none-eabi/lib/thumb/v7e-m/fpv4-sp/hard\libc_nano.a(lib_a-init.o)
 .text          0x00000000        0x0 c:/vsarm/armcc/bin/../lib/gcc/arm-none-eabi/7.3.1/../../../../arm-none-eabi/lib/thumb/v7e-m/fpv4-sp/hard\libc_nano.a(lib_a-memset.o)
 .data          0x00000000        0x0 c:/vsarm/armcc/bin/../lib/gcc/arm-none-eabi/7.3.1/../../../../arm-none-eabi/lib/thumb/v7e-m/fpv4-sp/hard\libc_nano.a(lib_a-memset.o)
 .bss           0x00000000        0x0 c:/vsarm/armcc/bin/../lib/gcc/arm-none-eabi/7.3.1/../../../../arm-none-eabi/lib/thumb/v7e-m/fpv4-sp/hard\libc_nano.a(lib_a-memset.o)
 .text          0x00000000        0x0 c:/vsarm/armcc/bin/../lib/gcc/arm-none-eabi/7.3.1/../../../../arm-none-eabi/lib/thumb/v7e-m/fpv4-sp/hard\libc_nano.a(lib_a-puts.o)
 .data          0x00000000        0x0 c:/vsarm/armcc/bin/../lib/gcc/arm-none-eabi/7.3.1/../../../../arm-none-eabi/lib/thumb/v7e-m/fpv4-sp/hard\libc_nano.a(lib_a-puts.o)
 .bss           0x00000000        0x0 c:/vsarm/armcc/bin/../lib/gcc/arm-none-eabi/7.3.1/../../../../arm-none-eabi/lib/thumb/v7e-m/fpv4-sp/hard\libc_nano.a(lib_a-puts.o)
 .text          0x00000000        0x0 c:/vsarm/armcc/bin/../lib/gcc/arm-none-eabi/7.3.1/../../../../arm-none-eabi/lib/thumb/v7e-m/fpv4-sp/hard\libc_nano.a(lib_a-wbuf.o)
 .data          0x00000000        0x0 c:/vsarm/armcc/bin/../lib/gcc/arm-none-eabi/7.3.1/../../../../arm-none-eabi/lib/thumb/v7e-m/fpv4-sp/hard\libc_nano.a(lib_a-wbuf.o)
 .bss           0x00000000        0x0 c:/vsarm/armcc/bin/../lib/gcc/arm-none-eabi/7.3.1/../../../../arm-none-eabi/lib/thumb/v7e-m/fpv4-sp/hard\libc_nano.a(lib_a-wbuf.o)
 .text.__swbuf  0x00000000       0x10 c:/vsarm/armcc/bin/../lib/gcc/arm-none-eabi/7.3.1/../../../../arm-none-eabi/lib/thumb/v7e-m/fpv4-sp/hard\libc_nano.a(lib_a-wbuf.o)
 .text          0x00000000        0x0 c:/vsarm/armcc/bin/../lib/gcc/arm-none-eabi/7.3.1/../../../../arm-none-eabi/lib/thumb/v7e-m/fpv4-sp/hard\libc_nano.a(lib_a-wsetup.o)
 .data          0x00000000        0x0 c:/vsarm/armcc/bin/../lib/gcc/arm-none-eabi/7.3.1/../../../../arm-none-eabi/lib/thumb/v7e-m/fpv4-sp/hard\libc_nano.a(lib_a-wsetup.o)
 .bss           0x00000000        0x0 c:/vsarm/armcc/bin/../lib/gcc/arm-none-eabi/7.3.1/../../../../arm-none-eabi/lib/thumb/v7e-m/fpv4-sp/hard\libc_nano.a(lib_a-wsetup.o)
 .text          0x00000000        0x0 c:/vsarm/armcc/bin/../lib/gcc/arm-none-eabi/7.3.1/../../../../arm-none-eabi/lib/thumb/v7e-m/fpv4-sp/hard\libc_nano.a(lib_a-fflush.o)
 .data          0x00000000        0x0 c:/vsarm/armcc/bin/../lib/gcc/arm-none-eabi/7.3.1/../../../../arm-none-eabi/lib/thumb/v7e-m/fpv4-sp/hard\libc_nano.a(lib_a-fflush.o)
 .bss           0x00000000        0x0 c:/vsarm/armcc/bin/../lib/gcc/arm-none-eabi/7.3.1/../../../../arm-none-eabi/lib/thumb/v7e-m/fpv4-sp/hard\libc_nano.a(lib_a-fflush.o)
 .text.fflush   0x00000000       0x24 c:/vsarm/armcc/bin/../lib/gcc/arm-none-eabi/7.3.1/../../../../arm-none-eabi/lib/thumb/v7e-m/fpv4-sp/hard\libc_nano.a(lib_a-fflush.o)
 .text          0x00000000        0x0 c:/vsarm/armcc/bin/../lib/gcc/arm-none-eabi/7.3.1/../../../../arm-none-eabi/lib/thumb/v7e-m/fpv4-sp/hard\libc_nano.a(lib_a-findfp.o)
 .data          0x00000000        0x0 c:/vsarm/armcc/bin/../lib/gcc/arm-none-eabi/7.3.1/../../../../arm-none-eabi/lib/thumb/v7e-m/fpv4-sp/hard\libc_nano.a(lib_a-findfp.o)
 .bss           0x00000000        0x0 c:/vsarm/armcc/bin/../lib/gcc/arm-none-eabi/7.3.1/../../../../arm-none-eabi/lib/thumb/v7e-m/fpv4-sp/hard\libc_nano.a(lib_a-findfp.o)
 .text.__fp_lock
                0x00000000        0x4 c:/vsarm/armcc/bin/../lib/gcc/arm-none-eabi/7.3.1/../../../../arm-none-eabi/lib/thumb/v7e-m/fpv4-sp/hard\libc_nano.a(lib_a-findfp.o)
 .text.__fp_unlock
                0x00000000        0x4 c:/vsarm/armcc/bin/../lib/gcc/arm-none-eabi/7.3.1/../../../../arm-none-eabi/lib/thumb/v7e-m/fpv4-sp/hard\libc_nano.a(lib_a-findfp.o)
 .text._cleanup
                0x00000000        0xc c:/vsarm/armcc/bin/../lib/gcc/arm-none-eabi/7.3.1/../../../../arm-none-eabi/lib/thumb/v7e-m/fpv4-sp/hard\libc_nano.a(lib_a-findfp.o)
 .text.__sfp_lock_acquire
                0x00000000        0x2 c:/vsarm/armcc/bin/../lib/gcc/arm-none-eabi/7.3.1/../../../../arm-none-eabi/lib/thumb/v7e-m/fpv4-sp/hard\libc_nano.a(lib_a-findfp.o)
 .text.__sfp_lock_release
                0x00000000        0x2 c:/vsarm/armcc/bin/../lib/gcc/arm-none-eabi/7.3.1/../../../../arm-none-eabi/lib/thumb/v7e-m/fpv4-sp/hard\libc_nano.a(lib_a-findfp.o)
 .text.__sinit_lock_acquire
                0x00000000        0x2 c:/vsarm/armcc/bin/../lib/gcc/arm-none-eabi/7.3.1/../../../../arm-none-eabi/lib/thumb/v7e-m/fpv4-sp/hard\libc_nano.a(lib_a-findfp.o)
 .text.__sinit_lock_release
                0x00000000        0x2 c:/vsarm/armcc/bin/../lib/gcc/arm-none-eabi/7.3.1/../../../../arm-none-eabi/lib/thumb/v7e-m/fpv4-sp/hard\libc_nano.a(lib_a-findfp.o)
 .text.__fp_lock_all
                0x00000000       0x14 c:/vsarm/armcc/bin/../lib/gcc/arm-none-eabi/7.3.1/../../../../arm-none-eabi/lib/thumb/v7e-m/fpv4-sp/hard\libc_nano.a(lib_a-findfp.o)
 .text.__fp_unlock_all
                0x00000000       0x14 c:/vsarm/armcc/bin/../lib/gcc/arm-none-eabi/7.3.1/../../../../arm-none-eabi/lib/thumb/v7e-m/fpv4-sp/hard\libc_nano.a(lib_a-findfp.o)
 .text          0x00000000        0x0 c:/vsarm/armcc/bin/../lib/gcc/arm-none-eabi/7.3.1/../../../../arm-none-eabi/lib/thumb/v7e-m/fpv4-sp/hard\libc_nano.a(lib_a-fwalk.o)
 .data          0x00000000        0x0 c:/vsarm/armcc/bin/../lib/gcc/arm-none-eabi/7.3.1/../../../../arm-none-eabi/lib/thumb/v7e-m/fpv4-sp/hard\libc_nano.a(lib_a-fwalk.o)
 .bss           0x00000000        0x0 c:/vsarm/armcc/bin/../lib/gcc/arm-none-eabi/7.3.1/../../../../arm-none-eabi/lib/thumb/v7e-m/fpv4-sp/hard\libc_nano.a(lib_a-fwalk.o)
 .text._fwalk   0x00000000       0x38 c:/vsarm/armcc/bin/../lib/gcc/arm-none-eabi/7.3.1/../../../../arm-none-eabi/lib/thumb/v7e-m/fpv4-sp/hard\libc_nano.a(lib_a-fwalk.o)
 .text          0x00000000        0x0 c:/vsarm/armcc/bin/../lib/gcc/arm-none-eabi/7.3.1/../../../../arm-none-eabi/lib/thumb/v7e-m/fpv4-sp/hard\libc_nano.a(lib_a-makebuf.o)
 .data          0x00000000        0x0 c:/vsarm/armcc/bin/../lib/gcc/arm-none-eabi/7.3.1/../../../../arm-none-eabi/lib/thumb/v7e-m/fpv4-sp/hard\libc_nano.a(lib_a-makebuf.o)
 .bss           0x00000000        0x0 c:/vsarm/armcc/bin/../lib/gcc/arm-none-eabi/7.3.1/../../../../arm-none-eabi/lib/thumb/v7e-m/fpv4-sp/hard\libc_nano.a(lib_a-makebuf.o)
 .text          0x00000000        0x0 c:/vsarm/armcc/bin/../lib/gcc/arm-none-eabi/7.3.1/../../../../arm-none-eabi/lib/thumb/v7e-m/fpv4-sp/hard\libc_nano.a(lib_a-nano-freer.o)
 .data          0x00000000        0x0 c:/vsarm/armcc/bin/../lib/gcc/arm-none-eabi/7.3.1/../../../../arm-none-eabi/lib/thumb/v7e-m/fpv4-sp/hard\libc_nano.a(lib_a-nano-freer.o)
 .bss           0x00000000        0x0 c:/vsarm/armcc/bin/../lib/gcc/arm-none-eabi/7.3.1/../../../../arm-none-eabi/lib/thumb/v7e-m/fpv4-sp/hard\libc_nano.a(lib_a-nano-freer.o)
 .text          0x00000000        0x0 c:/vsarm/armcc/bin/../lib/gcc/arm-none-eabi/7.3.1/../../../../arm-none-eabi/lib/thumb/v7e-m/fpv4-sp/hard\libc_nano.a(lib_a-nano-mallocr.o)
 .data          0x00000000        0x0 c:/vsarm/armcc/bin/../lib/gcc/arm-none-eabi/7.3.1/../../../../arm-none-eabi/lib/thumb/v7e-m/fpv4-sp/hard\libc_nano.a(lib_a-nano-mallocr.o)
 .bss           0x00000000        0x0 c:/vsarm/armcc/bin/../lib/gcc/arm-none-eabi/7.3.1/../../../../arm-none-eabi/lib/thumb/v7e-m/fpv4-sp/hard\libc_nano.a(lib_a-nano-mallocr.o)
 .text          0x00000000        0x0 c:/vsarm/armcc/bin/../lib/gcc/arm-none-eabi/7.3.1/../../../../arm-none-eabi/lib/thumb/v7e-m/fpv4-sp/hard\libc_nano.a(lib_a-sbrkr.o)
 .data          0x00000000        0x0 c:/vsarm/armcc/bin/../lib/gcc/arm-none-eabi/7.3.1/../../../../arm-none-eabi/lib/thumb/v7e-m/fpv4-sp/hard\libc_nano.a(lib_a-sbrkr.o)
 .bss           0x00000000        0x0 c:/vsarm/armcc/bin/../lib/gcc/arm-none-eabi/7.3.1/../../../../arm-none-eabi/lib/thumb/v7e-m/fpv4-sp/hard\libc_nano.a(lib_a-sbrkr.o)
 .text          0x00000000        0x0 c:/vsarm/armcc/bin/../lib/gcc/arm-none-eabi/7.3.1/../../../../arm-none-eabi/lib/thumb/v7e-m/fpv4-sp/hard\libc_nano.a(lib_a-stdio.o)
 .data          0x00000000        0x0 c:/vsarm/armcc/bin/../lib/gcc/arm-none-eabi/7.3.1/../../../../arm-none-eabi/lib/thumb/v7e-m/fpv4-sp/hard\libc_nano.a(lib_a-stdio.o)
 .bss           0x00000000        0x0 c:/vsarm/armcc/bin/../lib/gcc/arm-none-eabi/7.3.1/../../../../arm-none-eabi/lib/thumb/v7e-m/fpv4-sp/hard\libc_nano.a(lib_a-stdio.o)
 .text.__seofread
                0x00000000        0x4 c:/vsarm/armcc/bin/../lib/gcc/arm-none-eabi/7.3.1/../../../../arm-none-eabi/lib/thumb/v7e-m/fpv4-sp/hard\libc_nano.a(lib_a-stdio.o)
 .text          0x00000000        0x0 c:/vsarm/armcc/bin/../lib/gcc/arm-none-eabi/7.3.1/../../../../arm-none-eabi/lib/thumb/v7e-m/fpv4-sp/hard\libc_nano.a(lib_a-writer.o)
 .data          0x00000000        0x0 c:/vsarm/armcc/bin/../lib/gcc/arm-none-eabi/7.3.1/../../../../arm-none-eabi/lib/thumb/v7e-m/fpv4-sp/hard\libc_nano.a(lib_a-writer.o)
 .bss           0x00000000        0x0 c:/vsarm/armcc/bin/../lib/gcc/arm-none-eabi/7.3.1/../../../../arm-none-eabi/lib/thumb/v7e-m/fpv4-sp/hard\libc_nano.a(lib_a-writer.o)
 .text          0x00000000        0x0 c:/vsarm/armcc/bin/../lib/gcc/arm-none-eabi/7.3.1/../../../../arm-none-eabi/lib/thumb/v7e-m/fpv4-sp/hard\libc_nano.a(lib_a-closer.o)
 .data          0x00000000        0x0 c:/vsarm/armcc/bin/../lib/gcc/arm-none-eabi/7.3.1/../../../../arm-none-eabi/lib/thumb/v7e-m/fpv4-sp/hard\libc_nano.a(lib_a-closer.o)
 .bss           0x00000000        0x0 c:/vsarm/armcc/bin/../lib/gcc/arm-none-eabi/7.3.1/../../../../arm-none-eabi/lib/thumb/v7e-m/fpv4-sp/hard\libc_nano.a(lib_a-closer.o)
 .text          0x00000000        0x0 c:/vsarm/armcc/bin/../lib/gcc/arm-none-eabi/7.3.1/../../../../arm-none-eabi/lib/thumb/v7e-m/fpv4-sp/hard\libc_nano.a(lib_a-fstatr.o)
 .data          0x00000000        0x0 c:/vsarm/armcc/bin/../lib/gcc/arm-none-eabi/7.3.1/../../../../arm-none-eabi/lib/thumb/v7e-m/fpv4-sp/hard\libc_nano.a(lib_a-fstatr.o)
 .bss           0x00000000        0x0 c:/vsarm/armcc/bin/../lib/gcc/arm-none-eabi/7.3.1/../../../../arm-none-eabi/lib/thumb/v7e-m/fpv4-sp/hard\libc_nano.a(lib_a-fstatr.o)
 .text          0x00000000        0x0 c:/vsarm/armcc/bin/../lib/gcc/arm-none-eabi/7.3.1/../../../../arm-none-eabi/lib/thumb/v7e-m/fpv4-sp/hard\libc_nano.a(lib_a-isattyr.o)
 .data          0x00000000        0x0 c:/vsarm/armcc/bin/../lib/gcc/arm-none-eabi/7.3.1/../../../../arm-none-eabi/lib/thumb/v7e-m/fpv4-sp/hard\libc_nano.a(lib_a-isattyr.o)
 .bss           0x00000000        0x0 c:/vsarm/armcc/bin/../lib/gcc/arm-none-eabi/7.3.1/../../../../arm-none-eabi/lib/thumb/v7e-m/fpv4-sp/hard\libc_nano.a(lib_a-isattyr.o)
 .text          0x00000000        0x0 c:/vsarm/armcc/bin/../lib/gcc/arm-none-eabi/7.3.1/../../../../arm-none-eabi/lib/thumb/v7e-m/fpv4-sp/hard\libc_nano.a(lib_a-lseekr.o)
 .data          0x00000000        0x0 c:/vsarm/armcc/bin/../lib/gcc/arm-none-eabi/7.3.1/../../../../arm-none-eabi/lib/thumb/v7e-m/fpv4-sp/hard\libc_nano.a(lib_a-lseekr.o)
 .bss           0x00000000        0x0 c:/vsarm/armcc/bin/../lib/gcc/arm-none-eabi/7.3.1/../../../../arm-none-eabi/lib/thumb/v7e-m/fpv4-sp/hard\libc_nano.a(lib_a-lseekr.o)
 .text          0x00000000        0x0 c:/vsarm/armcc/bin/../lib/gcc/arm-none-eabi/7.3.1/../../../../arm-none-eabi/lib/thumb/v7e-m/fpv4-sp/hard\libc_nano.a(lib_a-mlock.o)
 .data          0x00000000        0x0 c:/vsarm/armcc/bin/../lib/gcc/arm-none-eabi/7.3.1/../../../../arm-none-eabi/lib/thumb/v7e-m/fpv4-sp/hard\libc_nano.a(lib_a-mlock.o)
 .bss           0x00000000        0x0 c:/vsarm/armcc/bin/../lib/gcc/arm-none-eabi/7.3.1/../../../../arm-none-eabi/lib/thumb/v7e-m/fpv4-sp/hard\libc_nano.a(lib_a-mlock.o)
 .text          0x00000000        0x0 c:/vsarm/armcc/bin/../lib/gcc/arm-none-eabi/7.3.1/../../../../arm-none-eabi/lib/thumb/v7e-m/fpv4-sp/hard\libc_nano.a(lib_a-readr.o)
 .data          0x00000000        0x0 c:/vsarm/armcc/bin/../lib/gcc/arm-none-eabi/7.3.1/../../../../arm-none-eabi/lib/thumb/v7e-m/fpv4-sp/hard\libc_nano.a(lib_a-readr.o)
 .bss           0x00000000        0x0 c:/vsarm/armcc/bin/../lib/gcc/arm-none-eabi/7.3.1/../../../../arm-none-eabi/lib/thumb/v7e-m/fpv4-sp/hard\libc_nano.a(lib_a-readr.o)
 .text          0x00000000        0x0 c:/vsarm/armcc/bin/../lib/gcc/arm-none-eabi/7.3.1/../../../../arm-none-eabi/lib/thumb/v7e-m/fpv4-sp/hard\libc_nano.a(lib_a-reent.o)
 .data          0x00000000        0x0 c:/vsarm/armcc/bin/../lib/gcc/arm-none-eabi/7.3.1/../../../../arm-none-eabi/lib/thumb/v7e-m/fpv4-sp/hard\libc_nano.a(lib_a-reent.o)
 .bss           0x00000000        0x0 c:/vsarm/armcc/bin/../lib/gcc/arm-none-eabi/7.3.1/../../../../arm-none-eabi/lib/thumb/v7e-m/fpv4-sp/hard\libc_nano.a(lib_a-reent.o)
 .text.cleanup_glue
                0x00000000       0x1a c:/vsarm/armcc/bin/../lib/gcc/arm-none-eabi/7.3.1/../../../../arm-none-eabi/lib/thumb/v7e-m/fpv4-sp/hard\libc_nano.a(lib_a-reent.o)
 .text._reclaim_reent
                0x00000000       0xb8 c:/vsarm/armcc/bin/../lib/gcc/arm-none-eabi/7.3.1/../../../../arm-none-eabi/lib/thumb/v7e-m/fpv4-sp/hard\libc_nano.a(lib_a-reent.o)
 .text          0x00000000        0x0 c:/vsarm/armcc/bin/../lib/gcc/arm-none-eabi/7.3.1/../../../../arm-none-eabi/lib/thumb/v7e-m/fpv4-sp/hard\libnosys.a(close.o)
 .data          0x00000000        0x0 c:/vsarm/armcc/bin/../lib/gcc/arm-none-eabi/7.3.1/../../../../arm-none-eabi/lib/thumb/v7e-m/fpv4-sp/hard\libnosys.a(close.o)
 .bss           0x00000000        0x0 c:/vsarm/armcc/bin/../lib/gcc/arm-none-eabi/7.3.1/../../../../arm-none-eabi/lib/thumb/v7e-m/fpv4-sp/hard\libnosys.a(close.o)
 .text          0x00000000        0x0 c:/vsarm/armcc/bin/../lib/gcc/arm-none-eabi/7.3.1/../../../../arm-none-eabi/lib/thumb/v7e-m/fpv4-sp/hard\libnosys.a(fstat.o)
 .data          0x00000000        0x0 c:/vsarm/armcc/bin/../lib/gcc/arm-none-eabi/7.3.1/../../../../arm-none-eabi/lib/thumb/v7e-m/fpv4-sp/hard\libnosys.a(fstat.o)
 .bss           0x00000000        0x0 c:/vsarm/armcc/bin/../lib/gcc/arm-none-eabi/7.3.1/../../../../arm-none-eabi/lib/thumb/v7e-m/fpv4-sp/hard\libnosys.a(fstat.o)
 .text          0x00000000        0x0 c:/vsarm/armcc/bin/../lib/gcc/arm-none-eabi/7.3.1/../../../../arm-none-eabi/lib/thumb/v7e-m/fpv4-sp/hard\libnosys.a(isatty.o)
 .data          0x00000000        0x0 c:/vsarm/armcc/bin/../lib/gcc/arm-none-eabi/7.3.1/../../../../arm-none-eabi/lib/thumb/v7e-m/fpv4-sp/hard\libnosys.a(isatty.o)
 .bss           0x00000000        0x0 c:/vsarm/armcc/bin/../lib/gcc/arm-none-eabi/7.3.1/../../../../arm-none-eabi/lib/thumb/v7e-m/fpv4-sp/hard\libnosys.a(isatty.o)
 .text          0x00000000        0x0 c:/vsarm/armcc/bin/../lib/gcc/arm-none-eabi/7.3.1/../../../../arm-none-eabi/lib/thumb/v7e-m/fpv4-sp/hard\libnosys.a(lseek.o)
 .data          0x00000000        0x0 c:/vsarm/armcc/bin/../lib/gcc/arm-none-eabi/7.3.1/../../../../arm-none-eabi/lib/thumb/v7e-m/fpv4-sp/hard\libnosys.a(lseek.o)
 .bss           0x00000000        0x0 c:/vsarm/armcc/bin/../lib/gcc/arm-none-eabi/7.3.1/../../../../arm-none-eabi/lib/thumb/v7e-m/fpv4-sp/hard\libnosys.a(lseek.o)
 .text          0x00000000        0x0 c:/vsarm/armcc/bin/../lib/gcc/arm-none-eabi/7.3.1/../../../../arm-none-eabi/lib/thumb/v7e-m/fpv4-sp/hard\libnosys.a(read.o)
 .data          0x00000000        0x0 c:/vsarm/armcc/bin/../lib/gcc/arm-none-eabi/7.3.1/../../../../arm-none-eabi/lib/thumb/v7e-m/fpv4-sp/hard\libnosys.a(read.o)
 .bss           0x00000000        0x0 c:/vsarm/armcc/bin/../lib/gcc/arm-none-eabi/7.3.1/../../../../arm-none-eabi/lib/thumb/v7e-m/fpv4-sp/hard\libnosys.a(read.o)
 .text          0x00000000        0x0 c:/vsarm/armcc/bin/../lib/gcc/arm-none-eabi/7.3.1/../../../../arm-none-eabi/lib/thumb/v7e-m/fpv4-sp/hard\libnosys.a(sbrk.o)
 .data          0x00000000        0x0 c:/vsarm/armcc/bin/../lib/gcc/arm-none-eabi/7.3.1/../../../../arm-none-eabi/lib/thumb/v7e-m/fpv4-sp/hard\libnosys.a(sbrk.o)
 .bss           0x00000000        0x0 c:/vsarm/armcc/bin/../lib/gcc/arm-none-eabi/7.3.1/../../../../arm-none-eabi/lib/thumb/v7e-m/fpv4-sp/hard\libnosys.a(sbrk.o)
 .text          0x00000000        0x0 c:/vsarm/armcc/bin/../lib/gcc/arm-none-eabi/7.3.1/../../../../arm-none-eabi/lib/thumb/v7e-m/fpv4-sp/hard\libnosys.a(_exit.o)
 .data          0x00000000        0x0 c:/vsarm/armcc/bin/../lib/gcc/arm-none-eabi/7.3.1/../../../../arm-none-eabi/lib/thumb/v7e-m/fpv4-sp/hard\libnosys.a(_exit.o)
 .bss           0x00000000        0x0 c:/vsarm/armcc/bin/../lib/gcc/arm-none-eabi/7.3.1/../../../../arm-none-eabi/lib/thumb/v7e-m/fpv4-sp/hard\libnosys.a(_exit.o)
 .text._exit    0x00000000        0x4 c:/vsarm/armcc/bin/../lib/gcc/arm-none-eabi/7.3.1/../../../../arm-none-eabi/lib/thumb/v7e-m/fpv4-sp/hard\libnosys.a(_exit.o)
 .debug_frame   0x00000000       0x20 c:/vsarm/armcc/bin/../lib/gcc/arm-none-eabi/7.3.1/../../../../arm-none-eabi/lib/thumb/v7e-m/fpv4-sp/hard\libnosys.a(_exit.o)
 .ARM.attributes
                0x00000000       0x34 c:/vsarm/armcc/bin/../lib/gcc/arm-none-eabi/7.3.1/../../../../arm-none-eabi/lib/thumb/v7e-m/fpv4-sp/hard\libnosys.a(_exit.o)
 .text          0x00000000        0x0 Middlewares/STemWin/Lib/STemWin_CM7_wc32.a(GUICC_M8888I.o)
 .data          0x00000000        0x0 Middlewares/STemWin/Lib/STemWin_CM7_wc32.a(GUICC_M8888I.o)
 .text.GUICC_M8888I_SetCustColorConv
                0x00000000        0xc Middlewares/STemWin/Lib/STemWin_CM7_wc32.a(GUICC_M8888I.o)
 .text          0x00000000        0x0 Middlewares/STemWin/Lib/STemWin_CM7_wc32.a(GUICC_M8888I_Index2Color.o)
 .data          0x00000000        0x0 Middlewares/STemWin/Lib/STemWin_CM7_wc32.a(GUICC_M8888I_Index2Color.o)
 .bss           0x00000000        0x0 Middlewares/STemWin/Lib/STemWin_CM7_wc32.a(GUICC_M8888I_Index2Color.o)
 .text          0x00000000        0x0 Middlewares/STemWin/Lib/STemWin_CM7_wc32.a(GUI_Alloc.o)
 .data          0x00000000        0x0 Middlewares/STemWin/Lib/STemWin_CM7_wc32.a(GUI_Alloc.o)
 .text.GUI_ALLOC_Exit
                0x00000000       0x38 Middlewares/STemWin/Lib/STemWin_CM7_wc32.a(GUI_Alloc.o)
 .text.GUI_ALLOC_p2h
                0x00000000        0x6 Middlewares/STemWin/Lib/STemWin_CM7_wc32.a(GUI_Alloc.o)
 .text.GUI_ALLOC_GetNumFreeBytes
                0x00000000       0x10 Middlewares/STemWin/Lib/STemWin_CM7_wc32.a(GUI_Alloc.o)
 .text.GUI_ALLOC_GetNumFreeBlocks
                0x00000000        0xc Middlewares/STemWin/Lib/STemWin_CM7_wc32.a(GUI_Alloc.o)
 .text.GUI_ALLOC_GetNumUsedBytes
                0x00000000       0x10 Middlewares/STemWin/Lib/STemWin_CM7_wc32.a(GUI_Alloc.o)
 .text.GUI_ALLOC_GetMaxUsedBytes
                0x00000000        0xc Middlewares/STemWin/Lib/STemWin_CM7_wc32.a(GUI_Alloc.o)
 .text.GUI_ALLOC_GetMemInfo
                0x00000000       0x2c Middlewares/STemWin/Lib/STemWin_CM7_wc32.a(GUI_Alloc.o)
 .text.GUI_ALLOC_SuppressPeak
                0x00000000       0x14 Middlewares/STemWin/Lib/STemWin_CM7_wc32.a(GUI_Alloc.o)
 .text.GUI_ALLOC_GetNumUsedBlocks
                0x00000000       0x10 Middlewares/STemWin/Lib/STemWin_CM7_wc32.a(GUI_Alloc.o)
 .text.GUI_ALLOC_Lock
                0x00000000       0x10 Middlewares/STemWin/Lib/STemWin_CM7_wc32.a(GUI_Alloc.o)
 .text.GUI_ALLOC_Unlock
                0x00000000       0x10 Middlewares/STemWin/Lib/STemWin_CM7_wc32.a(GUI_Alloc.o)
 .text.GUI_ALLOC_SetAvBlockSize
                0x00000000       0x1c Middlewares/STemWin/Lib/STemWin_CM7_wc32.a(GUI_Alloc.o)
 .text.GUI_ALLOC_SetMaxPercentage
                0x00000000       0x18 Middlewares/STemWin/Lib/STemWin_CM7_wc32.a(GUI_Alloc.o)
 .text.GUI_ALLOC_AllocInit
                0x00000000       0x44 Middlewares/STemWin/Lib/STemWin_CM7_wc32.a(GUI_Alloc.o)
 .text          0x00000000        0x0 Middlewares/STemWin/Lib/STemWin_CM7_wc32.a(GUI_Common.o)
 .bss           0x00000000        0x8 Middlewares/STemWin/Lib/STemWin_CM7_wc32.a(GUI_Common.o)
 .text._DrawTextLine
                0x00000000       0xa0 Middlewares/STemWin/Lib/STemWin_CM7_wc32.a(GUI_Common.o)
 .text._cbDrawTextLine
                0x00000000       0x14 Middlewares/STemWin/Lib/STemWin_CM7_wc32.a(GUI_Common.o)
 .text._cbDrawTextStyle
                0x00000000       0x28 Middlewares/STemWin/Lib/STemWin_CM7_wc32.a(GUI_Common.o)
 .text.GUI_AddBin
                0x00000000       0x22 Middlewares/STemWin/Lib/STemWin_CM7_wc32.a(GUI_Common.o)
 .text.GUI_AddRect
                0x00000000        0x6 Middlewares/STemWin/Lib/STemWin_CM7_wc32.a(GUI_Common.o)
 .text.GUI_Long2Len
                0x00000000       0x30 Middlewares/STemWin/Lib/STemWin_CM7_wc32.a(GUI_Common.o)
 .text.GUI_AddSign
                0x00000000       0x16 Middlewares/STemWin/Lib/STemWin_CM7_wc32.a(GUI_Common.o)
 .text.GUI_AddDecShift
                0x00000000       0xa0 Middlewares/STemWin/Lib/STemWin_CM7_wc32.a(GUI_Common.o)
 .text.GUI_AddHex
                0x00000000       0x30 Middlewares/STemWin/Lib/STemWin_CM7_wc32.a(GUI_Common.o)
 .text.GUI_Color2Index
                0x00000000        0x4 Middlewares/STemWin/Lib/STemWin_CM7_wc32.a(GUI_Common.o)
 .text.GUI_Color2VisColor
                0x00000000        0xe Middlewares/STemWin/Lib/STemWin_CM7_wc32.a(GUI_Common.o)
 .text.GUI_ColorIsAvailable
                0x00000000       0x10 Middlewares/STemWin/Lib/STemWin_CM7_wc32.a(GUI_Common.o)
 .text.GUI_CalcVisColorError
                0x00000000       0x14 Middlewares/STemWin/Lib/STemWin_CM7_wc32.a(GUI_Common.o)
 .text.GUI_DispBin
                0x00000000       0x1a Middlewares/STemWin/Lib/STemWin_CM7_wc32.a(GUI_Common.o)
 .text.GUI_DispBinAt
                0x00000000       0x24 Middlewares/STemWin/Lib/STemWin_CM7_wc32.a(GUI_Common.o)
 .text.GUI_DispCEOL
                0x00000000       0x30 Middlewares/STemWin/Lib/STemWin_CM7_wc32.a(GUI_Common.o)
 .text.GUI_DispHex
                0x00000000       0x18 Middlewares/STemWin/Lib/STemWin_CM7_wc32.a(GUI_Common.o)
 .text.GUI_DispHexAt
                0x00000000       0x22 Middlewares/STemWin/Lib/STemWin_CM7_wc32.a(GUI_Common.o)
 .text.GUI_GetBkColorIndex
                0x00000000        0x4 Middlewares/STemWin/Lib/STemWin_CM7_wc32.a(GUI_Common.o)
 .text.GUI_GetColorIndex
                0x00000000        0x4 Middlewares/STemWin/Lib/STemWin_CM7_wc32.a(GUI_Common.o)
 .text.GUI_GetDispPosX
                0x00000000       0x10 Middlewares/STemWin/Lib/STemWin_CM7_wc32.a(GUI_Common.o)
 .text.GUI_GetDispPosY
                0x00000000       0x10 Middlewares/STemWin/Lib/STemWin_CM7_wc32.a(GUI_Common.o)
 .text.GUI_GetFont
                0x00000000        0xc Middlewares/STemWin/Lib/STemWin_CM7_wc32.a(GUI_Common.o)
 .text.GUI_GetFontInfo
                0x00000000       0x24 Middlewares/STemWin/Lib/STemWin_CM7_wc32.a(GUI_Common.o)
 .text.GUI_GetLineStyle
                0x00000000        0xc Middlewares/STemWin/Lib/STemWin_CM7_wc32.a(GUI_Common.o)
 .text.GUI__GetOrg
                0x00000000       0x1c Middlewares/STemWin/Lib/STemWin_CM7_wc32.a(GUI_Common.o)
 .text.GUI_GetTextAlign
                0x00000000       0x10 Middlewares/STemWin/Lib/STemWin_CM7_wc32.a(GUI_Common.o)
 .text.GUI_GetTextExtend
                0x00000000       0x8c Middlewares/STemWin/Lib/STemWin_CM7_wc32.a(GUI_Common.o)
 .text.GUI_GetTextMode
                0x00000000       0x10 Middlewares/STemWin/Lib/STemWin_CM7_wc32.a(GUI_Common.o)
 .text.GUI_Index2Color
                0x00000000        0x4 Middlewares/STemWin/Lib/STemWin_CM7_wc32.a(GUI_Common.o)
 .text.GUI_GetBitmapPixelIndexEx
                0x00000000       0x88 Middlewares/STemWin/Lib/STemWin_CM7_wc32.a(GUI_Common.o)
 .text.GUI_GetBitmapPixelIndex
                0x00000000       0x18 Middlewares/STemWin/Lib/STemWin_CM7_wc32.a(GUI_Common.o)
 .text.GUI_GetBitmapPixelColor
                0x00000000       0x1e Middlewares/STemWin/Lib/STemWin_CM7_wc32.a(GUI_Common.o)
 .text.GUI_GotoX
                0x00000000       0x10 Middlewares/STemWin/Lib/STemWin_CM7_wc32.a(GUI_Common.o)
 .text.GUI_GotoY
                0x00000000       0x10 Middlewares/STemWin/Lib/STemWin_CM7_wc32.a(GUI_Common.o)
 .text.GUI_IsInFont
                0x00000000       0x10 Middlewares/STemWin/Lib/STemWin_CM7_wc32.a(GUI_Common.o)
 .text.GUI_GetPenSize
                0x00000000        0xc Middlewares/STemWin/Lib/STemWin_CM7_wc32.a(GUI_Common.o)
 .text.GUI_GetPenShape
                0x00000000        0xc Middlewares/STemWin/Lib/STemWin_CM7_wc32.a(GUI_Common.o)
 .text.GUI_SetPenShape
                0x00000000       0x10 Middlewares/STemWin/Lib/STemWin_CM7_wc32.a(GUI_Common.o)
 .text.GUI_MagnifyPolygon
                0x00000000       0x30 Middlewares/STemWin/Lib/STemWin_CM7_wc32.a(GUI_Common.o)
 .text.GUI_RotatePolygon
                0x00000000       0x78 Middlewares/STemWin/Lib/STemWin_CM7_wc32.a(GUI_Common.o)
 .text.GUI_SetScreenSizeX
                0x00000000        0xc Middlewares/STemWin/Lib/STemWin_CM7_wc32.a(GUI_Common.o)
 .text.GUI_SetScreenSizeY
                0x00000000        0xc Middlewares/STemWin/Lib/STemWin_CM7_wc32.a(GUI_Common.o)
 .text.GUI_GetScreenSizeX
                0x00000000       0x18 Middlewares/STemWin/Lib/STemWin_CM7_wc32.a(GUI_Common.o)
 .text.GUI_GetScreenSizeY
                0x00000000       0x18 Middlewares/STemWin/Lib/STemWin_CM7_wc32.a(GUI_Common.o)
 .text.GUI_SetClipRect
                0x00000000        0x4 Middlewares/STemWin/Lib/STemWin_CM7_wc32.a(GUI_Common.o)
 .text.GUI_SetBkColorIndex
                0x00000000       0x14 Middlewares/STemWin/Lib/STemWin_CM7_wc32.a(GUI_Common.o)
 .text.GUI_SetColorIndex
                0x00000000       0x14 Middlewares/STemWin/Lib/STemWin_CM7_wc32.a(GUI_Common.o)
 .text.GUI_SetDecChar
                0x00000000       0x10 Middlewares/STemWin/Lib/STemWin_CM7_wc32.a(GUI_Common.o)
 .text.GUI_GetDecChar
                0x00000000        0xc Middlewares/STemWin/Lib/STemWin_CM7_wc32.a(GUI_Common.o)
 .text.GUI_SetLBorder
                0x00000000       0x14 Middlewares/STemWin/Lib/STemWin_CM7_wc32.a(GUI_Common.o)
 .text.GUI_SetDefault
                0x00000000        0x4 Middlewares/STemWin/Lib/STemWin_CM7_wc32.a(GUI_Common.o)
 .text.GUI_SetTextStyle
                0x00000000       0x34 Middlewares/STemWin/Lib/STemWin_CM7_wc32.a(GUI_Common.o)
 .text.GUI_SetStrikeWidth
                0x00000000       0x10 Middlewares/STemWin/Lib/STemWin_CM7_wc32.a(GUI_Common.o)
 .text.GUI_WaitKey
                0x00000000       0x18 Middlewares/STemWin/Lib/STemWin_CM7_wc32.a(GUI_Common.o)
 .rodata        0x00000000       0x38 Middlewares/STemWin/Lib/STemWin_CM7_wc32.a(GUI_Common.o)
 .text          0x00000000        0x0 Middlewares/STemWin/Lib/STemWin_CM7_wc32.a(GUI_Core.o)
 .text.GUI_SetFuncGetpPalConvTable
                0x00000000        0xc Middlewares/STemWin/Lib/STemWin_CM7_wc32.a(GUI_Core.o)
 .text.GUI_SetDefaultBkColor
                0x00000000        0xc Middlewares/STemWin/Lib/STemWin_CM7_wc32.a(GUI_Core.o)
 .text.GUI_SetDefaultColor
                0x00000000        0xc Middlewares/STemWin/Lib/STemWin_CM7_wc32.a(GUI_Core.o)
 .text.GUI_SetDefaultFont
                0x00000000        0xc Middlewares/STemWin/Lib/STemWin_CM7_wc32.a(GUI_Core.o)
 .text.GUI_GetDefaultBkColor
                0x00000000        0xc Middlewares/STemWin/Lib/STemWin_CM7_wc32.a(GUI_Core.o)
 .text.GUI_GetDefaultColor
                0x00000000        0xc Middlewares/STemWin/Lib/STemWin_CM7_wc32.a(GUI_Core.o)
 .text.GUI_GetDefaultFont
                0x00000000        0xc Middlewares/STemWin/Lib/STemWin_CM7_wc32.a(GUI_Core.o)
 .text.GUI_ClearRectEx
                0x00000000       0x14 Middlewares/STemWin/Lib/STemWin_CM7_wc32.a(GUI_Core.o)
 .text.GUI__RegisterInit
                0x00000000       0x28 Middlewares/STemWin/Lib/STemWin_CM7_wc32.a(GUI_Core.o)
 .text.GUI_IsInitialized
                0x00000000       0x18 Middlewares/STemWin/Lib/STemWin_CM7_wc32.a(GUI_Core.o)
 .text.GUI_Exit
                0x00000000       0x5c Middlewares/STemWin/Lib/STemWin_CM7_wc32.a(GUI_Core.o)
 .text.GUI_SetAfterInitHook
                0x00000000       0x20 Middlewares/STemWin/Lib/STemWin_CM7_wc32.a(GUI_Core.o)
 .text.GUI_RegisterAfterInitHook
                0x00000000       0x1e Middlewares/STemWin/Lib/STemWin_CM7_wc32.a(GUI_Core.o)
 .text.GUI_DCACHE_SetClearCacheHook
                0x00000000       0x20 Middlewares/STemWin/Lib/STemWin_CM7_wc32.a(GUI_Core.o)
 .text.GUI_DCACHE_Clear
                0x00000000       0x24 Middlewares/STemWin/Lib/STemWin_CM7_wc32.a(GUI_Core.o)
 .text.GUI_SetFuncDrawM565
                0x00000000       0x50 Middlewares/STemWin/Lib/STemWin_CM7_wc32.a(GUI_Core.o)
 .text.GUI_SetpfMemset
                0x00000000       0x20 Middlewares/STemWin/Lib/STemWin_CM7_wc32.a(GUI_Core.o)
 .text.GUI_SetpfMemcpy
                0x00000000       0x20 Middlewares/STemWin/Lib/STemWin_CM7_wc32.a(GUI_Core.o)
 .text          0x00000000        0x0 Middlewares/STemWin/Lib/STemWin_CM7_wc32.a(GUI_Device.o)
 .data          0x00000000        0x0 Middlewares/STemWin/Lib/STemWin_CM7_wc32.a(GUI_Device.o)
 .bss           0x00000000        0x0 Middlewares/STemWin/Lib/STemWin_CM7_wc32.a(GUI_Device.o)
 .text.GUI_DEVICE__GetpDevice
                0x00000000       0x24 Middlewares/STemWin/Lib/STemWin_CM7_wc32.a(GUI_Device.o)
 .text.GUI_DEVICE_UnlinkTaskDevices
                0x00000000        0x4 Middlewares/STemWin/Lib/STemWin_CM7_wc32.a(GUI_Device.o)
 .text.GUI_DEVICE_LinkDevices
                0x00000000       0x10 Middlewares/STemWin/Lib/STemWin_CM7_wc32.a(GUI_Device.o)
 .text          0x00000000        0x0 Middlewares/STemWin/Lib/STemWin_CM7_wc32.a(GUI_DispString.o)
 .data          0x00000000        0x0 Middlewares/STemWin/Lib/STemWin_CM7_wc32.a(GUI_DispString.o)
 .bss           0x00000000        0x0 Middlewares/STemWin/Lib/STemWin_CM7_wc32.a(GUI_DispString.o)
 .text.GUI_DispStringAtCEOL
                0x00000000        0xe Middlewares/STemWin/Lib/STemWin_CM7_wc32.a(GUI_DispString.o)
 .text.GUI_DispStringHCenterAt
                0x00000000       0x34 Middlewares/STemWin/Lib/STemWin_CM7_wc32.a(GUI_DispString.o)
 .text.GUI_DispStringLen
                0x00000000       0x2a Middlewares/STemWin/Lib/STemWin_CM7_wc32.a(GUI_DispString.o)
 .text.GUI_DispStringInRectWrapEx
                0x00000000      0x298 Middlewares/STemWin/Lib/STemWin_CM7_wc32.a(GUI_DispString.o)
 .text.GUI_GetStringDistX
                0x00000000       0x14 Middlewares/STemWin/Lib/STemWin_CM7_wc32.a(GUI_DispString.o)
 .text          0x00000000        0x0 Middlewares/STemWin/Lib/STemWin_CM7_wc32.a(GUI_DispStringInRectEx.o)
 .data          0x00000000        0x0 Middlewares/STemWin/Lib/STemWin_CM7_wc32.a(GUI_DispStringInRectEx.o)
 .bss           0x00000000        0x0 Middlewares/STemWin/Lib/STemWin_CM7_wc32.a(GUI_DispStringInRectEx.o)
 .text.GUI__ClearTextBackground
                0x00000000       0x78 Middlewares/STemWin/Lib/STemWin_CM7_wc32.a(GUI_DispStringInRectEx.o)
 .text.GUI_DispStringInRectEx
                0x00000000       0xa0 Middlewares/STemWin/Lib/STemWin_CM7_wc32.a(GUI_DispStringInRectEx.o)
 .comment       0x00000000       0x6f Middlewares/STemWin/Lib/STemWin_CM7_wc32.a(GUI_DispStringInRectEx.o)
 .ARM.attributes
                0x00000000       0x39 Middlewares/STemWin/Lib/STemWin_CM7_wc32.a(GUI_DispStringInRectEx.o)
 COMMON         0x00000000        0x8 Middlewares/STemWin/Lib/STemWin_CM7_wc32.a(GUI_DispStringInRectEx.o)
 .text          0x00000000        0x0 Middlewares/STemWin/Lib/STemWin_CM7_wc32.a(GUI_MULTIBUF.o)
 .data          0x00000000        0x0 Middlewares/STemWin/Lib/STemWin_CM7_wc32.a(GUI_MULTIBUF.o)
 .text.GUI_MULTIBUF_BeginEx
                0x00000000       0x68 Middlewares/STemWin/Lib/STemWin_CM7_wc32.a(GUI_MULTIBUF.o)
 .text.GUI_MULTIBUF_Begin
                0x00000000       0x10 Middlewares/STemWin/Lib/STemWin_CM7_wc32.a(GUI_MULTIBUF.o)
 .text._MULTIBUF_BeginMasked
                0x00000000       0x20 Middlewares/STemWin/Lib/STemWin_CM7_wc32.a(GUI_MULTIBUF.o)
 .text.GUI_MULTIBUF_EndEx
                0x00000000       0x5c Middlewares/STemWin/Lib/STemWin_CM7_wc32.a(GUI_MULTIBUF.o)
 .text.GUI_MULTIBUF_End
                0x00000000       0x10 Middlewares/STemWin/Lib/STemWin_CM7_wc32.a(GUI_MULTIBUF.o)
 .text._MULTIBUF_EndMasked
                0x00000000       0x20 Middlewares/STemWin/Lib/STemWin_CM7_wc32.a(GUI_MULTIBUF.o)
 .text.GUI_MULTIBUF_GetNumBuffersEx
                0x00000000       0x20 Middlewares/STemWin/Lib/STemWin_CM7_wc32.a(GUI_MULTIBUF.o)
 .text.GUI_MULTIBUF_Confirm
                0x00000000       0x10 Middlewares/STemWin/Lib/STemWin_CM7_wc32.a(GUI_MULTIBUF.o)
 .text.GUI_MULTIBUF_Config
                0x00000000       0x10 Middlewares/STemWin/Lib/STemWin_CM7_wc32.a(GUI_MULTIBUF.o)
 .text.GUI_MULTIBUF_GetNumBuffers
                0x00000000       0x10 Middlewares/STemWin/Lib/STemWin_CM7_wc32.a(GUI_MULTIBUF.o)
 .text.GUI_MULTIBUF_UseSingleBuffer
                0x00000000        0xc Middlewares/STemWin/Lib/STemWin_CM7_wc32.a(GUI_MULTIBUF.o)
 .text.GUI_MULTIBUF_SetLayerMask
                0x00000000        0xc Middlewares/STemWin/Lib/STemWin_CM7_wc32.a(GUI_MULTIBUF.o)
 .rodata        0x00000000       0x18 Middlewares/STemWin/Lib/STemWin_CM7_wc32.a(GUI_MULTIBUF.o)
 .text          0x00000000        0x0 Middlewares/STemWin/Lib/STemWin_CM7_wc32.a(GUI_OnKey.o)
 .text.GUI_GetKey
                0x00000000       0x10 Middlewares/STemWin/Lib/STemWin_CM7_wc32.a(GUI_OnKey.o)
 .text.GUI_ClearKeyBuffer
                0x00000000       0x30 Middlewares/STemWin/Lib/STemWin_CM7_wc32.a(GUI_OnKey.o)
 .text.GUI_StoreKeyMsg
                0x00000000       0x54 Middlewares/STemWin/Lib/STemWin_CM7_wc32.a(GUI_OnKey.o)
 .text.GUI_SendKeyMsg
                0x00000000       0x1a Middlewares/STemWin/Lib/STemWin_CM7_wc32.a(GUI_OnKey.o)
 .text.GUI_GetKeyState
                0x00000000       0x18 Middlewares/STemWin/Lib/STemWin_CM7_wc32.a(GUI_OnKey.o)
 .text.GUI_KEY__SetHook
                0x00000000        0xc Middlewares/STemWin/Lib/STemWin_CM7_wc32.a(GUI_OnKey.o)
 .text          0x00000000        0x0 Middlewares/STemWin/Lib/STemWin_CM7_wc32.a(GUI_SelectLayer.o)
 .data          0x00000000        0x0 Middlewares/STemWin/Lib/STemWin_CM7_wc32.a(GUI_SelectLayer.o)
 .bss           0x00000000        0x8 Middlewares/STemWin/Lib/STemWin_CM7_wc32.a(GUI_SelectLayer.o)
 .text.GUI_AssignCursorLayer
                0x00000000       0x28 Middlewares/STemWin/Lib/STemWin_CM7_wc32.a(GUI_SelectLayer.o)
 .text.GUI_GetCursorLayer
                0x00000000       0x14 Middlewares/STemWin/Lib/STemWin_CM7_wc32.a(GUI_SelectLayer.o)
 .text.GUI_GetSelLayer
                0x00000000        0xc Middlewares/STemWin/Lib/STemWin_CM7_wc32.a(GUI_SelectLayer.o)
 .text.GUI_SetLayerAlphaEx
                0x00000000        0x4 Middlewares/STemWin/Lib/STemWin_CM7_wc32.a(GUI_SelectLayer.o)
 .text.GUI_SetLayerPosEx
                0x00000000        0x4 Middlewares/STemWin/Lib/STemWin_CM7_wc32.a(GUI_SelectLayer.o)
 .text.GUI_SetLayerSizeEx
                0x00000000        0x4 Middlewares/STemWin/Lib/STemWin_CM7_wc32.a(GUI_SelectLayer.o)
 .text.GUI_SetLayerVisEx
                0x00000000        0x4 Middlewares/STemWin/Lib/STemWin_CM7_wc32.a(GUI_SelectLayer.o)
 .text          0x00000000        0x0 Middlewares/STemWin/Lib/STemWin_CM7_wc32.a(GUI_Time.o)
 .bss           0x00000000        0x0 Middlewares/STemWin/Lib/STemWin_CM7_wc32.a(GUI_Time.o)
 .text.GUI_SetTimeSlice
                0x00000000        0xc Middlewares/STemWin/Lib/STemWin_CM7_wc32.a(GUI_Time.o)
 .text.GUI_GetTimeSlice
                0x00000000        0xc Middlewares/STemWin/Lib/STemWin_CM7_wc32.a(GUI_Time.o)
 .text          0x00000000        0x0 Middlewares/STemWin/Lib/STemWin_CM7_wc32.a(GUI_UC.o)
 .data          0x00000000        0x0 Middlewares/STemWin/Lib/STemWin_CM7_wc32.a(GUI_UC.o)
 .bss           0x00000000        0x0 Middlewares/STemWin/Lib/STemWin_CM7_wc32.a(GUI_UC.o)
 .text          0x00000000        0x0 Middlewares/STemWin/Lib/STemWin_CM7_wc32.a(GUI_UC_EncodeNone.o)
 .data          0x00000000        0x0 Middlewares/STemWin/Lib/STemWin_CM7_wc32.a(GUI_UC_EncodeNone.o)
 .bss           0x00000000        0x0 Middlewares/STemWin/Lib/STemWin_CM7_wc32.a(GUI_UC_EncodeNone.o)
 .text.GUI_UC_SetEncodeNone
                0x00000000       0x10 Middlewares/STemWin/Lib/STemWin_CM7_wc32.a(GUI_UC_EncodeNone.o)
 .text          0x00000000        0x0 Middlewares/STemWin/Lib/STemWin_CM7_wc32.a(GUI_WaitEvent.o)
 .data          0x00000000        0x4 Middlewares/STemWin/Lib/STemWin_CM7_wc32.a(GUI_WaitEvent.o)
 .text._WaitEvent
                0x00000000       0x10 Middlewares/STemWin/Lib/STemWin_CM7_wc32.a(GUI_WaitEvent.o)
 .text.GUI_SetSignalEventFunc
                0x00000000        0xc Middlewares/STemWin/Lib/STemWin_CM7_wc32.a(GUI_WaitEvent.o)
 .text.GUI_SetWaitEventFunc
                0x00000000        0xc Middlewares/STemWin/Lib/STemWin_CM7_wc32.a(GUI_WaitEvent.o)
 .text.GUI_SetWaitEventTimedFunc
                0x00000000        0xc Middlewares/STemWin/Lib/STemWin_CM7_wc32.a(GUI_WaitEvent.o)
 .text.GUI_WaitEvent
                0x00000000       0x34 Middlewares/STemWin/Lib/STemWin_CM7_wc32.a(GUI_WaitEvent.o)
 .text          0x00000000        0x0 Middlewares/STemWin/Lib/STemWin_CM7_wc32.a(GUI__Private.o)
 .bss           0x00000000        0x0 Middlewares/STemWin/Lib/STemWin_CM7_wc32.a(GUI__Private.o)
 .text.GUI__AddSpaceHex
                0x00000000       0x1e Middlewares/STemWin/Lib/STemWin_CM7_wc32.a(GUI__Private.o)
 .text.GUI__CalcTextRect
                0x00000000       0x90 Middlewares/STemWin/Lib/STemWin_CM7_wc32.a(GUI__Private.o)
 .text.GUI__DivideRound
                0x00000000       0x14 Middlewares/STemWin/Lib/STemWin_CM7_wc32.a(GUI__Private.o)
 .text.GUI__memcpy
                0x00000000      0x12c Middlewares/STemWin/Lib/STemWin_CM7_wc32.a(GUI__Private.o)
 .text.GUI__memset16
                0x00000000       0x62 Middlewares/STemWin/Lib/STemWin_CM7_wc32.a(GUI__Private.o)
 .text.GUI__Read16
                0x00000000        0xc Middlewares/STemWin/Lib/STemWin_CM7_wc32.a(GUI__Private.o)
 .text.GUI__Read32
                0x00000000        0xc Middlewares/STemWin/Lib/STemWin_CM7_wc32.a(GUI__Private.o)
 .text.GUI__SetPixelAlpha
                0x00000000       0x74 Middlewares/STemWin/Lib/STemWin_CM7_wc32.a(GUI__Private.o)
 .text          0x00000000        0x0 Middlewares/STemWin/Lib/STemWin_CM7_wc32.a(GUI__SinHQ.o)
 .data          0x00000000        0x0 Middlewares/STemWin/Lib/STemWin_CM7_wc32.a(GUI__SinHQ.o)
 .bss           0x00000000        0x0 Middlewares/STemWin/Lib/STemWin_CM7_wc32.a(GUI__SinHQ.o)
 .text.GUI__ASinHQ
                0x00000000       0x58 Middlewares/STemWin/Lib/STemWin_CM7_wc32.a(GUI__SinHQ.o)
 .text.GUI__ATan2
                0x00000000       0x56 Middlewares/STemWin/Lib/STemWin_CM7_wc32.a(GUI__SinHQ.o)
 .text.GUI__SinHQ
                0x00000000       0x84 Middlewares/STemWin/Lib/STemWin_CM7_wc32.a(GUI__SinHQ.o)
 .text.GUI__CosHQ
                0x00000000        0xc Middlewares/STemWin/Lib/STemWin_CM7_wc32.a(GUI__SinHQ.o)
 .rodata        0x00000000      0x16c Middlewares/STemWin/Lib/STemWin_CM7_wc32.a(GUI__SinHQ.o)
 .comment       0x00000000       0x6f Middlewares/STemWin/Lib/STemWin_CM7_wc32.a(GUI__SinHQ.o)
 .ARM.attributes
                0x00000000       0x39 Middlewares/STemWin/Lib/STemWin_CM7_wc32.a(GUI__SinHQ.o)
 .text          0x00000000        0x0 Middlewares/STemWin/Lib/STemWin_CM7_wc32.a(GUI__Wrap.o)
 .text.GUI_WrapSetSeparators
                0x00000000        0xc Middlewares/STemWin/Lib/STemWin_CM7_wc32.a(GUI__Wrap.o)
 .text.GUI_WrapGetPositions
                0x00000000       0x38 Middlewares/STemWin/Lib/STemWin_CM7_wc32.a(GUI__Wrap.o)
 .text          0x00000000        0x0 Middlewares/STemWin/Lib/STemWin_CM7_wc32.a(LCD.o)
 .bss           0x00000000        0x0 Middlewares/STemWin/Lib/STemWin_CM7_wc32.a(LCD.o)
 .text          0x00000000        0x0 Middlewares/STemWin/Lib/STemWin_CM7_wc32.a(LCD_Color.o)
 .text.LCD__SetPaletteConversionHook
                0x00000000        0xc Middlewares/STemWin/Lib/STemWin_CM7_wc32.a(LCD_Color.o)
 .text.LCD_GetpPalConvTable
                0x00000000        0x4 Middlewares/STemWin/Lib/STemWin_CM7_wc32.a(LCD_Color.o)
 .text.LCD_SetMaxNumColors
                0x00000000       0x14 Middlewares/STemWin/Lib/STemWin_CM7_wc32.a(LCD_Color.o)
 .text.LCD_GetMaxNumColors
                0x00000000        0xc Middlewares/STemWin/Lib/STemWin_CM7_wc32.a(LCD_Color.o)
 .text          0x00000000        0x0 Middlewares/STemWin/Lib/STemWin_CM7_wc32.a(LCD_GetColorIndex.o)
 .data          0x00000000        0x0 Middlewares/STemWin/Lib/STemWin_CM7_wc32.a(LCD_GetColorIndex.o)
 .bss           0x00000000        0x0 Middlewares/STemWin/Lib/STemWin_CM7_wc32.a(LCD_GetColorIndex.o)
 .text          0x00000000        0x0 Middlewares/STemWin/Lib/STemWin_CM7_wc32.a(LCD_GetEx.o)
 .data          0x00000000        0x0 Middlewares/STemWin/Lib/STemWin_CM7_wc32.a(LCD_GetEx.o)
 .text.LCD_GetXMagEx
                0x00000000        0x6 Middlewares/STemWin/Lib/STemWin_CM7_wc32.a(LCD_GetEx.o)
 .text.LCD_GetYMagEx
                0x00000000        0x6 Middlewares/STemWin/Lib/STemWin_CM7_wc32.a(LCD_GetEx.o)
 .text.LCD_GetVXSize
                0x00000000       0x10 Middlewares/STemWin/Lib/STemWin_CM7_wc32.a(LCD_GetEx.o)
 .text.LCD_GetVYSize
                0x00000000       0x10 Middlewares/STemWin/Lib/STemWin_CM7_wc32.a(LCD_GetEx.o)
 .text.LCD_GetBitsPerPixel
                0x00000000       0x10 Middlewares/STemWin/Lib/STemWin_CM7_wc32.a(LCD_GetEx.o)
 .text.LCD_GetXMag
                0x00000000       0x10 Middlewares/STemWin/Lib/STemWin_CM7_wc32.a(LCD_GetEx.o)
 .text.LCD_GetYMag
                0x00000000       0x10 Middlewares/STemWin/Lib/STemWin_CM7_wc32.a(LCD_GetEx.o)
 .text.LCD_GetMirrorX
                0x00000000       0x10 Middlewares/STemWin/Lib/STemWin_CM7_wc32.a(LCD_GetEx.o)
 .text.LCD_GetMirrorY
                0x00000000       0x10 Middlewares/STemWin/Lib/STemWin_CM7_wc32.a(LCD_GetEx.o)
 .text.LCD_GetSwapXY
                0x00000000       0x10 Middlewares/STemWin/Lib/STemWin_CM7_wc32.a(LCD_GetEx.o)
 .text.LCD_GetDevFunc
                0x00000000       0x14 Middlewares/STemWin/Lib/STemWin_CM7_wc32.a(LCD_GetEx.o)
 .text.LCD_GetpfIndex2ColorEx
                0x00000000        0xe Middlewares/STemWin/Lib/STemWin_CM7_wc32.a(LCD_GetEx.o)
 .text.LCD_GetpfColor2IndexEx
                0x00000000        0xe Middlewares/STemWin/Lib/STemWin_CM7_wc32.a(LCD_GetEx.o)
 .text.LCD_GetVYSizeMax
                0x00000000        0x6 Middlewares/STemWin/Lib/STemWin_CM7_wc32.a(LCD_GetEx.o)
 .text.LCD_GetBitsPerPixelMax
                0x00000000        0x6 Middlewares/STemWin/Lib/STemWin_CM7_wc32.a(LCD_GetEx.o)
 .text          0x00000000        0x0 Middlewares/STemWin/Lib/STemWin_CM7_wc32.a(LCD_GetNumDisplays.o)
 .data          0x00000000        0x0 Middlewares/STemWin/Lib/STemWin_CM7_wc32.a(LCD_GetNumDisplays.o)
 .bss           0x00000000        0x0 Middlewares/STemWin/Lib/STemWin_CM7_wc32.a(LCD_GetNumDisplays.o)
 .text          0x00000000        0x0 Middlewares/STemWin/Lib/STemWin_CM7_wc32.a(LCD_GetP.o)
 .data          0x00000000        0x0 Middlewares/STemWin/Lib/STemWin_CM7_wc32.a(LCD_GetP.o)
 .bss           0x00000000        0x0 Middlewares/STemWin/Lib/STemWin_CM7_wc32.a(LCD_GetP.o)
 .text.GUI_GetPixelIndex
                0x00000000        0x4 Middlewares/STemWin/Lib/STemWin_CM7_wc32.a(LCD_GetP.o)
 .text          0x00000000        0x0 Middlewares/STemWin/Lib/STemWin_CM7_wc32.a(LCD_GetPixelColor.o)
 .data          0x00000000        0x0 Middlewares/STemWin/Lib/STemWin_CM7_wc32.a(LCD_GetPixelColor.o)
 .bss           0x00000000        0x0 Middlewares/STemWin/Lib/STemWin_CM7_wc32.a(LCD_GetPixelColor.o)
 .text.LCD_GetPixelColor
                0x00000000        0xe Middlewares/STemWin/Lib/STemWin_CM7_wc32.a(LCD_GetPixelColor.o)
 .comment       0x00000000       0x6f Middlewares/STemWin/Lib/STemWin_CM7_wc32.a(LCD_GetPixelColor.o)
 .ARM.attributes
                0x00000000       0x39 Middlewares/STemWin/Lib/STemWin_CM7_wc32.a(LCD_GetPixelColor.o)
 .text          0x00000000        0x0 Middlewares/STemWin/Lib/STemWin_CM7_wc32.a(LCD_Rotate180.o)
 .data          0x00000000        0xc Middlewares/STemWin/Lib/STemWin_CM7_wc32.a(LCD_Rotate180.o)
 .bss           0x00000000        0x0 Middlewares/STemWin/Lib/STemWin_CM7_wc32.a(LCD_Rotate180.o)
 .text._Rect2TextRect
                0x00000000        0x2 Middlewares/STemWin/Lib/STemWin_CM7_wc32.a(LCD_Rotate180.o)
 .text._TransformPoint
                0x00000000       0x50 Middlewares/STemWin/Lib/STemWin_CM7_wc32.a(LCD_Rotate180.o)
 .text._DrawBitmap180
                0x00000000      0x3fc Middlewares/STemWin/Lib/STemWin_CM7_wc32.a(LCD_Rotate180.o)
 .rodata        0x00000000       0x10 Middlewares/STemWin/Lib/STemWin_CM7_wc32.a(LCD_Rotate180.o)
 .comment       0x00000000       0x6f Middlewares/STemWin/Lib/STemWin_CM7_wc32.a(LCD_Rotate180.o)
 .ARM.attributes
                0x00000000       0x39 Middlewares/STemWin/Lib/STemWin_CM7_wc32.a(LCD_Rotate180.o)
 .text          0x00000000        0x0 Middlewares/STemWin/Lib/STemWin_CM7_wc32.a(LCD_RotateCCW.o)
 .data          0x00000000        0xc Middlewares/STemWin/Lib/STemWin_CM7_wc32.a(LCD_RotateCCW.o)
 .bss           0x00000000        0x0 Middlewares/STemWin/Lib/STemWin_CM7_wc32.a(LCD_RotateCCW.o)
 .text._Rect2TextRect
                0x00000000       0x1a Middlewares/STemWin/Lib/STemWin_CM7_wc32.a(LCD_RotateCCW.o)
 .text._TransformPoint
                0x00000000       0x6c Middlewares/STemWin/Lib/STemWin_CM7_wc32.a(LCD_RotateCCW.o)
 .text._TransformRect
                0x00000000       0x40 Middlewares/STemWin/Lib/STemWin_CM7_wc32.a(LCD_RotateCCW.o)
 .text._DrawBitmapCCW
                0x00000000      0x3f0 Middlewares/STemWin/Lib/STemWin_CM7_wc32.a(LCD_RotateCCW.o)
 .rodata        0x00000000       0x10 Middlewares/STemWin/Lib/STemWin_CM7_wc32.a(LCD_RotateCCW.o)
 .comment       0x00000000       0x6f Middlewares/STemWin/Lib/STemWin_CM7_wc32.a(LCD_RotateCCW.o)
 .ARM.attributes
                0x00000000       0x39 Middlewares/STemWin/Lib/STemWin_CM7_wc32.a(LCD_RotateCCW.o)
 .text          0x00000000        0x0 Middlewares/STemWin/Lib/STemWin_CM7_wc32.a(LCD_RotateCW.o)
 .data          0x00000000        0xc Middlewares/STemWin/Lib/STemWin_CM7_wc32.a(LCD_RotateCW.o)
 .bss           0x00000000        0x0 Middlewares/STemWin/Lib/STemWin_CM7_wc32.a(LCD_RotateCW.o)
 .text._Rect2TextRect
                0x00000000       0x1a Middlewares/STemWin/Lib/STemWin_CM7_wc32.a(LCD_RotateCW.o)
 .text._TransformPoint
                0x00000000       0x54 Middlewares/STemWin/Lib/STemWin_CM7_wc32.a(LCD_RotateCW.o)
 .text._TransformRect
                0x00000000       0x40 Middlewares/STemWin/Lib/STemWin_CM7_wc32.a(LCD_RotateCW.o)
 .text._DrawBitmapCW
                0x00000000      0x430 Middlewares/STemWin/Lib/STemWin_CM7_wc32.a(LCD_RotateCW.o)
 .rodata        0x00000000       0x10 Middlewares/STemWin/Lib/STemWin_CM7_wc32.a(LCD_RotateCW.o)
 .comment       0x00000000       0x6f Middlewares/STemWin/Lib/STemWin_CM7_wc32.a(LCD_RotateCW.o)
 .ARM.attributes
                0x00000000       0x39 Middlewares/STemWin/Lib/STemWin_CM7_wc32.a(LCD_RotateCW.o)
 .text          0x00000000        0x0 Middlewares/STemWin/Lib/STemWin_CM7_wc32.a(LCD_SelectLCD.o)
 .data          0x00000000        0x0 Middlewares/STemWin/Lib/STemWin_CM7_wc32.a(LCD_SelectLCD.o)
 .bss           0x00000000        0x0 Middlewares/STemWin/Lib/STemWin_CM7_wc32.a(LCD_SelectLCD.o)
 .text          0x00000000        0x0 Middlewares/STemWin/Lib/STemWin_CM7_wc32.a(LCD_Set.o)
 .data          0x00000000        0x0 Middlewares/STemWin/Lib/STemWin_CM7_wc32.a(LCD_Set.o)
 .bss           0x00000000        0x0 Middlewares/STemWin/Lib/STemWin_CM7_wc32.a(LCD_Set.o)
 .text.LCD_OffEx
                0x00000000       0x2a Middlewares/STemWin/Lib/STemWin_CM7_wc32.a(LCD_Set.o)
 .text.LCD_OnEx
                0x00000000       0x2a Middlewares/STemWin/Lib/STemWin_CM7_wc32.a(LCD_Set.o)
 .text.LCD_RefreshEx
                0x00000000       0x2a Middlewares/STemWin/Lib/STemWin_CM7_wc32.a(LCD_Set.o)
 .text.LCD_SetAlphaEx
                0x00000000       0x2c Middlewares/STemWin/Lib/STemWin_CM7_wc32.a(LCD_Set.o)
 .text.LCD_SetAlphaModeEx
                0x00000000       0x2c Middlewares/STemWin/Lib/STemWin_CM7_wc32.a(LCD_Set.o)
 .text.LCD_SetBufferPtrEx
                0x00000000       0x2c Middlewares/STemWin/Lib/STemWin_CM7_wc32.a(LCD_Set.o)
 .text.LCD_SetChromaEx
                0x00000000       0x30 Middlewares/STemWin/Lib/STemWin_CM7_wc32.a(LCD_Set.o)
 .text.LCD_SetChromaModeEx
                0x00000000       0x2c Middlewares/STemWin/Lib/STemWin_CM7_wc32.a(LCD_Set.o)
 .text.LCD_SetPosEx
                0x00000000       0x30 Middlewares/STemWin/Lib/STemWin_CM7_wc32.a(LCD_Set.o)
 .text.LCD_SetVisEx
                0x00000000       0x2c Middlewares/STemWin/Lib/STemWin_CM7_wc32.a(LCD_Set.o)
 .text.LCD_GetPos
                0x00000000       0x14 Middlewares/STemWin/Lib/STemWin_CM7_wc32.a(LCD_Set.o)
 .text.LCD_Off  0x00000000       0x10 Middlewares/STemWin/Lib/STemWin_CM7_wc32.a(LCD_Set.o)
 .text.LCD_On   0x00000000       0x10 Middlewares/STemWin/Lib/STemWin_CM7_wc32.a(LCD_Set.o)
 .text.LCD_Refresh
                0x00000000       0x10 Middlewares/STemWin/Lib/STemWin_CM7_wc32.a(LCD_Set.o)
 .text.LCD_SetAlpha
                0x00000000       0x10 Middlewares/STemWin/Lib/STemWin_CM7_wc32.a(LCD_Set.o)
 .text.LCD_SetAlphaMode
                0x00000000       0x10 Middlewares/STemWin/Lib/STemWin_CM7_wc32.a(LCD_Set.o)
 .text.LCD_SetBufferPtr
                0x00000000       0x10 Middlewares/STemWin/Lib/STemWin_CM7_wc32.a(LCD_Set.o)
 .text.LCD_SetChroma
                0x00000000       0x14 Middlewares/STemWin/Lib/STemWin_CM7_wc32.a(LCD_Set.o)
 .text.LCD_SetChromaMode
                0x00000000       0x10 Middlewares/STemWin/Lib/STemWin_CM7_wc32.a(LCD_Set.o)
 .text.LCD_SetLUTEntry
                0x00000000       0x14 Middlewares/STemWin/Lib/STemWin_CM7_wc32.a(LCD_Set.o)
 .text.LCD_SetPos
                0x00000000       0x14 Middlewares/STemWin/Lib/STemWin_CM7_wc32.a(LCD_Set.o)
 .text.LCD_SetSize
                0x00000000       0x14 Middlewares/STemWin/Lib/STemWin_CM7_wc32.a(LCD_Set.o)
 .text.LCD_SetVis
                0x00000000       0x10 Middlewares/STemWin/Lib/STemWin_CM7_wc32.a(LCD_Set.o)
 .text.LCD_SetVRAMAddr
                0x00000000       0x10 Middlewares/STemWin/Lib/STemWin_CM7_wc32.a(LCD_Set.o)
 .text.LCD_SetVSize
                0x00000000       0x14 Middlewares/STemWin/Lib/STemWin_CM7_wc32.a(LCD_Set.o)
 .text.LCD_SetOrg
                0x00000000       0x28 Middlewares/STemWin/Lib/STemWin_CM7_wc32.a(LCD_Set.o)
 .text          0x00000000        0x0 Middlewares/STemWin/Lib/STemWin_CM7_wc32.a(LCD_UpdateColorIndices.o)
 .data          0x00000000        0x0 Middlewares/STemWin/Lib/STemWin_CM7_wc32.a(LCD_UpdateColorIndices.o)
 .bss           0x00000000        0x0 Middlewares/STemWin/Lib/STemWin_CM7_wc32.a(LCD_UpdateColorIndices.o)
 .text          0x00000000        0x0 Middlewares/STemWin/Lib/STemWin_CM7_wc32.a(GUIDRV_Lin_32.o)
 .data          0x00000000        0x0 Middlewares/STemWin/Lib/STemWin_CM7_wc32.a(GUIDRV_Lin_32.o)
 .bss           0x00000000        0x0 Middlewares/STemWin/Lib/STemWin_CM7_wc32.a(GUIDRV_Lin_32.o)
 .text          0x00000000        0x0 Middlewares/STemWin/Lib/STemWin_CM7_wc32.a(F6x8.o)
 .data          0x00000000        0x0 Middlewares/STemWin/Lib/STemWin_CM7_wc32.a(F6x8.o)
 .bss           0x00000000        0x0 Middlewares/STemWin/Lib/STemWin_CM7_wc32.a(F6x8.o)
 .text          0x00000000        0x0 Middlewares/STemWin/Lib/STemWin_CM7_wc32.a(GUIDEV_32.o)
 .data          0x00000000        0x0 Middlewares/STemWin/Lib/STemWin_CM7_wc32.a(GUIDEV_32.o)
 .bss           0x00000000        0x0 Middlewares/STemWin/Lib/STemWin_CM7_wc32.a(GUIDEV_32.o)
 .text          0x00000000        0x0 Middlewares/STemWin/Lib/STemWin_CM7_wc32.a(GUIDEV_Usage.o)
 .data          0x00000000        0x0 Middlewares/STemWin/Lib/STemWin_CM7_wc32.a(GUIDEV_Usage.o)
 .bss           0x00000000        0x0 Middlewares/STemWin/Lib/STemWin_CM7_wc32.a(GUIDEV_Usage.o)
 .text.GUI_USAGE_Select
                0x00000000       0x24 Middlewares/STemWin/Lib/STemWin_CM7_wc32.a(GUIDEV_Usage.o)
 .text          0x00000000        0x0 Middlewares/STemWin/Lib/STemWin_CM7_wc32.a(GUIDEV_WriteToActiveAlpha.o)
 .data          0x00000000        0x0 Middlewares/STemWin/Lib/STemWin_CM7_wc32.a(GUIDEV_WriteToActiveAlpha.o)
 .bss           0x00000000        0x0 Middlewares/STemWin/Lib/STemWin_CM7_wc32.a(GUIDEV_WriteToActiveAlpha.o)
 .text          0x00000000        0x0 Middlewares/STemWin/Lib/STemWin_CM7_wc32.a(WM.o)
 .data          0x00000000        0x0 Middlewares/STemWin/Lib/STemWin_CM7_wc32.a(WM.o)
 .text.WM_CreateWindow
                0x00000000       0x1a Middlewares/STemWin/Lib/STemWin_CM7_wc32.a(WM.o)
 .text.WM_Exec1
                0x00000000       0x12 Middlewares/STemWin/Lib/STemWin_CM7_wc32.a(WM.o)
 .text.WM_GetWindowInfo
                0x00000000       0x78 Middlewares/STemWin/Lib/STemWin_CM7_wc32.a(WM.o)
 .text          0x00000000        0x0 Middlewares/STemWin/Lib/STemWin_CM7_wc32.a(WM_Lib.o)
 .data          0x00000000        0x0 Middlewares/STemWin/Lib/STemWin_CM7_wc32.a(WM_Lib.o)
 .bss           0x00000000        0x0 Middlewares/STemWin/Lib/STemWin_CM7_wc32.a(WM_Lib.o)
 .text.WM_BroadcastMessage
                0x00000000       0x3c Middlewares/STemWin/Lib/STemWin_CM7_wc32.a(WM_Lib.o)
 .text.WM_DetachWindow
                0x00000000       0x48 Middlewares/STemWin/Lib/STemWin_CM7_wc32.a(WM_Lib.o)
 .text.WM_AttachWindow
                0x00000000       0x64 Middlewares/STemWin/Lib/STemWin_CM7_wc32.a(WM_Lib.o)
 .text.WM_AttachWindowAt
                0x00000000       0x24 Middlewares/STemWin/Lib/STemWin_CM7_wc32.a(WM_Lib.o)
 .text.WM_SetEnableState
                0x00000000       0x44 Middlewares/STemWin/Lib/STemWin_CM7_wc32.a(WM_Lib.o)
 .text.WM_EnableWindow
                0x00000000        0x6 Middlewares/STemWin/Lib/STemWin_CM7_wc32.a(WM_Lib.o)
 .text.WM_DisableWindow
                0x00000000        0x6 Middlewares/STemWin/Lib/STemWin_CM7_wc32.a(WM_Lib.o)
 .text.WM_GetBkColor
                0x00000000       0x1e Middlewares/STemWin/Lib/STemWin_CM7_wc32.a(WM_Lib.o)
 .text.WM_GetCallback
                0x00000000       0x1e Middlewares/STemWin/Lib/STemWin_CM7_wc32.a(WM_Lib.o)
 .text.WM_GetDesktopWindowEx
                0x00000000       0x14 Middlewares/STemWin/Lib/STemWin_CM7_wc32.a(WM_Lib.o)
 .text.WM_GetNumWindows
                0x00000000        0xc Middlewares/STemWin/Lib/STemWin_CM7_wc32.a(WM_Lib.o)
 .text.WM_GetNumInvalidWindows
                0x00000000        0xc Middlewares/STemWin/Lib/STemWin_CM7_wc32.a(WM_Lib.o)
 .text.WM_SetScrollValue
                0x00000000       0x10 Middlewares/STemWin/Lib/STemWin_CM7_wc32.a(WM_Lib.o)
 .text.WM_GetInsideRect
                0x00000000       0x10 Middlewares/STemWin/Lib/STemWin_CM7_wc32.a(WM_Lib.o)
 .text.WM_GetInvalidRect
                0x00000000       0x22 Middlewares/STemWin/Lib/STemWin_CM7_wc32.a(WM_Lib.o)
 .text.WM_GetWindowOrgY
                0x00000000       0x10 Middlewares/STemWin/Lib/STemWin_CM7_wc32.a(WM_Lib.o)
 .text.WM_GetOrgX
                0x00000000       0x10 Middlewares/STemWin/Lib/STemWin_CM7_wc32.a(WM_Lib.o)
 .text.WM_GetOrgY
                0x00000000       0x10 Middlewares/STemWin/Lib/STemWin_CM7_wc32.a(WM_Lib.o)
 .text.WM_GetPrevSibling
                0x00000000        0x8 Middlewares/STemWin/Lib/STemWin_CM7_wc32.a(WM_Lib.o)
 .text.WM_GetWindowRect
                0x00000000       0x28 Middlewares/STemWin/Lib/STemWin_CM7_wc32.a(WM_Lib.o)
 .text.WM_InvalidateArea
                0x00000000       0x24 Middlewares/STemWin/Lib/STemWin_CM7_wc32.a(WM_Lib.o)
 .text.WM_IsEnabled
                0x00000000        0x8 Middlewares/STemWin/Lib/STemWin_CM7_wc32.a(WM_Lib.o)
 .text.WM_IsVisible
                0x00000000       0x12 Middlewares/STemWin/Lib/STemWin_CM7_wc32.a(WM_Lib.o)
 .text.WM_MoveChildTo
                0x00000000       0x56 Middlewares/STemWin/Lib/STemWin_CM7_wc32.a(WM_Lib.o)
 .text.WM_Update
                0x00000000       0x2a Middlewares/STemWin/Lib/STemWin_CM7_wc32.a(WM_Lib.o)
 .text.WM_Paint
                0x00000000       0x12 Middlewares/STemWin/Lib/STemWin_CM7_wc32.a(WM_Lib.o)
 .text.WM_SetAnchor
                0x00000000       0x24 Middlewares/STemWin/Lib/STemWin_CM7_wc32.a(WM_Lib.o)
 .text.WM_SetCallback
                0x00000000       0x2c Middlewares/STemWin/Lib/STemWin_CM7_wc32.a(WM_Lib.o)
 .text.WM_SetCreateFlags
                0x00000000       0x10 Middlewares/STemWin/Lib/STemWin_CM7_wc32.a(WM_Lib.o)
 .text.WM_SetDesktopColorEx
                0x00000000       0x2c Middlewares/STemWin/Lib/STemWin_CM7_wc32.a(WM_Lib.o)
 .text.WM_SetDesktopColor
                0x00000000       0x10 Middlewares/STemWin/Lib/STemWin_CM7_wc32.a(WM_Lib.o)
 .text.WM_SetDesktopColors
                0x00000000       0x16 Middlewares/STemWin/Lib/STemWin_CM7_wc32.a(WM_Lib.o)
 .text.WM_SetId
                0x00000000       0x14 Middlewares/STemWin/Lib/STemWin_CM7_wc32.a(WM_Lib.o)
 .text.WM_SetpfPollPID
                0x00000000       0x10 Middlewares/STemWin/Lib/STemWin_CM7_wc32.a(WM_Lib.o)
 .text.WM_SetWindowPos
                0x00000000       0x1e Middlewares/STemWin/Lib/STemWin_CM7_wc32.a(WM_Lib.o)
 .text.WM_SetXSize
                0x00000000       0x40 Middlewares/STemWin/Lib/STemWin_CM7_wc32.a(WM_Lib.o)
 .text.WM_SetYSize
                0x00000000       0x40 Middlewares/STemWin/Lib/STemWin_CM7_wc32.a(WM_Lib.o)
 .text.WM_SetStayOnTop
                0x00000000       0x44 Middlewares/STemWin/Lib/STemWin_CM7_wc32.a(WM_Lib.o)
 .text.WM_GetStayOnTop
                0x00000000       0x22 Middlewares/STemWin/Lib/STemWin_CM7_wc32.a(WM_Lib.o)
 .text          0x00000000        0x0 Middlewares/STemWin/Lib/STemWin_CM7_wc32.a(WM_Move.o)
 .data          0x00000000        0x0 Middlewares/STemWin/Lib/STemWin_CM7_wc32.a(WM_Move.o)
 .bss           0x00000000        0x0 Middlewares/STemWin/Lib/STemWin_CM7_wc32.a(WM_Move.o)
 .text.WM__MoveTo
                0x00000000       0x34 Middlewares/STemWin/Lib/STemWin_CM7_wc32.a(WM_Move.o)
 .text.WM_MoveTo
                0x00000000        0x4 Middlewares/STemWin/Lib/STemWin_CM7_wc32.a(WM_Move.o)
 .text          0x00000000        0x0 Middlewares/STemWin/Lib/STemWin_CM7_wc32.a(WM_Timer.o)
 .data          0x00000000        0x0 Middlewares/STemWin/Lib/STemWin_CM7_wc32.a(WM_Timer.o)
 .bss           0x00000000        0x0 Middlewares/STemWin/Lib/STemWin_CM7_wc32.a(WM_Timer.o)
 .text.WM_GetTimerId
                0x00000000       0x1e Middlewares/STemWin/Lib/STemWin_CM7_wc32.a(WM_Timer.o)
 .text          0x00000000        0x0 Middlewares/STemWin/Lib/STemWin_CM7_wc32.a(WM_Touch.o)
 .data          0x00000000        0x4 Middlewares/STemWin/Lib/STemWin_CM7_wc32.a(WM_Touch.o)
 .bss           0x00000000       0x28 Middlewares/STemWin/Lib/STemWin_CM7_wc32.a(WM_Touch.o)
 .text._OnExit  0x00000000       0x10 Middlewares/STemWin/Lib/STemWin_CM7_wc32.a(WM_Touch.o)
 .text.WM__IsInModalArea
                0x00000000       0x60 Middlewares/STemWin/Lib/STemWin_CM7_wc32.a(WM_Touch.o)
 .text.WM__SendPIDMessage
                0x00000000       0x42 Middlewares/STemWin/Lib/STemWin_CM7_wc32.a(WM_Touch.o)
 .text.WM__SendTouchMessage
                0x00000000       0x3a Middlewares/STemWin/Lib/STemWin_CM7_wc32.a(WM_Touch.o)
 .text.WM__SetLastTouched
                0x00000000       0x20 Middlewares/STemWin/Lib/STemWin_CM7_wc32.a(WM_Touch.o)
 .text.WM__SetMotionCallback
                0x00000000       0x24 Middlewares/STemWin/Lib/STemWin_CM7_wc32.a(WM_Touch.o)
 .text.WM__SetToolTipCallback
                0x00000000       0x24 Middlewares/STemWin/Lib/STemWin_CM7_wc32.a(WM_Touch.o)
 .text.WM_HandlePID
                0x00000000      0x378 Middlewares/STemWin/Lib/STemWin_CM7_wc32.a(WM_Touch.o)
 .text          0x00000000        0x0 Middlewares/STemWin/Lib/STemWin_CM7_wc32.a(WM__Private.o)
 .data          0x00000000        0x0 Middlewares/STemWin/Lib/STemWin_CM7_wc32.a(WM__Private.o)
 .text._NotifyVisChanged
                0x00000000       0x42 Middlewares/STemWin/Lib/STemWin_CM7_wc32.a(WM__Private.o)
 .text.WM__GetOrgX_AA
                0x00000000       0x18 Middlewares/STemWin/Lib/STemWin_CM7_wc32.a(WM__Private.o)
 .text.WM__GetOrgY_AA
                0x00000000       0x18 Middlewares/STemWin/Lib/STemWin_CM7_wc32.a(WM__Private.o)
 .text.WM__NotifyVisChanged
                0x00000000       0x18 Middlewares/STemWin/Lib/STemWin_CM7_wc32.a(WM__Private.o)
 .text.WM__SendMessageIfEnabled
                0x00000000       0x1a Middlewares/STemWin/Lib/STemWin_CM7_wc32.a(WM__Private.o)
 .text.WM__RemoveCriticalHandle
                0x00000000       0x2c Middlewares/STemWin/Lib/STemWin_CM7_wc32.a(WM__Private.o)
 .text          0x00000000        0x0 Middlewares/STemWin/Lib/STemWin_CM7_wc32.a(BUTTON.o)
 .text._OnPidStateChange
                0x00000000       0x46 Middlewares/STemWin/Lib/STemWin_CM7_wc32.a(BUTTON.o)
 .text._OnTouchReactOnLevel
                0x00000000       0x32 Middlewares/STemWin/Lib/STemWin_CM7_wc32.a(BUTTON.o)
 .text.BUTTON_SetReactOnLevel
                0x00000000       0x20 Middlewares/STemWin/Lib/STemWin_CM7_wc32.a(BUTTON.o)
 .text.BUTTON_SetReactOnTouch
                0x00000000       0x1c Middlewares/STemWin/Lib/STemWin_CM7_wc32.a(BUTTON.o)
 .text.BUTTON_CreateEx
                0x00000000       0x20 Middlewares/STemWin/Lib/STemWin_CM7_wc32.a(BUTTON.o)
 .text.BUTTON_Create
                0x00000000       0x1a Middlewares/STemWin/Lib/STemWin_CM7_wc32.a(BUTTON.o)
 .text.BUTTON_CreateAsChild
                0x00000000       0x1a Middlewares/STemWin/Lib/STemWin_CM7_wc32.a(BUTTON.o)
 .text.BUTTON_GetBkColor
                0x00000000       0x26 Middlewares/STemWin/Lib/STemWin_CM7_wc32.a(BUTTON.o)
 .text.BUTTON_SetBkColor
                0x00000000       0x2a Middlewares/STemWin/Lib/STemWin_CM7_wc32.a(BUTTON.o)
 .text.BUTTON_GetTextColor
                0x00000000       0x26 Middlewares/STemWin/Lib/STemWin_CM7_wc32.a(BUTTON.o)
 .text.BUTTON_SetTextColor
                0x00000000       0x2a Middlewares/STemWin/Lib/STemWin_CM7_wc32.a(BUTTON.o)
 .text.BUTTON_GetFrameColor
                0x00000000       0x1e Middlewares/STemWin/Lib/STemWin_CM7_wc32.a(BUTTON.o)
 .text.BUTTON_SetFrameColor
                0x00000000       0x24 Middlewares/STemWin/Lib/STemWin_CM7_wc32.a(BUTTON.o)
 .text.BUTTON_SetFocusColor
                0x00000000       0x30 Middlewares/STemWin/Lib/STemWin_CM7_wc32.a(BUTTON.o)
 .text.BUTTON_SetTextAlign
                0x00000000       0x26 Middlewares/STemWin/Lib/STemWin_CM7_wc32.a(BUTTON.o)
 .text.BUTTON_GetTextAlign
                0x00000000       0x24 Middlewares/STemWin/Lib/STemWin_CM7_wc32.a(BUTTON.o)
 .text.BUTTON_GetFont
                0x00000000       0x1e Middlewares/STemWin/Lib/STemWin_CM7_wc32.a(BUTTON.o)
 .text.BUTTON_GetText
                0x00000000       0x50 Middlewares/STemWin/Lib/STemWin_CM7_wc32.a(BUTTON.o)
 .text.BUTTON_IsPressed
                0x00000000       0x22 Middlewares/STemWin/Lib/STemWin_CM7_wc32.a(BUTTON.o)
 .text.BUTTON_SetFont
                0x00000000       0x24 Middlewares/STemWin/Lib/STemWin_CM7_wc32.a(BUTTON.o)
 .text.BUTTON_SetState
                0x00000000        0x4 Middlewares/STemWin/Lib/STemWin_CM7_wc32.a(BUTTON.o)
 .text.BUTTON_SetPressed
                0x00000000       0x12 Middlewares/STemWin/Lib/STemWin_CM7_wc32.a(BUTTON.o)
 .text.BUTTON_SetTextOffset
                0x00000000       0x2c Middlewares/STemWin/Lib/STemWin_CM7_wc32.a(BUTTON.o)
 .text.BUTTON_GetpWidget
                0x00000000       0x18 Middlewares/STemWin/Lib/STemWin_CM7_wc32.a(BUTTON.o)
 .text.BUTTON_SetUserData
                0x00000000        0x6 Middlewares/STemWin/Lib/STemWin_CM7_wc32.a(BUTTON.o)
 .text.BUTTON_GetUserData
                0x00000000        0x6 Middlewares/STemWin/Lib/STemWin_CM7_wc32.a(BUTTON.o)
 .text          0x00000000        0x0 Middlewares/STemWin/Lib/STemWin_CM7_wc32.a(BUTTON_Skin.o)
 .bss           0x00000000        0x0 Middlewares/STemWin/Lib/STemWin_CM7_wc32.a(BUTTON_Skin.o)
 .text.BUTTON_SetSkin
                0x00000000       0x2c Middlewares/STemWin/Lib/STemWin_CM7_wc32.a(BUTTON_Skin.o)
 .text.BUTTON_SetDefaultSkin
                0x00000000       0x1c Middlewares/STemWin/Lib/STemWin_CM7_wc32.a(BUTTON_Skin.o)
 .text          0x00000000        0x0 Middlewares/STemWin/Lib/STemWin_CM7_wc32.a(BUTTON_SkinFlex.o)
 .bss           0x00000000        0x0 Middlewares/STemWin/Lib/STemWin_CM7_wc32.a(BUTTON_SkinFlex.o)
 .text.BUTTON_SetSkinFlexProps
                0x00000000       0x20 Middlewares/STemWin/Lib/STemWin_CM7_wc32.a(BUTTON_SkinFlex.o)
 .text.BUTTON_GetSkinFlexProps
                0x00000000       0x20 Middlewares/STemWin/Lib/STemWin_CM7_wc32.a(BUTTON_SkinFlex.o)
 .text          0x00000000        0x0 Middlewares/STemWin/Lib/STemWin_CM7_wc32.a(DIALOG.o)
 .data          0x00000000        0x4 Middlewares/STemWin/Lib/STemWin_CM7_wc32.a(DIALOG.o)
 .bss           0x00000000        0x0 Middlewares/STemWin/Lib/STemWin_CM7_wc32.a(DIALOG.o)
 .text.DIALOG_GetBkColor
                0x00000000        0xc Middlewares/STemWin/Lib/STemWin_CM7_wc32.a(DIALOG.o)
 .text.DIALOG_SetBkColor
                0x00000000       0x10 Middlewares/STemWin/Lib/STemWin_CM7_wc32.a(DIALOG.o)
 .text.GUI_SetDialogStatusPtr
                0x00000000       0x24 Middlewares/STemWin/Lib/STemWin_CM7_wc32.a(DIALOG.o)
 .text.GUI_GetDialogStatusPtr
                0x00000000       0x20 Middlewares/STemWin/Lib/STemWin_CM7_wc32.a(DIALOG.o)
 .text.GUI_EndDialog
                0x00000000       0x1c Middlewares/STemWin/Lib/STemWin_CM7_wc32.a(DIALOG.o)
 .text.GUI_ExecCreatedDialog
                0x00000000       0x28 Middlewares/STemWin/Lib/STemWin_CM7_wc32.a(DIALOG.o)
 .text.GUI_ExecDialogBox
                0x00000000       0x18 Middlewares/STemWin/Lib/STemWin_CM7_wc32.a(DIALOG.o)
 .text          0x00000000        0x0 Middlewares/STemWin/Lib/STemWin_CM7_wc32.a(FRAMEWIN.o)
 .bss           0x00000000        0x0 Middlewares/STemWin/Lib/STemWin_CM7_wc32.a(FRAMEWIN.o)
 .text.FRAMEWIN__UpdatePositions
                0x00000000       0x6e Middlewares/STemWin/Lib/STemWin_CM7_wc32.a(FRAMEWIN.o)
 .text.FRAMEWIN_CreateEx
                0x00000000       0x28 Middlewares/STemWin/Lib/STemWin_CM7_wc32.a(FRAMEWIN.o)
 .text.FRAMEWIN_Create
                0x00000000       0x22 Middlewares/STemWin/Lib/STemWin_CM7_wc32.a(FRAMEWIN.o)
 .text.FRAMEWIN_CreateAsChild
                0x00000000       0x22 Middlewares/STemWin/Lib/STemWin_CM7_wc32.a(FRAMEWIN.o)
 .text.FRAMEWIN_SetTextAlign
                0x00000000       0x2a Middlewares/STemWin/Lib/STemWin_CM7_wc32.a(FRAMEWIN.o)
 .text.FRAMEWIN_SetMoveable
                0x00000000       0x2a Middlewares/STemWin/Lib/STemWin_CM7_wc32.a(FRAMEWIN.o)
 .text.FRAMEWIN_GetFont
                0x00000000       0x28 Middlewares/STemWin/Lib/STemWin_CM7_wc32.a(FRAMEWIN.o)
 .text.FRAMEWIN_GetTitleHeight
                0x00000000       0x30 Middlewares/STemWin/Lib/STemWin_CM7_wc32.a(FRAMEWIN.o)
 .text.FRAMEWIN_GetBorderSize
                0x00000000       0x2a Middlewares/STemWin/Lib/STemWin_CM7_wc32.a(FRAMEWIN.o)
 .text.FRAMEWIN_GetBorderSizeEx
                0x00000000       0x2c Middlewares/STemWin/Lib/STemWin_CM7_wc32.a(FRAMEWIN.o)
 .text.FRAMEWIN_GetTextAlign
                0x00000000       0x20 Middlewares/STemWin/Lib/STemWin_CM7_wc32.a(FRAMEWIN.o)
 .text.FRAMEWIN_GetText
                0x00000000       0x4c Middlewares/STemWin/Lib/STemWin_CM7_wc32.a(FRAMEWIN.o)
 .text.FRAMEWIN_GetBarColor
                0x00000000       0x26 Middlewares/STemWin/Lib/STemWin_CM7_wc32.a(FRAMEWIN.o)
 .text.FRAMEWIN_IsMinimized
                0x00000000       0x24 Middlewares/STemWin/Lib/STemWin_CM7_wc32.a(FRAMEWIN.o)
 .text.FRAMEWIN_IsMaximized
                0x00000000       0x24 Middlewares/STemWin/Lib/STemWin_CM7_wc32.a(FRAMEWIN.o)
 .text.FRAMEWIN_SetBorderSize
                0x00000000       0xa8 Middlewares/STemWin/Lib/STemWin_CM7_wc32.a(FRAMEWIN.o)
 .text.FRAMEWIN_SetBarColor
                0x00000000       0x2a Middlewares/STemWin/Lib/STemWin_CM7_wc32.a(FRAMEWIN.o)
 .text.FRAMEWIN_SetTextColor
                0x00000000       0x26 Middlewares/STemWin/Lib/STemWin_CM7_wc32.a(FRAMEWIN.o)
 .text.FRAMEWIN_SetTextColorEx
                0x00000000       0x2a Middlewares/STemWin/Lib/STemWin_CM7_wc32.a(FRAMEWIN.o)
 .text.FRAMEWIN_SetClientColor
                0x00000000       0x24 Middlewares/STemWin/Lib/STemWin_CM7_wc32.a(FRAMEWIN.o)
 .text.FRAMEWIN_SetFont
                0x00000000       0x64 Middlewares/STemWin/Lib/STemWin_CM7_wc32.a(FRAMEWIN.o)
 .text.FRAMEWIN_SetOwnerDraw
                0x00000000       0x24 Middlewares/STemWin/Lib/STemWin_CM7_wc32.a(FRAMEWIN.o)
 .text.FRAMEWIN_SetTitleHeight
                0x00000000       0x74 Middlewares/STemWin/Lib/STemWin_CM7_wc32.a(FRAMEWIN.o)
 .text.FRAMEWIN_SetTitleVis
                0x00000000       0xa0 Middlewares/STemWin/Lib/STemWin_CM7_wc32.a(FRAMEWIN.o)
 .text.FRAMEWIN_SetUserData
                0x00000000        0x6 Middlewares/STemWin/Lib/STemWin_CM7_wc32.a(FRAMEWIN.o)
 .text.FRAMEWIN_GetUserData
                0x00000000        0x6 Middlewares/STemWin/Lib/STemWin_CM7_wc32.a(FRAMEWIN.o)
 .text          0x00000000        0x0 Middlewares/STemWin/Lib/STemWin_CM7_wc32.a(FRAMEWIN_Skin.o)
 .bss           0x00000000        0x0 Middlewares/STemWin/Lib/STemWin_CM7_wc32.a(FRAMEWIN_Skin.o)
 .text.FRAMEWIN_SetSkin
                0x00000000       0x7c Middlewares/STemWin/Lib/STemWin_CM7_wc32.a(FRAMEWIN_Skin.o)
 .text.FRAMEWIN_SetDefaultSkin
                0x00000000       0x2c Middlewares/STemWin/Lib/STemWin_CM7_wc32.a(FRAMEWIN_Skin.o)
 .text          0x00000000        0x0 Middlewares/STemWin/Lib/STemWin_CM7_wc32.a(FRAMEWIN_SkinFlex.o)
 .bss           0x00000000        0x0 Middlewares/STemWin/Lib/STemWin_CM7_wc32.a(FRAMEWIN_SkinFlex.o)
 .text.FRAMEWIN_SetSkinFlexProps
                0x00000000       0x50 Middlewares/STemWin/Lib/STemWin_CM7_wc32.a(FRAMEWIN_SkinFlex.o)
 .text.FRAMEWIN_GetSkinFlexProps
                0x00000000       0x24 Middlewares/STemWin/Lib/STemWin_CM7_wc32.a(FRAMEWIN_SkinFlex.o)
 .rodata        0x00000000        0x8 Middlewares/STemWin/Lib/STemWin_CM7_wc32.a(FRAMEWIN_SkinFlex.o)
 .text          0x00000000        0x0 Middlewares/STemWin/Lib/STemWin_CM7_wc32.a(FRAMEWIN__UpdateButtons.o)
 .data          0x00000000        0x0 Middlewares/STemWin/Lib/STemWin_CM7_wc32.a(FRAMEWIN__UpdateButtons.o)
 .bss           0x00000000        0x0 Middlewares/STemWin/Lib/STemWin_CM7_wc32.a(FRAMEWIN__UpdateButtons.o)
 .text.FRAMEWIN__UpdateButtons
                0x00000000       0xea Middlewares/STemWin/Lib/STemWin_CM7_wc32.a(FRAMEWIN__UpdateButtons.o)
 .comment       0x00000000       0x6f Middlewares/STemWin/Lib/STemWin_CM7_wc32.a(FRAMEWIN__UpdateButtons.o)
 .ARM.attributes
                0x00000000       0x39 Middlewares/STemWin/Lib/STemWin_CM7_wc32.a(FRAMEWIN__UpdateButtons.o)
 .text          0x00000000        0x0 Middlewares/STemWin/Lib/STemWin_CM7_wc32.a(GUI_DRAW.o)
 .data          0x00000000        0x0 Middlewares/STemWin/Lib/STemWin_CM7_wc32.a(GUI_DRAW.o)
 .bss           0x00000000        0x0 Middlewares/STemWin/Lib/STemWin_CM7_wc32.a(GUI_DRAW.o)
 .text.GUI_DRAW__GetXSize
                0x00000000       0x24 Middlewares/STemWin/Lib/STemWin_CM7_wc32.a(GUI_DRAW.o)
 .text.GUI_DRAW__GetYSize
                0x00000000       0x24 Middlewares/STemWin/Lib/STemWin_CM7_wc32.a(GUI_DRAW.o)
 .text          0x00000000        0x0 Middlewares/STemWin/Lib/STemWin_CM7_wc32.a(MULTIEDIT.o)
 .data          0x00000000        0x0 Middlewares/STemWin/Lib/STemWin_CM7_wc32.a(MULTIEDIT.o)
 .bss           0x00000000        0x0 Middlewares/STemWin/Lib/STemWin_CM7_wc32.a(MULTIEDIT.o)
 .text._SetWrapMode.part.12
                0x00000000       0x6c Middlewares/STemWin/Lib/STemWin_CM7_wc32.a(MULTIEDIT.o)
 .text._SetFlag
                0x00000000       0x32 Middlewares/STemWin/Lib/STemWin_CM7_wc32.a(MULTIEDIT.o)
 .text.MULTIEDIT_AddKey
                0x00000000        0x8 Middlewares/STemWin/Lib/STemWin_CM7_wc32.a(MULTIEDIT.o)
 .text.MULTIEDIT_AddText
                0x00000000      0x154 Middlewares/STemWin/Lib/STemWin_CM7_wc32.a(MULTIEDIT.o)
 .text.MULTIEDIT_Create
                0x00000000       0x1c Middlewares/STemWin/Lib/STemWin_CM7_wc32.a(MULTIEDIT.o)
 .text.MULTIEDIT_CreateIndirect
                0x00000000       0x42 Middlewares/STemWin/Lib/STemWin_CM7_wc32.a(MULTIEDIT.o)
 .text.MULTIEDIT_GetText
                0x00000000       0x58 Middlewares/STemWin/Lib/STemWin_CM7_wc32.a(MULTIEDIT.o)
 .text.MULTIEDIT_GetPrompt
                0x00000000       0x50 Middlewares/STemWin/Lib/STemWin_CM7_wc32.a(MULTIEDIT.o)
 .text.MULTIEDIT_SetWrapWord
                0x00000000        0xa Middlewares/STemWin/Lib/STemWin_CM7_wc32.a(MULTIEDIT.o)
 .text.MULTIEDIT_SetWrapChar
                0x00000000        0xa Middlewares/STemWin/Lib/STemWin_CM7_wc32.a(MULTIEDIT.o)
 .text.MULTIEDIT_SetWrapNone
                0x00000000        0xa Middlewares/STemWin/Lib/STemWin_CM7_wc32.a(MULTIEDIT.o)
 .text.MULTIEDIT_SetInsertMode
                0x00000000        0x6 Middlewares/STemWin/Lib/STemWin_CM7_wc32.a(MULTIEDIT.o)
 .text.MULTIEDIT_SetReadOnly
                0x00000000        0x6 Middlewares/STemWin/Lib/STemWin_CM7_wc32.a(MULTIEDIT.o)
 .text.MULTIEDIT_SetPasswordMode
                0x00000000       0x2e Middlewares/STemWin/Lib/STemWin_CM7_wc32.a(MULTIEDIT.o)
 .text.MULTIEDIT_SetAutoScrollV
                0x00000000        0x6 Middlewares/STemWin/Lib/STemWin_CM7_wc32.a(MULTIEDIT.o)
 .text.MULTIEDIT_SetAutoScrollH
                0x00000000        0x6 Middlewares/STemWin/Lib/STemWin_CM7_wc32.a(MULTIEDIT.o)
 .text.MULTIEDIT_SetHBorder
                0x00000000       0x34 Middlewares/STemWin/Lib/STemWin_CM7_wc32.a(MULTIEDIT.o)
 .text.MULTIEDIT_SetFont
                0x00000000       0x48 Middlewares/STemWin/Lib/STemWin_CM7_wc32.a(MULTIEDIT.o)
 .text.MULTIEDIT_SetBkColor
                0x00000000       0x2e Middlewares/STemWin/Lib/STemWin_CM7_wc32.a(MULTIEDIT.o)
 .text.MULTIEDIT_SetCursorOffset
                0x00000000       0x16 Middlewares/STemWin/Lib/STemWin_CM7_wc32.a(MULTIEDIT.o)
 .text.MULTIEDIT_SetTextColor
                0x00000000       0x2e Middlewares/STemWin/Lib/STemWin_CM7_wc32.a(MULTIEDIT.o)
 .text.MULTIEDIT_SetPrompt
                0x00000000       0xec Middlewares/STemWin/Lib/STemWin_CM7_wc32.a(MULTIEDIT.o)
 .text.MULTIEDIT_SetBufferSize
                0x00000000       0x54 Middlewares/STemWin/Lib/STemWin_CM7_wc32.a(MULTIEDIT.o)
 .text.MULTIEDIT_SetMaxNumChars
                0x00000000       0x96 Middlewares/STemWin/Lib/STemWin_CM7_wc32.a(MULTIEDIT.o)
 .text.MULTIEDIT_GetTextSize
                0x00000000       0x40 Middlewares/STemWin/Lib/STemWin_CM7_wc32.a(MULTIEDIT.o)
 .text.MULTIEDIT_SetTextAlign
                0x00000000       0x5c Middlewares/STemWin/Lib/STemWin_CM7_wc32.a(MULTIEDIT.o)
 .text.MULTIEDIT_GetCursorCharPos
                0x00000000       0x20 Middlewares/STemWin/Lib/STemWin_CM7_wc32.a(MULTIEDIT.o)
 .text.MULTIEDIT_GetCursorPixelPos
                0x00000000       0x58 Middlewares/STemWin/Lib/STemWin_CM7_wc32.a(MULTIEDIT.o)
 .text.MULTIEDIT_EnableBlink
                0x00000000       0x66 Middlewares/STemWin/Lib/STemWin_CM7_wc32.a(MULTIEDIT.o)
 .text.MULTIEDIT_SetFocusable
                0x00000000       0x38 Middlewares/STemWin/Lib/STemWin_CM7_wc32.a(MULTIEDIT.o)
 .text.MULTIEDIT_SetCursorCharPos
                0x00000000       0x98 Middlewares/STemWin/Lib/STemWin_CM7_wc32.a(MULTIEDIT.o)
 .text.MULTIEDIT_SetCursorPixelPos
                0x00000000       0x2e Middlewares/STemWin/Lib/STemWin_CM7_wc32.a(MULTIEDIT.o)
 .text.MULTIEDIT_ShowCursor
                0x00000000       0x36 Middlewares/STemWin/Lib/STemWin_CM7_wc32.a(MULTIEDIT.o)
 .text.MULTIEDIT_SetUserData
                0x00000000        0x6 Middlewares/STemWin/Lib/STemWin_CM7_wc32.a(MULTIEDIT.o)
 .text.MULTIEDIT_GetUserData
                0x00000000        0x6 Middlewares/STemWin/Lib/STemWin_CM7_wc32.a(MULTIEDIT.o)
 .text.MULTIEDIT_GetBkColor
                0x00000000       0x2c Middlewares/STemWin/Lib/STemWin_CM7_wc32.a(MULTIEDIT.o)
 .text.MULTIEDIT_GetFont
                0x00000000       0x20 Middlewares/STemWin/Lib/STemWin_CM7_wc32.a(MULTIEDIT.o)
 .text.MULTIEDIT_GetTextColor
                0x00000000       0x2c Middlewares/STemWin/Lib/STemWin_CM7_wc32.a(MULTIEDIT.o)
 .text          0x00000000        0x0 Middlewares/STemWin/Lib/STemWin_CM7_wc32.a(SCROLLBAR.o)
 .bss           0x00000000        0x0 Middlewares/STemWin/Lib/STemWin_CM7_wc32.a(SCROLLBAR.o)
 .text.SCROLLBAR_Create
                0x00000000       0x14 Middlewares/STemWin/Lib/STemWin_CM7_wc32.a(SCROLLBAR.o)
 .text.SCROLLBAR_CreateIndirect
                0x00000000       0x3c Middlewares/STemWin/Lib/STemWin_CM7_wc32.a(SCROLLBAR.o)
 .text.SCROLLBAR_SetNumItems
                0x00000000       0x26 Middlewares/STemWin/Lib/STemWin_CM7_wc32.a(SCROLLBAR.o)
 .text.SCROLLBAR_SetPageSize
                0x00000000       0x26 Middlewares/STemWin/Lib/STemWin_CM7_wc32.a(SCROLLBAR.o)
 .text.SCROLLBAR_SetState
                0x00000000       0x24 Middlewares/STemWin/Lib/STemWin_CM7_wc32.a(SCROLLBAR.o)
 .text.SCROLLBAR_GetNumItems
                0x00000000       0x1e Middlewares/STemWin/Lib/STemWin_CM7_wc32.a(SCROLLBAR.o)
 .text.SCROLLBAR_GetPageSize
                0x00000000       0x1e Middlewares/STemWin/Lib/STemWin_CM7_wc32.a(SCROLLBAR.o)
 .text.SCROLLBAR_GetValue
                0x00000000       0x1e Middlewares/STemWin/Lib/STemWin_CM7_wc32.a(SCROLLBAR.o)
 .text.SCROLLBAR_SetColor
                0x00000000       0x3a Middlewares/STemWin/Lib/STemWin_CM7_wc32.a(SCROLLBAR.o)
 .text.SCROLLBAR_GetColor
                0x00000000       0x26 Middlewares/STemWin/Lib/STemWin_CM7_wc32.a(SCROLLBAR.o)
 .text.SCROLLBAR_SetWidth
                0x00000000       0x1a Middlewares/STemWin/Lib/STemWin_CM7_wc32.a(SCROLLBAR.o)
 .text.SCROLLBAR_SetUserData
                0x00000000        0x6 Middlewares/STemWin/Lib/STemWin_CM7_wc32.a(SCROLLBAR.o)
 .text.SCROLLBAR_GetUserData
                0x00000000        0x6 Middlewares/STemWin/Lib/STemWin_CM7_wc32.a(SCROLLBAR.o)
 .text          0x00000000        0x0 Middlewares/STemWin/Lib/STemWin_CM7_wc32.a(SCROLLBAR_Skin.o)
 .bss           0x00000000        0x0 Middlewares/STemWin/Lib/STemWin_CM7_wc32.a(SCROLLBAR_Skin.o)
 .text.SCROLLBAR_SetSkin
                0x00000000       0x38 Middlewares/STemWin/Lib/STemWin_CM7_wc32.a(SCROLLBAR_Skin.o)
 .text.SCROLLBAR_SetDefaultSkin
                0x00000000       0x1c Middlewares/STemWin/Lib/STemWin_CM7_wc32.a(SCROLLBAR_Skin.o)
 .text          0x00000000        0x0 Middlewares/STemWin/Lib/STemWin_CM7_wc32.a(SCROLLBAR_SkinFlex.o)
 .bss           0x00000000        0x0 Middlewares/STemWin/Lib/STemWin_CM7_wc32.a(SCROLLBAR_SkinFlex.o)
 .text.SCROLLBAR_SetSkinFlexProps
                0x00000000       0x24 Middlewares/STemWin/Lib/STemWin_CM7_wc32.a(SCROLLBAR_SkinFlex.o)
 .text.SCROLLBAR_GetSkinFlexProps
                0x00000000       0x24 Middlewares/STemWin/Lib/STemWin_CM7_wc32.a(SCROLLBAR_SkinFlex.o)
 .rodata        0x00000000        0x8 Middlewares/STemWin/Lib/STemWin_CM7_wc32.a(SCROLLBAR_SkinFlex.o)
 .text          0x00000000        0x0 Middlewares/STemWin/Lib/STemWin_CM7_wc32.a(TEXT.o)
 .bss           0x00000000        0x0 Middlewares/STemWin/Lib/STemWin_CM7_wc32.a(TEXT.o)
 .text.TEXT_Create
                0x00000000       0x20 Middlewares/STemWin/Lib/STemWin_CM7_wc32.a(TEXT.o)
 .text.TEXT_CreateAsChild
                0x00000000       0x18 Middlewares/STemWin/Lib/STemWin_CM7_wc32.a(TEXT.o)
 .text.TEXT_CreateIndirect
                0x00000000       0x40 Middlewares/STemWin/Lib/STemWin_CM7_wc32.a(TEXT.o)
 .text.TEXT_GetText
                0x00000000       0x5c Middlewares/STemWin/Lib/STemWin_CM7_wc32.a(TEXT.o)
 .text.TEXT_GetTextAlign
                0x00000000       0x24 Middlewares/STemWin/Lib/STemWin_CM7_wc32.a(TEXT.o)
 .text.TEXT_GetTextColor
                0x00000000       0x22 Middlewares/STemWin/Lib/STemWin_CM7_wc32.a(TEXT.o)
 .text.TEXT_GetFont
                0x00000000       0x1e Middlewares/STemWin/Lib/STemWin_CM7_wc32.a(TEXT.o)
 .text.TEXT_GetWrapMode
                0x00000000       0x22 Middlewares/STemWin/Lib/STemWin_CM7_wc32.a(TEXT.o)
 .text.TEXT_GetBkColor
                0x00000000       0x22 Middlewares/STemWin/Lib/STemWin_CM7_wc32.a(TEXT.o)
 .text.TEXT_SetBkColor
                0x00000000       0x38 Middlewares/STemWin/Lib/STemWin_CM7_wc32.a(TEXT.o)
 .text.TEXT_SetFont
                0x00000000       0x26 Middlewares/STemWin/Lib/STemWin_CM7_wc32.a(TEXT.o)
 .text.TEXT_SetText
                0x00000000       0x52 Middlewares/STemWin/Lib/STemWin_CM7_wc32.a(TEXT.o)
 .text.TEXT_SetTextAlign
                0x00000000       0x26 Middlewares/STemWin/Lib/STemWin_CM7_wc32.a(TEXT.o)
 .text.TEXT_SetTextColor
                0x00000000       0x26 Middlewares/STemWin/Lib/STemWin_CM7_wc32.a(TEXT.o)
 .text.TEXT_SetWrapMode
                0x00000000       0x2a Middlewares/STemWin/Lib/STemWin_CM7_wc32.a(TEXT.o)
 .text.TEXT_GetNumLines
                0x00000000       0x3c Middlewares/STemWin/Lib/STemWin_CM7_wc32.a(TEXT.o)
 .text.TEXT_SetDec
                0x00000000       0xe8 Middlewares/STemWin/Lib/STemWin_CM7_wc32.a(TEXT.o)
 .text.TEXT_SetUserData
                0x00000000        0x6 Middlewares/STemWin/Lib/STemWin_CM7_wc32.a(TEXT.o)
 .text.TEXT_GetUserData
                0x00000000        0x6 Middlewares/STemWin/Lib/STemWin_CM7_wc32.a(TEXT.o)
 .rodata.str1.1
                0x00000000        0xd Middlewares/STemWin/Lib/STemWin_CM7_wc32.a(TEXT.o)
 .text          0x00000000        0x0 Middlewares/STemWin/Lib/STemWin_CM7_wc32.a(WIDGET.o)
 .bss           0x00000000        0x0 Middlewares/STemWin/Lib/STemWin_CM7_wc32.a(WIDGET.o)
 .text.WIDGET__GetBkColor
                0x00000000       0x1c Middlewares/STemWin/Lib/STemWin_CM7_wc32.a(WIDGET.o)
 .text.WIDGET__GetXSize
                0x00000000       0x1c Middlewares/STemWin/Lib/STemWin_CM7_wc32.a(WIDGET.o)
 .text.WIDGET__GetYSize
                0x00000000       0x1c Middlewares/STemWin/Lib/STemWin_CM7_wc32.a(WIDGET.o)
 .text.WIDGET__GetWindowSizeX
                0x00000000       0x2a Middlewares/STemWin/Lib/STemWin_CM7_wc32.a(WIDGET.o)
 .text.WIDGET__FillStringInRect
                0x00000000      0x10c Middlewares/STemWin/Lib/STemWin_CM7_wc32.a(WIDGET.o)
 .text.WIDGET_GetState
                0x00000000       0x1e Middlewares/STemWin/Lib/STemWin_CM7_wc32.a(WIDGET.o)
 .text.WIDGET_SetFocusable
                0x00000000        0xe Middlewares/STemWin/Lib/STemWin_CM7_wc32.a(WIDGET.o)
 .text.WIDGET__DrawFocusRect
                0x00000000       0x22 Middlewares/STemWin/Lib/STemWin_CM7_wc32.a(WIDGET.o)
 .text.WIDGET__DrawVLine
                0x00000000       0x44 Middlewares/STemWin/Lib/STemWin_CM7_wc32.a(WIDGET.o)
 .text.WIDGET__DrawHLine
                0x00000000       0x44 Middlewares/STemWin/Lib/STemWin_CM7_wc32.a(WIDGET.o)
 .text.WIDGET__FillRectEx
                0x00000000       0x1e Middlewares/STemWin/Lib/STemWin_CM7_wc32.a(WIDGET.o)
 .text.WIDGET__EFFECT_DrawUpRect
                0x00000000       0x2c Middlewares/STemWin/Lib/STemWin_CM7_wc32.a(WIDGET.o)
 .text.WIDGET_SetDefaultEffect
                0x00000000       0x10 Middlewares/STemWin/Lib/STemWin_CM7_wc32.a(WIDGET.o)
 .text.WIDGET_GetDefaultEffect
                0x00000000        0xc Middlewares/STemWin/Lib/STemWin_CM7_wc32.a(WIDGET.o)
 .text.WIDGET_SetEffect
                0x00000000       0x1a Middlewares/STemWin/Lib/STemWin_CM7_wc32.a(WIDGET.o)
 .text.WIDGET_SetWidth
                0x00000000       0x32 Middlewares/STemWin/Lib/STemWin_CM7_wc32.a(WIDGET.o)
 .text          0x00000000        0x0 Middlewares/STemWin/Lib/STemWin_CM7_wc32.a(WIDGET_Effect_Simple.o)
 .data          0x00000000        0x0 Middlewares/STemWin/Lib/STemWin_CM7_wc32.a(WIDGET_Effect_Simple.o)
 .text.WIDGET_EFFECT_Simple_SetColor
                0x00000000        0xc Middlewares/STemWin/Lib/STemWin_CM7_wc32.a(WIDGET_Effect_Simple.o)
 .text.WIDGET_EFFECT_Simple_GetColor
                0x00000000       0x10 Middlewares/STemWin/Lib/STemWin_CM7_wc32.a(WIDGET_Effect_Simple.o)
 .text.WIDGET_EFFECT_Simple_GetNumColors
                0x00000000        0x4 Middlewares/STemWin/Lib/STemWin_CM7_wc32.a(WIDGET_Effect_Simple.o)
 .text          0x00000000        0x0 Middlewares/STemWin/Lib/STemWin_CM7_wc32.a(GUICC_0.o)
 .data          0x00000000        0x0 Middlewares/STemWin/Lib/STemWin_CM7_wc32.a(GUICC_0.o)
 .bss           0x00000000        0x0 Middlewares/STemWin/Lib/STemWin_CM7_wc32.a(GUICC_0.o)
 .text.LCD_SetLUTEx
                0x00000000       0x22 Middlewares/STemWin/Lib/STemWin_CM7_wc32.a(GUICC_0.o)
 .text.LCD_SetLUT
                0x00000000       0x10 Middlewares/STemWin/Lib/STemWin_CM7_wc32.a(GUICC_0.o)
 .text          0x00000000        0x0 Middlewares/STemWin/Lib/STemWin_CM7_wc32.a(GUICC_8888_Index2Color.o)
 .data          0x00000000        0x0 Middlewares/STemWin/Lib/STemWin_CM7_wc32.a(GUICC_8888_Index2Color.o)
 .bss           0x00000000        0x0 Middlewares/STemWin/Lib/STemWin_CM7_wc32.a(GUICC_8888_Index2Color.o)
 .text          0x00000000        0x0 Middlewares/STemWin/Lib/STemWin_CM7_wc32.a(GUI_2DLib.o)
 .data          0x00000000        0x0 Middlewares/STemWin/Lib/STemWin_CM7_wc32.a(GUI_2DLib.o)
 .bss           0x00000000        0x0 Middlewares/STemWin/Lib/STemWin_CM7_wc32.a(GUI_2DLib.o)
 .text.GUI_MoveRel
                0x00000000       0x18 Middlewares/STemWin/Lib/STemWin_CM7_wc32.a(GUI_2DLib.o)
 .text.GL_MoveTo
                0x00000000       0x10 Middlewares/STemWin/Lib/STemWin_CM7_wc32.a(GUI_2DLib.o)
 .text.GUI_MoveTo
                0x00000000       0x18 Middlewares/STemWin/Lib/STemWin_CM7_wc32.a(GUI_2DLib.o)
 .text.GUI_DrawRectEx
                0x00000000       0x14 Middlewares/STemWin/Lib/STemWin_CM7_wc32.a(GUI_2DLib.o)
 .text          0x00000000        0x0 Middlewares/STemWin/Lib/STemWin_CM7_wc32.a(GUI_Char.o)
 .data          0x00000000        0x0 Middlewares/STemWin/Lib/STemWin_CM7_wc32.a(GUI_Char.o)
 .bss           0x00000000        0x0 Middlewares/STemWin/Lib/STemWin_CM7_wc32.a(GUI_Char.o)
 .text          0x00000000        0x0 Middlewares/STemWin/Lib/STemWin_CM7_wc32.a(GUI_CharLine.o)
 .bss           0x00000000        0x0 Middlewares/STemWin/Lib/STemWin_CM7_wc32.a(GUI_CharLine.o)
 .text          0x00000000        0x0 Middlewares/STemWin/Lib/STemWin_CM7_wc32.a(GUI_CharM.o)
 .data          0x00000000        0x0 Middlewares/STemWin/Lib/STemWin_CM7_wc32.a(GUI_CharM.o)
 .bss           0x00000000        0x0 Middlewares/STemWin/Lib/STemWin_CM7_wc32.a(GUI_CharM.o)
 .text          0x00000000        0x0 Middlewares/STemWin/Lib/STemWin_CM7_wc32.a(GUI_Cursor.o)
 .data          0x00000000        0x0 Middlewares/STemWin/Lib/STemWin_CM7_wc32.a(GUI_Cursor.o)
 .bss           0x00000000       0x4c Middlewares/STemWin/Lib/STemWin_CM7_wc32.a(GUI_Cursor.o)
 .text._OnExit  0x00000000       0x18 Middlewares/STemWin/Lib/STemWin_CM7_wc32.a(GUI_Cursor.o)
 .text._Show    0x00000000       0x30 Middlewares/STemWin/Lib/STemWin_CM7_wc32.a(GUI_Cursor.o)
 .text.GUI_CURSOR__SetSpriteEx
                0x00000000       0x14 Middlewares/STemWin/Lib/STemWin_CM7_wc32.a(GUI_Cursor.o)
 .text.GUI_CURSOR__GetSpriteEx
                0x00000000       0x1c Middlewares/STemWin/Lib/STemWin_CM7_wc32.a(GUI_Cursor.o)
 .text.GUI_CURSOR_SelectEx
                0x00000000       0xc4 Middlewares/STemWin/Lib/STemWin_CM7_wc32.a(GUI_Cursor.o)
 .text.GUI_CURSOR_SetBitmapEx
                0x00000000       0x4c Middlewares/STemWin/Lib/STemWin_CM7_wc32.a(GUI_Cursor.o)
 .text.GUI_CURSOR_SetBitmap
                0x00000000       0x10 Middlewares/STemWin/Lib/STemWin_CM7_wc32.a(GUI_Cursor.o)
 .text.GUI_CURSOR_HideEx
                0x00000000       0x50 Middlewares/STemWin/Lib/STemWin_CM7_wc32.a(GUI_Cursor.o)
 .text.GUI_CURSOR_ShowEx
                0x00000000       0x24 Middlewares/STemWin/Lib/STemWin_CM7_wc32.a(GUI_Cursor.o)
 .text.GUI_CURSOR_GetStateEx
                0x00000000       0x10 Middlewares/STemWin/Lib/STemWin_CM7_wc32.a(GUI_Cursor.o)
 .text.GUI_CURSOR_SetPositionEx
                0x00000000       0x64 Middlewares/STemWin/Lib/STemWin_CM7_wc32.a(GUI_Cursor.o)
 .text.GUI_CURSOR_Select
                0x00000000       0x10 Middlewares/STemWin/Lib/STemWin_CM7_wc32.a(GUI_Cursor.o)
 .text.GUI_CURSOR_Hide
                0x00000000       0x10 Middlewares/STemWin/Lib/STemWin_CM7_wc32.a(GUI_Cursor.o)
 .text.GUI_CURSOR_Show
                0x00000000       0x10 Middlewares/STemWin/Lib/STemWin_CM7_wc32.a(GUI_Cursor.o)
 .text.GUI_CURSOR_GetState
                0x00000000       0x1c Middlewares/STemWin/Lib/STemWin_CM7_wc32.a(GUI_Cursor.o)
 .text.GUI_CURSOR_SetPosition
                0x00000000       0x10 Middlewares/STemWin/Lib/STemWin_CM7_wc32.a(GUI_Cursor.o)
 .text.GUI_CURSOR_SelectAnimEx
                0x00000000       0x70 Middlewares/STemWin/Lib/STemWin_CM7_wc32.a(GUI_Cursor.o)
 .text.GUI_CURSOR_SelectAnim
                0x00000000       0x10 Middlewares/STemWin/Lib/STemWin_CM7_wc32.a(GUI_Cursor.o)
 .comment       0x00000000       0x6f Middlewares/STemWin/Lib/STemWin_CM7_wc32.a(GUI_Cursor.o)
 .ARM.attributes
                0x00000000       0x39 Middlewares/STemWin/Lib/STemWin_CM7_wc32.a(GUI_Cursor.o)
 .text          0x00000000        0x0 Middlewares/STemWin/Lib/STemWin_CM7_wc32.a(GUI_CursorResource.o)
 .data          0x00000000       0x3c Middlewares/STemWin/Lib/STemWin_CM7_wc32.a(GUI_CursorResource.o)
 .bss           0x00000000        0x0 Middlewares/STemWin/Lib/STemWin_CM7_wc32.a(GUI_CursorResource.o)
 .rodata        0x00000000     0x1484 Middlewares/STemWin/Lib/STemWin_CM7_wc32.a(GUI_CursorResource.o)
 .comment       0x00000000       0x6f Middlewares/STemWin/Lib/STemWin_CM7_wc32.a(GUI_CursorResource.o)
 .ARM.attributes
                0x00000000       0x39 Middlewares/STemWin/Lib/STemWin_CM7_wc32.a(GUI_CursorResource.o)
 .text          0x00000000        0x0 Middlewares/STemWin/Lib/STemWin_CM7_wc32.a(GUI_DispChar.o)
 .data          0x00000000        0x0 Middlewares/STemWin/Lib/STemWin_CM7_wc32.a(GUI_DispChar.o)
 .bss           0x00000000        0x0 Middlewares/STemWin/Lib/STemWin_CM7_wc32.a(GUI_DispChar.o)
 .text.GUI_DispChar
                0x00000000        0x4 Middlewares/STemWin/Lib/STemWin_CM7_wc32.a(GUI_DispChar.o)
 .text          0x00000000        0x0 Middlewares/STemWin/Lib/STemWin_CM7_wc32.a(GUI_DrawBitmap.o)
 .data          0x00000000        0x0 Middlewares/STemWin/Lib/STemWin_CM7_wc32.a(GUI_DrawBitmap.o)
 .bss           0x00000000        0x0 Middlewares/STemWin/Lib/STemWin_CM7_wc32.a(GUI_DrawBitmap.o)
 .text.GL_DrawBitmap
                0x00000000       0xa8 Middlewares/STemWin/Lib/STemWin_CM7_wc32.a(GUI_DrawBitmap.o)
 .text.GUI_PreserveTrans
                0x00000000       0x24 Middlewares/STemWin/Lib/STemWin_CM7_wc32.a(GUI_DrawBitmap.o)
 .text.GUI_DrawBitmap
                0x00000000       0x4c Middlewares/STemWin/Lib/STemWin_CM7_wc32.a(GUI_DrawBitmap.o)
 .comment       0x00000000       0x6f Middlewares/STemWin/Lib/STemWin_CM7_wc32.a(GUI_DrawBitmap.o)
 .ARM.attributes
                0x00000000       0x39 Middlewares/STemWin/Lib/STemWin_CM7_wc32.a(GUI_DrawBitmap.o)
 .text          0x00000000        0x0 Middlewares/STemWin/Lib/STemWin_CM7_wc32.a(GUI_DrawGradient.o)
 .data          0x00000000        0x0 Middlewares/STemWin/Lib/STemWin_CM7_wc32.a(GUI_DrawGradient.o)
 .bss           0x00000000        0x0 Middlewares/STemWin/Lib/STemWin_CM7_wc32.a(GUI_DrawGradient.o)
 .text          0x00000000        0x0 Middlewares/STemWin/Lib/STemWin_CM7_wc32.a(GUI_DrawLib.o)
 .data          0x00000000        0x0 Middlewares/STemWin/Lib/STemWin_CM7_wc32.a(GUI_DrawLib.o)
 .bss           0x00000000        0x0 Middlewares/STemWin/Lib/STemWin_CM7_wc32.a(GUI_DrawLib.o)
 .text.GUI_DrawPie
                0x00000000       0x60 Middlewares/STemWin/Lib/STemWin_CM7_wc32.a(GUI_DrawLib.o)
 .text.GL_DrawPoint
                0x00000000       0x20 Middlewares/STemWin/Lib/STemWin_CM7_wc32.a(GUI_DrawLib.o)
 .text.GUI_DrawPoint
                0x00000000       0x30 Middlewares/STemWin/Lib/STemWin_CM7_wc32.a(GUI_DrawLib.o)
 .text.GL_DrawPolygon
                0x00000000       0x62 Middlewares/STemWin/Lib/STemWin_CM7_wc32.a(GUI_DrawLib.o)
 .text.GUI_DrawPolygon
                0x00000000       0x40 Middlewares/STemWin/Lib/STemWin_CM7_wc32.a(GUI_DrawLib.o)
 .text.GUI_DrawPolyLine
                0x00000000       0x6c Middlewares/STemWin/Lib/STemWin_CM7_wc32.a(GUI_DrawLib.o)
 .text.GUI_InvertRect
                0x00000000       0x60 Middlewares/STemWin/Lib/STemWin_CM7_wc32.a(GUI_DrawLib.o)
 .text.GUI_DrawBitmapExp
                0x00000000       0xb0 Middlewares/STemWin/Lib/STemWin_CM7_wc32.a(GUI_DrawLib.o)
 .text.GUI_DrawBitmapHWAlpha
                0x00000000       0x70 Middlewares/STemWin/Lib/STemWin_CM7_wc32.a(GUI_DrawLib.o)
 .text.GUI_DrawBitmapMag
                0x00000000       0xf4 Middlewares/STemWin/Lib/STemWin_CM7_wc32.a(GUI_DrawLib.o)
 .text.GUI_DrawFocusRect
                0x00000000       0x9c Middlewares/STemWin/Lib/STemWin_CM7_wc32.a(GUI_DrawLib.o)
 .text          0x00000000        0x0 Middlewares/STemWin/Lib/STemWin_CM7_wc32.a(GUI_DrawLine.o)
 .data          0x00000000        0x0 Middlewares/STemWin/Lib/STemWin_CM7_wc32.a(GUI_DrawLine.o)
 .bss           0x00000000        0x0 Middlewares/STemWin/Lib/STemWin_CM7_wc32.a(GUI_DrawLine.o)
 .text._SetLineColor
                0x00000000       0x90 Middlewares/STemWin/Lib/STemWin_CM7_wc32.a(GUI_DrawLine.o)
 .text.GUI_sin  0x00000000       0x5c Middlewares/STemWin/Lib/STemWin_CM7_wc32.a(GUI_DrawLine.o)
 .text.GUI_cos  0x00000000        0x8 Middlewares/STemWin/Lib/STemWin_CM7_wc32.a(GUI_DrawLine.o)
 .text.GL_DrawLine1Ex
                0x00000000      0x1ac Middlewares/STemWin/Lib/STemWin_CM7_wc32.a(GUI_DrawLine.o)
 .text.GL_DrawLine1
                0x00000000       0x16 Middlewares/STemWin/Lib/STemWin_CM7_wc32.a(GUI_DrawLine.o)
 .text.GL_DrawLineEx
                0x00000000      0x1b0 Middlewares/STemWin/Lib/STemWin_CM7_wc32.a(GUI_DrawLine.o)
 .text.GL_DrawLine
                0x00000000       0x16 Middlewares/STemWin/Lib/STemWin_CM7_wc32.a(GUI_DrawLine.o)
 .text.GUI_DrawLine
                0x00000000       0x44 Middlewares/STemWin/Lib/STemWin_CM7_wc32.a(GUI_DrawLine.o)
 .text.GUI_DrawLineRel
                0x00000000       0x3c Middlewares/STemWin/Lib/STemWin_CM7_wc32.a(GUI_DrawLine.o)
 .text.GL_DrawLineToEx
                0x00000000       0x2c Middlewares/STemWin/Lib/STemWin_CM7_wc32.a(GUI_DrawLine.o)
 .text.GL_DrawLineTo
                0x00000000       0x14 Middlewares/STemWin/Lib/STemWin_CM7_wc32.a(GUI_DrawLine.o)
 .text.GUI_DrawLineTo
                0x00000000       0x40 Middlewares/STemWin/Lib/STemWin_CM7_wc32.a(GUI_DrawLine.o)
 .rodata        0x00000000       0x44 Middlewares/STemWin/Lib/STemWin_CM7_wc32.a(GUI_DrawLine.o)
 .comment       0x00000000       0x6f Middlewares/STemWin/Lib/STemWin_CM7_wc32.a(GUI_DrawLine.o)
 .ARM.attributes
                0x00000000       0x39 Middlewares/STemWin/Lib/STemWin_CM7_wc32.a(GUI_DrawLine.o)
 .text          0x00000000        0x0 Middlewares/STemWin/Lib/STemWin_CM7_wc32.a(GUI_FillPolygon.o)
 .data          0x00000000        0x0 Middlewares/STemWin/Lib/STemWin_CM7_wc32.a(GUI_FillPolygon.o)
 .bss           0x00000000       0x1c Middlewares/STemWin/Lib/STemWin_CM7_wc32.a(GUI_FillPolygon.o)
 .text._Add     0x00000000       0x40 Middlewares/STemWin/Lib/STemWin_CM7_wc32.a(GUI_FillPolygon.o)
 .text.GL_FillPolygon
                0x00000000      0x1d0 Middlewares/STemWin/Lib/STemWin_CM7_wc32.a(GUI_FillPolygon.o)
 .text.GUI_FillPolygon
                0x00000000       0x74 Middlewares/STemWin/Lib/STemWin_CM7_wc32.a(GUI_FillPolygon.o)
 .comment       0x00000000       0x6f Middlewares/STemWin/Lib/STemWin_CM7_wc32.a(GUI_FillPolygon.o)
 .ARM.attributes
                0x00000000       0x39 Middlewares/STemWin/Lib/STemWin_CM7_wc32.a(GUI_FillPolygon.o)
 .text          0x00000000        0x0 Middlewares/STemWin/Lib/STemWin_CM7_wc32.a(GUI_PID.o)
 .data          0x00000000        0x8 Middlewares/STemWin/Lib/STemWin_CM7_wc32.a(GUI_PID.o)
 .bss           0x00000000       0x58 Middlewares/STemWin/Lib/STemWin_CM7_wc32.a(GUI_PID.o)
 .text._OnExit  0x00000000       0x18 Middlewares/STemWin/Lib/STemWin_CM7_wc32.a(GUI_PID.o)
 .text.GUI_PID__SetHook
                0x00000000        0xc Middlewares/STemWin/Lib/STemWin_CM7_wc32.a(GUI_PID.o)
 .text.GUI_PID_GetState
                0x00000000       0x50 Middlewares/STemWin/Lib/STemWin_CM7_wc32.a(GUI_PID.o)
 .text.GUI_PID_GetCurrentState
                0x00000000       0x24 Middlewares/STemWin/Lib/STemWin_CM7_wc32.a(GUI_PID.o)
 .text.GUI_PID_IsPressed
                0x00000000       0x1c Middlewares/STemWin/Lib/STemWin_CM7_wc32.a(GUI_PID.o)
 .text.GUI_PID_StoreState
                0x00000000       0xb8 Middlewares/STemWin/Lib/STemWin_CM7_wc32.a(GUI_PID.o)
 .text.GUI_PID_IsEmpty
                0x00000000       0x10 Middlewares/STemWin/Lib/STemWin_CM7_wc32.a(GUI_PID.o)
 .text.GUI_PID_SetHook
                0x00000000        0xc Middlewares/STemWin/Lib/STemWin_CM7_wc32.a(GUI_PID.o)
 .comment       0x00000000       0x6f Middlewares/STemWin/Lib/STemWin_CM7_wc32.a(GUI_PID.o)
 .ARM.attributes
                0x00000000       0x39 Middlewares/STemWin/Lib/STemWin_CM7_wc32.a(GUI_PID.o)
 .text          0x00000000        0x0 Middlewares/STemWin/Lib/STemWin_CM7_wc32.a(GUI_SPRITE.o)
 .data          0x00000000        0x0 Middlewares/STemWin/Lib/STemWin_CM7_wc32.a(GUI_SPRITE.o)
 .bss           0x00000000        0x0 Middlewares/STemWin/Lib/STemWin_CM7_wc32.a(GUI_SPRITE.o)
 .text._GetClipRect
                0x00000000       0xec Middlewares/STemWin/Lib/STemWin_CM7_wc32.a(GUI_SPRITE.o)
 .text._GetClipParam
                0x00000000      0x132 Middlewares/STemWin/Lib/STemWin_CM7_wc32.a(GUI_SPRITE.o)
 .text._GetDevData
                0x00000000        0x4 Middlewares/STemWin/Lib/STemWin_CM7_wc32.a(GUI_SPRITE.o)
 .text._SetOrg  0x00000000        0xc Middlewares/STemWin/Lib/STemWin_CM7_wc32.a(GUI_SPRITE.o)
 .text._GetDevFunc
                0x00000000       0x28 Middlewares/STemWin/Lib/STemWin_CM7_wc32.a(GUI_SPRITE.o)
 .text._GetDevProp
                0x00000000        0xc Middlewares/STemWin/Lib/STemWin_CM7_wc32.a(GUI_SPRITE.o)
 .text._GetRect
                0x00000000        0xc Middlewares/STemWin/Lib/STemWin_CM7_wc32.a(GUI_SPRITE.o)
 .text._PixelExists
                0x00000000       0x44 Middlewares/STemWin/Lib/STemWin_CM7_wc32.a(GUI_SPRITE.o)
 .text._GetPixelIndex
                0x00000000       0x64 Middlewares/STemWin/Lib/STemWin_CM7_wc32.a(GUI_SPRITE.o)
 .text._XorPixel
                0x00000000       0xe0 Middlewares/STemWin/Lib/STemWin_CM7_wc32.a(GUI_SPRITE.o)
 .text._SetPixelIndex
                0x00000000       0xcc Middlewares/STemWin/Lib/STemWin_CM7_wc32.a(GUI_SPRITE.o)
 .text._FillRect
                0x00000000      0x1ec Middlewares/STemWin/Lib/STemWin_CM7_wc32.a(GUI_SPRITE.o)
 .text._DrawVLine
                0x00000000      0x1c0 Middlewares/STemWin/Lib/STemWin_CM7_wc32.a(GUI_SPRITE.o)
 .text._DrawHLine
                0x00000000      0x1d8 Middlewares/STemWin/Lib/STemWin_CM7_wc32.a(GUI_SPRITE.o)
 .text._DrawBitmap
                0x00000000      0x3e4 Middlewares/STemWin/Lib/STemWin_CM7_wc32.a(GUI_SPRITE.o)
 .text._Link    0x00000000       0x1c Middlewares/STemWin/Lib/STemWin_CM7_wc32.a(GUI_SPRITE.o)
 .text._CreateBuffer
                0x00000000       0xa4 Middlewares/STemWin/Lib/STemWin_CM7_wc32.a(GUI_SPRITE.o)
 .text._Unlink  0x00000000       0x1c Middlewares/STemWin/Lib/STemWin_CM7_wc32.a(GUI_SPRITE.o)
 .text._GetBkIndex.isra.0
                0x00000000       0x70 Middlewares/STemWin/Lib/STemWin_CM7_wc32.a(GUI_SPRITE.o)
 .text._GetBkIndexAlpha.isra.2
                0x00000000       0x7a Middlewares/STemWin/Lib/STemWin_CM7_wc32.a(GUI_SPRITE.o)
 .text._DoColorConversion.isra.3
                0x00000000       0x8c Middlewares/STemWin/Lib/STemWin_CM7_wc32.a(GUI_SPRITE.o)
 .text._GetDeviceRect
                0x00000000       0x3c Middlewares/STemWin/Lib/STemWin_CM7_wc32.a(GUI_SPRITE.o)
 .text._FlushBuffer.isra.5
                0x00000000       0x7a Middlewares/STemWin/Lib/STemWin_CM7_wc32.a(GUI_SPRITE.o)
 .text._SetBkIndexBuffered
                0x00000000       0x44 Middlewares/STemWin/Lib/STemWin_CM7_wc32.a(GUI_SPRITE.o)
 .text._ReleaseBuffer.isra.6
                0x00000000       0x1e Middlewares/STemWin/Lib/STemWin_CM7_wc32.a(GUI_SPRITE.o)
 .text._SpriteDraw
                0x00000000      0x1e8 Middlewares/STemWin/Lib/STemWin_CM7_wc32.a(GUI_SPRITE.o)
 .text._Undraw  0x00000000       0xf0 Middlewares/STemWin/Lib/STemWin_CM7_wc32.a(GUI_SPRITE.o)
 .text.GUI_SPRITE__CreateEx
                0x00000000       0xc0 Middlewares/STemWin/Lib/STemWin_CM7_wc32.a(GUI_SPRITE.o)
 .text.GUI_SPRITE__SetCallback
                0x00000000       0x20 Middlewares/STemWin/Lib/STemWin_CM7_wc32.a(GUI_SPRITE.o)
 .text.GUI_SPRITE_CreateEx
                0x00000000        0xe Middlewares/STemWin/Lib/STemWin_CM7_wc32.a(GUI_SPRITE.o)
 .text.GUI_SPRITE_Create
                0x00000000       0x10 Middlewares/STemWin/Lib/STemWin_CM7_wc32.a(GUI_SPRITE.o)
 .text.GUI_SPRITE_CreateHiddenEx
                0x00000000        0xe Middlewares/STemWin/Lib/STemWin_CM7_wc32.a(GUI_SPRITE.o)
 .text.GUI_SPRITE_CreateHidden
                0x00000000       0x10 Middlewares/STemWin/Lib/STemWin_CM7_wc32.a(GUI_SPRITE.o)
 .text.GUI_SPRITE_Delete
                0x00000000       0x42 Middlewares/STemWin/Lib/STemWin_CM7_wc32.a(GUI_SPRITE.o)
 .text.GUI_SPRITE_SetPosition
                0x00000000      0x4b8 Middlewares/STemWin/Lib/STemWin_CM7_wc32.a(GUI_SPRITE.o)
 .text.GUI_SPRITE_SetBitmap
                0x00000000      0x270 Middlewares/STemWin/Lib/STemWin_CM7_wc32.a(GUI_SPRITE.o)
 .text.GUI_SPRITE_SetBitmapAndPosition
                0x00000000      0x488 Middlewares/STemWin/Lib/STemWin_CM7_wc32.a(GUI_SPRITE.o)
 .text.GUI_SPRITE_Hide
                0x00000000       0x32 Middlewares/STemWin/Lib/STemWin_CM7_wc32.a(GUI_SPRITE.o)
 .text.GUI_SPRITE_Show
                0x00000000       0x42 Middlewares/STemWin/Lib/STemWin_CM7_wc32.a(GUI_SPRITE.o)
 .text.GUI_SPRITE_GetState
                0x00000000       0x22 Middlewares/STemWin/Lib/STemWin_CM7_wc32.a(GUI_SPRITE.o)
 .rodata        0x00000000       0x34 Middlewares/STemWin/Lib/STemWin_CM7_wc32.a(GUI_SPRITE.o)
 .comment       0x00000000       0x6f Middlewares/STemWin/Lib/STemWin_CM7_wc32.a(GUI_SPRITE.o)
 .ARM.attributes
                0x00000000       0x39 Middlewares/STemWin/Lib/STemWin_CM7_wc32.a(GUI_SPRITE.o)
 .text          0x00000000        0x0 Middlewares/STemWin/Lib/STemWin_CM7_wc32.a(GUI_SPRITE_Anim.o)
 .data          0x00000000        0x0 Middlewares/STemWin/Lib/STemWin_CM7_wc32.a(GUI_SPRITE_Anim.o)
 .bss           0x00000000        0x0 Middlewares/STemWin/Lib/STemWin_CM7_wc32.a(GUI_SPRITE_Anim.o)
 .text._CreateTimer
                0x00000000       0x5c Middlewares/STemWin/Lib/STemWin_CM7_wc32.a(GUI_SPRITE_Anim.o)
 .text._cbSprite
                0x00000000       0x62 Middlewares/STemWin/Lib/STemWin_CM7_wc32.a(GUI_SPRITE_Anim.o)
 .text._cbTimer
                0x00000000       0x98 Middlewares/STemWin/Lib/STemWin_CM7_wc32.a(GUI_SPRITE_Anim.o)
 .text.GUI_SPRITE_CreateExAnim
                0x00000000       0x84 Middlewares/STemWin/Lib/STemWin_CM7_wc32.a(GUI_SPRITE_Anim.o)
 .text.GUI_SPRITE_CreateAnim
                0x00000000       0x20 Middlewares/STemWin/Lib/STemWin_CM7_wc32.a(GUI_SPRITE_Anim.o)
 .text.GUI_SPRITE_StopAnim
                0x00000000       0x44 Middlewares/STemWin/Lib/STemWin_CM7_wc32.a(GUI_SPRITE_Anim.o)
 .text.GUI_SPRITE_StartAnim
                0x00000000       0x46 Middlewares/STemWin/Lib/STemWin_CM7_wc32.a(GUI_SPRITE_Anim.o)
 .text.GUI_SPRITE_SetLoop
                0x00000000       0x4a Middlewares/STemWin/Lib/STemWin_CM7_wc32.a(GUI_SPRITE_Anim.o)
 .comment       0x00000000       0x6f Middlewares/STemWin/Lib/STemWin_CM7_wc32.a(GUI_SPRITE_Anim.o)
 .ARM.attributes
                0x00000000       0x39 Middlewares/STemWin/Lib/STemWin_CM7_wc32.a(GUI_SPRITE_Anim.o)
 .text          0x00000000        0x0 Middlewares/STemWin/Lib/STemWin_CM7_wc32.a(GUI_Timer.o)
 .data          0x00000000        0x0 Middlewares/STemWin/Lib/STemWin_CM7_wc32.a(GUI_Timer.o)
 .text.GUI_TIMER__IsActive
                0x00000000       0x10 Middlewares/STemWin/Lib/STemWin_CM7_wc32.a(GUI_Timer.o)
 .text.GUI_TIMER__GetPeriod
                0x00000000       0x34 Middlewares/STemWin/Lib/STemWin_CM7_wc32.a(GUI_Timer.o)
 .text.GUI_TIMER__GetNextTimer
                0x00000000       0x54 Middlewares/STemWin/Lib/STemWin_CM7_wc32.a(GUI_Timer.o)
 .text.GUI_TIMER_GetPeriod
                0x00000000       0x1e Middlewares/STemWin/Lib/STemWin_CM7_wc32.a(GUI_Timer.o)
 .text.GUI_TIMER_SetTime
                0x00000000       0x1c Middlewares/STemWin/Lib/STemWin_CM7_wc32.a(GUI_Timer.o)
 .text.GUI_TIMER_SetDelay
                0x00000000       0x2a Middlewares/STemWin/Lib/STemWin_CM7_wc32.a(GUI_Timer.o)
 .text          0x00000000        0x0 Middlewares/STemWin/Lib/STemWin_CM7_wc32.a(GUI__Alpha.o)
 .text.GUI__SetAlphaBufferSize
                0x00000000       0x10 Middlewares/STemWin/Lib/STemWin_CM7_wc32.a(GUI__Alpha.o)
 .text.GUI_SetFuncAlphaBlending
                0x00000000       0x10 Middlewares/STemWin/Lib/STemWin_CM7_wc32.a(GUI__Alpha.o)
 .text.GUI_SetFuncMixColors
                0x00000000       0x10 Middlewares/STemWin/Lib/STemWin_CM7_wc32.a(GUI__Alpha.o)
 .text.GUI_SetFuncMixColorsBulk
                0x00000000       0x10 Middlewares/STemWin/Lib/STemWin_CM7_wc32.a(GUI__Alpha.o)
 .text.GUI_SetFuncDrawAlpha
                0x00000000       0x24 Middlewares/STemWin/Lib/STemWin_CM7_wc32.a(GUI__Alpha.o)
 COMMON         0x00000000        0x8 Middlewares/STemWin/Lib/STemWin_CM7_wc32.a(GUI__Alpha.o)
 .text          0x00000000        0x0 Middlewares/STemWin/Lib/STemWin_CM7_wc32.a(GUI__BiDiRouting.o)
 .data          0x00000000        0x0 Middlewares/STemWin/Lib/STemWin_CM7_wc32.a(GUI__BiDiRouting.o)
 .bss           0x00000000        0x0 Middlewares/STemWin/Lib/STemWin_CM7_wc32.a(GUI__BiDiRouting.o)
 .text          0x00000000        0x0 Middlewares/STemWin/Lib/STemWin_CM7_wc32.a(GUI__CompactPixelIndices.o)
 .data          0x00000000        0x0 Middlewares/STemWin/Lib/STemWin_CM7_wc32.a(GUI__CompactPixelIndices.o)
 .bss           0x00000000        0x0 Middlewares/STemWin/Lib/STemWin_CM7_wc32.a(GUI__CompactPixelIndices.o)
 .text          0x00000000        0x0 Middlewares/STemWin/Lib/STemWin_CM7_wc32.a(GUI__DrawTwinArc.o)
 .data          0x00000000        0x0 Middlewares/STemWin/Lib/STemWin_CM7_wc32.a(GUI__DrawTwinArc.o)
 .bss           0x00000000        0x0 Middlewares/STemWin/Lib/STemWin_CM7_wc32.a(GUI__DrawTwinArc.o)
 .text._GetTrippleArcPara
                0x00000000       0x7a Middlewares/STemWin/Lib/STemWin_CM7_wc32.a(GUI__DrawTwinArc.o)
 .text.GUI__FillTrippleArc
                0x00000000      0x2e8 Middlewares/STemWin/Lib/STemWin_CM7_wc32.a(GUI__DrawTwinArc.o)
 .text          0x00000000        0x0 Middlewares/STemWin/Lib/STemWin_CM7_wc32.a(GUI__ExpandPixelIndices.o)
 .data          0x00000000        0x0 Middlewares/STemWin/Lib/STemWin_CM7_wc32.a(GUI__ExpandPixelIndices.o)
 .bss           0x00000000        0x0 Middlewares/STemWin/Lib/STemWin_CM7_wc32.a(GUI__ExpandPixelIndices.o)
 .text.GUI__ExpandPixelIndices
                0x00000000       0xec Middlewares/STemWin/Lib/STemWin_CM7_wc32.a(GUI__ExpandPixelIndices.o)
 .text          0x00000000        0x0 Middlewares/STemWin/Lib/STemWin_CM7_wc32.a(GUI__GetCursorPos.o)
 .bss           0x00000000        0x0 Middlewares/STemWin/Lib/STemWin_CM7_wc32.a(GUI__GetCursorPos.o)
 .text.GUI__GetCursorCharacter
                0x00000000       0x14 Middlewares/STemWin/Lib/STemWin_CM7_wc32.a(GUI__GetCursorPos.o)
 .text          0x00000000        0x0 Middlewares/STemWin/Lib/STemWin_CM7_wc32.a(GUI__ManageCache.o)
 .data          0x00000000        0x0 Middlewares/STemWin/Lib/STemWin_CM7_wc32.a(GUI__ManageCache.o)
 .text._OnExit  0x00000000       0x10 Middlewares/STemWin/Lib/STemWin_CM7_wc32.a(GUI__ManageCache.o)
 .text.GUI_SetControlHook
                0x00000000       0x24 Middlewares/STemWin/Lib/STemWin_CM7_wc32.a(GUI__ManageCache.o)
 .text.GUI_SetRefreshHook
                0x00000000       0x24 Middlewares/STemWin/Lib/STemWin_CM7_wc32.a(GUI__ManageCache.o)
 .text          0x00000000        0x0 Middlewares/STemWin/Lib/STemWin_CM7_wc32.a(LCD_AA.o)
 .bss           0x00000000        0x0 Middlewares/STemWin/Lib/STemWin_CM7_wc32.a(LCD_AA.o)
 .text.LCD_SetPixelAA4_NoTrans
                0x00000000       0xb0 Middlewares/STemWin/Lib/STemWin_CM7_wc32.a(LCD_AA.o)
 .text._MixColorsGamma16
                0x00000000       0x64 Middlewares/STemWin/Lib/STemWin_CM7_wc32.a(LCD_AA.o)
 .text.LCD_SetPixelAA4_Trans
                0x00000000       0xa0 Middlewares/STemWin/Lib/STemWin_CM7_wc32.a(LCD_AA.o)
 .text.LCD_AA_MixColors256
                0x00000000       0x18 Middlewares/STemWin/Lib/STemWin_CM7_wc32.a(LCD_AA.o)
 .text.LCD_SetPixelAA8_Trans
                0x00000000       0x9c Middlewares/STemWin/Lib/STemWin_CM7_wc32.a(LCD_AA.o)
 .text.LCD_SetPixelAA8_NoTrans
                0x00000000       0xac Middlewares/STemWin/Lib/STemWin_CM7_wc32.a(LCD_AA.o)
 .text.LCD_AA_SetGamma
                0x00000000       0x18 Middlewares/STemWin/Lib/STemWin_CM7_wc32.a(LCD_AA.o)
 .text.LCD_AA_GetGamma
                0x00000000       0x18 Middlewares/STemWin/Lib/STemWin_CM7_wc32.a(LCD_AA.o)
 .text.LCD_AA_EnableGamma
                0x00000000       0x20 Middlewares/STemWin/Lib/STemWin_CM7_wc32.a(LCD_AA.o)
 .text.LCD__GetPfSetPixel
                0x00000000       0x48 Middlewares/STemWin/Lib/STemWin_CM7_wc32.a(LCD_AA.o)
 .text          0x00000000        0x0 Middlewares/STemWin/Lib/STemWin_CM7_wc32.a(LCD_Mirror.o)
 .data          0x00000000        0x0 Middlewares/STemWin/Lib/STemWin_CM7_wc32.a(LCD_Mirror.o)
 .bss           0x00000000        0x0 Middlewares/STemWin/Lib/STemWin_CM7_wc32.a(LCD_Mirror.o)
 .text          0x00000000        0x0 Middlewares/STemWin/Lib/STemWin_CM7_wc32.a(LCD_ReadRect.o)
 .data          0x00000000        0x0 Middlewares/STemWin/Lib/STemWin_CM7_wc32.a(LCD_ReadRect.o)
 .bss           0x00000000        0x0 Middlewares/STemWin/Lib/STemWin_CM7_wc32.a(LCD_ReadRect.o)
 .text.LCD_ReadRect
                0x00000000       0x60 Middlewares/STemWin/Lib/STemWin_CM7_wc32.a(LCD_ReadRect.o)
 .text.LCD_ReadRectNoClip
                0x00000000       0x20 Middlewares/STemWin/Lib/STemWin_CM7_wc32.a(LCD_ReadRect.o)
 .text.GUI_ReadRect
                0x00000000       0x3a Middlewares/STemWin/Lib/STemWin_CM7_wc32.a(LCD_ReadRect.o)
 .text          0x00000000        0x0 Middlewares/STemWin/Lib/STemWin_CM7_wc32.a(LCD_SetClipRectEx.o)
 .data          0x00000000        0x0 Middlewares/STemWin/Lib/STemWin_CM7_wc32.a(LCD_SetClipRectEx.o)
 .bss           0x00000000        0x0 Middlewares/STemWin/Lib/STemWin_CM7_wc32.a(LCD_SetClipRectEx.o)
 .text          0x00000000        0x0 Middlewares/STemWin/Lib/STemWin_CM7_wc32.a(F13_1.o)
 .data          0x00000000        0x0 Middlewares/STemWin/Lib/STemWin_CM7_wc32.a(F13_1.o)
 .bss           0x00000000        0x0 Middlewares/STemWin/Lib/STemWin_CM7_wc32.a(F13_1.o)
 .text          0x00000000        0x0 Middlewares/STemWin/Lib/STemWin_CM7_wc32.a(F13_ASCII.o)
 .data          0x00000000        0x0 Middlewares/STemWin/Lib/STemWin_CM7_wc32.a(F13_ASCII.o)
 .bss           0x00000000        0x0 Middlewares/STemWin/Lib/STemWin_CM7_wc32.a(F13_ASCII.o)
 .text          0x00000000        0x0 Middlewares/STemWin/Lib/STemWin_CM7_wc32.a(GUIDEV.o)
 .data          0x00000000        0x0 Middlewares/STemWin/Lib/STemWin_CM7_wc32.a(GUIDEV.o)
 .bss           0x00000000        0x0 Middlewares/STemWin/Lib/STemWin_CM7_wc32.a(GUIDEV.o)
 .text.GUI_MEMDEV_Create
                0x00000000        0xe Middlewares/STemWin/Lib/STemWin_CM7_wc32.a(GUIDEV.o)
 .text.GUI_MEMDEV_MarkDirty
                0x00000000       0x4a Middlewares/STemWin/Lib/STemWin_CM7_wc32.a(GUIDEV.o)
 .text          0x00000000        0x0 Middlewares/STemWin/Lib/STemWin_CM7_wc32.a(GUIDEV_Banding.o)
 .data          0x00000000        0x0 Middlewares/STemWin/Lib/STemWin_CM7_wc32.a(GUIDEV_Banding.o)
 .text.GUI_MEMDEV__SetAlphaCallback
                0x00000000        0xc Middlewares/STemWin/Lib/STemWin_CM7_wc32.a(GUIDEV_Banding.o)
 .text          0x00000000        0x0 Middlewares/STemWin/Lib/STemWin_CM7_wc32.a(GUIDEV_Clear.o)
 .data          0x00000000        0x0 Middlewares/STemWin/Lib/STemWin_CM7_wc32.a(GUIDEV_Clear.o)
 .bss           0x00000000        0x0 Middlewares/STemWin/Lib/STemWin_CM7_wc32.a(GUIDEV_Clear.o)
 .text          0x00000000        0x0 Middlewares/STemWin/Lib/STemWin_CM7_wc32.a(GUIDEV_GetDataPtr.o)
 .data          0x00000000        0x0 Middlewares/STemWin/Lib/STemWin_CM7_wc32.a(GUIDEV_GetDataPtr.o)
 .bss           0x00000000        0x0 Middlewares/STemWin/Lib/STemWin_CM7_wc32.a(GUIDEV_GetDataPtr.o)
 .text          0x00000000        0x0 Middlewares/STemWin/Lib/STemWin_CM7_wc32.a(GUIDEV_GetYSize.o)
 .data          0x00000000        0x0 Middlewares/STemWin/Lib/STemWin_CM7_wc32.a(GUIDEV_GetYSize.o)
 .bss           0x00000000        0x0 Middlewares/STemWin/Lib/STemWin_CM7_wc32.a(GUIDEV_GetYSize.o)
 .text          0x00000000        0x0 Middlewares/STemWin/Lib/STemWin_CM7_wc32.a(GUIDEV_ReduceYSize.o)
 .data          0x00000000        0x0 Middlewares/STemWin/Lib/STemWin_CM7_wc32.a(GUIDEV_ReduceYSize.o)
 .bss           0x00000000        0x0 Middlewares/STemWin/Lib/STemWin_CM7_wc32.a(GUIDEV_ReduceYSize.o)
 .text          0x00000000        0x0 Middlewares/STemWin/Lib/STemWin_CM7_wc32.a(GUIDEV_SetOrg.o)
 .data          0x00000000        0x0 Middlewares/STemWin/Lib/STemWin_CM7_wc32.a(GUIDEV_SetOrg.o)
 .bss           0x00000000        0x0 Middlewares/STemWin/Lib/STemWin_CM7_wc32.a(GUIDEV_SetOrg.o)
 .text          0x00000000        0x0 Middlewares/STemWin/Lib/STemWin_CM7_wc32.a(GUIDEV_StaticDevices.o)
 .bss           0x00000000        0x0 Middlewares/STemWin/Lib/STemWin_CM7_wc32.a(GUIDEV_StaticDevices.o)
 .text._CreateStatic
                0x00000000       0x78 Middlewares/STemWin/Lib/STemWin_CM7_wc32.a(GUIDEV_StaticDevices.o)
 .text.GUI_MEMDEV__CreateStatic
                0x00000000       0x10 Middlewares/STemWin/Lib/STemWin_CM7_wc32.a(GUIDEV_StaticDevices.o)
 .text.GUI_MEMDEV_CreateStatic
                0x00000000        0x4 Middlewares/STemWin/Lib/STemWin_CM7_wc32.a(GUIDEV_StaticDevices.o)
 .text.GUI_MEMDEV_GetStaticDevice
                0x00000000       0x1e Middlewares/STemWin/Lib/STemWin_CM7_wc32.a(GUIDEV_StaticDevices.o)
 .text._GetWindowDevice
                0x00000000      0x2c0 Middlewares/STemWin/Lib/STemWin_CM7_wc32.a(GUIDEV_StaticDevices.o)
 .text.GUI_MEMDEV_GetWindowDevice
                0x00000000       0x16 Middlewares/STemWin/Lib/STemWin_CM7_wc32.a(GUIDEV_StaticDevices.o)
 .text.GUI_MEMDEV_CreateWindowDevice
                0x00000000       0x60 Middlewares/STemWin/Lib/STemWin_CM7_wc32.a(GUIDEV_StaticDevices.o)
 .text          0x00000000        0x0 Middlewares/STemWin/Lib/STemWin_CM7_wc32.a(GUIDEV_UsageBM.o)
 .data          0x00000000        0x0 Middlewares/STemWin/Lib/STemWin_CM7_wc32.a(GUIDEV_UsageBM.o)
 .bss           0x00000000        0x0 Middlewares/STemWin/Lib/STemWin_CM7_wc32.a(GUIDEV_UsageBM.o)
 .text          0x00000000        0x0 Middlewares/STemWin/Lib/STemWin_CM7_wc32.a(GUIDEV_Write.o)
 .data          0x00000000        0x0 Middlewares/STemWin/Lib/STemWin_CM7_wc32.a(GUIDEV_Write.o)
 .bss           0x00000000        0x0 Middlewares/STemWin/Lib/STemWin_CM7_wc32.a(GUIDEV_Write.o)
 .text.GUI_MEMDEV_WriteOpaqueAt
                0x00000000       0x64 Middlewares/STemWin/Lib/STemWin_CM7_wc32.a(GUIDEV_Write.o)
 .text.GUI_MEMDEV_WriteOpaque
                0x00000000        0xc Middlewares/STemWin/Lib/STemWin_CM7_wc32.a(GUIDEV_Write.o)
 .text          0x00000000        0x0 Middlewares/STemWin/Lib/STemWin_CM7_wc32.a(GUIDEV_WriteToActiveOpaque.o)
 .data          0x00000000        0x0 Middlewares/STemWin/Lib/STemWin_CM7_wc32.a(GUIDEV_WriteToActiveOpaque.o)
 .bss           0x00000000        0x0 Middlewares/STemWin/Lib/STemWin_CM7_wc32.a(GUIDEV_WriteToActiveOpaque.o)
 .text          0x00000000        0x0 Middlewares/STemWin/Lib/STemWin_CM7_wc32.a(WM_BringToTop.o)
 .data          0x00000000        0x0 Middlewares/STemWin/Lib/STemWin_CM7_wc32.a(WM_BringToTop.o)
 .bss           0x00000000        0x0 Middlewares/STemWin/Lib/STemWin_CM7_wc32.a(WM_BringToTop.o)
 .text          0x00000000        0x0 Middlewares/STemWin/Lib/STemWin_CM7_wc32.a(WM_GetWindowSize.o)
 .data          0x00000000        0x0 Middlewares/STemWin/Lib/STemWin_CM7_wc32.a(WM_GetWindowSize.o)
 .bss           0x00000000        0x0 Middlewares/STemWin/Lib/STemWin_CM7_wc32.a(WM_GetWindowSize.o)
 .text          0x00000000        0x0 Middlewares/STemWin/Lib/STemWin_CM7_wc32.a(WM_Hide.o)
 .data          0x00000000        0x0 Middlewares/STemWin/Lib/STemWin_CM7_wc32.a(WM_Hide.o)
 .bss           0x00000000        0x0 Middlewares/STemWin/Lib/STemWin_CM7_wc32.a(WM_Hide.o)
 .text          0x00000000        0x0 Middlewares/STemWin/Lib/STemWin_CM7_wc32.a(WM_MemDev.o)
 .data          0x00000000        0x0 Middlewares/STemWin/Lib/STemWin_CM7_wc32.a(WM_MemDev.o)
 .bss           0x00000000        0x0 Middlewares/STemWin/Lib/STemWin_CM7_wc32.a(WM_MemDev.o)
 .text.WM_EnableMemdev
                0x00000000       0x12 Middlewares/STemWin/Lib/STemWin_CM7_wc32.a(WM_MemDev.o)
 .text          0x00000000        0x0 Middlewares/STemWin/Lib/STemWin_CM7_wc32.a(WM_PID__GetPrevState.o)
 .data          0x00000000        0x0 Middlewares/STemWin/Lib/STemWin_CM7_wc32.a(WM_PID__GetPrevState.o)
 .bss           0x00000000       0x18 Middlewares/STemWin/Lib/STemWin_CM7_wc32.a(WM_PID__GetPrevState.o)
 .text.WM_PID__GetPrevState
                0x00000000       0x18 Middlewares/STemWin/Lib/STemWin_CM7_wc32.a(WM_PID__GetPrevState.o)
 .text.WM_PID__SetPrevState
                0x00000000       0x14 Middlewares/STemWin/Lib/STemWin_CM7_wc32.a(WM_PID__GetPrevState.o)
 .comment       0x00000000       0x6f Middlewares/STemWin/Lib/STemWin_CM7_wc32.a(WM_PID__GetPrevState.o)
 .ARM.attributes
                0x00000000       0x39 Middlewares/STemWin/Lib/STemWin_CM7_wc32.a(WM_PID__GetPrevState.o)
 .text          0x00000000        0x0 Middlewares/STemWin/Lib/STemWin_CM7_wc32.a(WM_Screen2Win.o)
 .data          0x00000000        0x0 Middlewares/STemWin/Lib/STemWin_CM7_wc32.a(WM_Screen2Win.o)
 .bss           0x00000000        0x0 Middlewares/STemWin/Lib/STemWin_CM7_wc32.a(WM_Screen2Win.o)
 .text.WM__IsInWindow
                0x00000000       0x36 Middlewares/STemWin/Lib/STemWin_CM7_wc32.a(WM_Screen2Win.o)
 .text._Screen2hWin
                0x00000000       0x60 Middlewares/STemWin/Lib/STemWin_CM7_wc32.a(WM_Screen2Win.o)
 .text.WM_Screen2hWin
                0x00000000       0x20 Middlewares/STemWin/Lib/STemWin_CM7_wc32.a(WM_Screen2Win.o)
 .text.WM_Screen2hWinEx
                0x00000000       0x24 Middlewares/STemWin/Lib/STemWin_CM7_wc32.a(WM_Screen2Win.o)
 .comment       0x00000000       0x6f Middlewares/STemWin/Lib/STemWin_CM7_wc32.a(WM_Screen2Win.o)
 .ARM.attributes
                0x00000000       0x39 Middlewares/STemWin/Lib/STemWin_CM7_wc32.a(WM_Screen2Win.o)
 .text          0x00000000        0x0 Middlewares/STemWin/Lib/STemWin_CM7_wc32.a(WM_SetCapture.o)
 .data          0x00000000        0x0 Middlewares/STemWin/Lib/STemWin_CM7_wc32.a(WM_SetCapture.o)
 .bss           0x00000000        0x0 Middlewares/STemWin/Lib/STemWin_CM7_wc32.a(WM_SetCapture.o)
 .text.WM_ReleaseCapture
                0x00000000        0x4 Middlewares/STemWin/Lib/STemWin_CM7_wc32.a(WM_SetCapture.o)
 .text          0x00000000        0x0 Middlewares/STemWin/Lib/STemWin_CM7_wc32.a(WM_SetCaptureMove.o)
 .data          0x00000000        0x0 Middlewares/STemWin/Lib/STemWin_CM7_wc32.a(WM_SetCaptureMove.o)
 .text          0x00000000        0x0 Middlewares/STemWin/Lib/STemWin_CM7_wc32.a(WM_SetFocusOnNextChild.o)
 .data          0x00000000        0x0 Middlewares/STemWin/Lib/STemWin_CM7_wc32.a(WM_SetFocusOnNextChild.o)
 .bss           0x00000000        0x0 Middlewares/STemWin/Lib/STemWin_CM7_wc32.a(WM_SetFocusOnNextChild.o)
 .text          0x00000000        0x0 Middlewares/STemWin/Lib/STemWin_CM7_wc32.a(WM_SetFocusOnPrevChild.o)
 .data          0x00000000        0x0 Middlewares/STemWin/Lib/STemWin_CM7_wc32.a(WM_SetFocusOnPrevChild.o)
 .bss           0x00000000        0x0 Middlewares/STemWin/Lib/STemWin_CM7_wc32.a(WM_SetFocusOnPrevChild.o)
 .text          0x00000000        0x0 Middlewares/STemWin/Lib/STemWin_CM7_wc32.a(WM_SetScrollbar.o)
 .data          0x00000000        0x0 Middlewares/STemWin/Lib/STemWin_CM7_wc32.a(WM_SetScrollbar.o)
 .bss           0x00000000        0x0 Middlewares/STemWin/Lib/STemWin_CM7_wc32.a(WM_SetScrollbar.o)
 .text          0x00000000        0x0 Middlewares/STemWin/Lib/STemWin_CM7_wc32.a(WM_SetTrans.o)
 .data          0x00000000        0x0 Middlewares/STemWin/Lib/STemWin_CM7_wc32.a(WM_SetTrans.o)
 .bss           0x00000000        0x0 Middlewares/STemWin/Lib/STemWin_CM7_wc32.a(WM_SetTrans.o)
 .text.WM_ClrHasTrans
                0x00000000       0x34 Middlewares/STemWin/Lib/STemWin_CM7_wc32.a(WM_SetTrans.o)
 .text          0x00000000        0x0 Middlewares/STemWin/Lib/STemWin_CM7_wc32.a(WM_UserData.o)
 .data          0x00000000        0x0 Middlewares/STemWin/Lib/STemWin_CM7_wc32.a(WM_UserData.o)
 .bss           0x00000000        0x0 Middlewares/STemWin/Lib/STemWin_CM7_wc32.a(WM_UserData.o)
 .text.WM__GetUserDataEx
                0x00000000       0x40 Middlewares/STemWin/Lib/STemWin_CM7_wc32.a(WM_UserData.o)
 .text.WM__SetUserDataEx
                0x00000000       0x4c Middlewares/STemWin/Lib/STemWin_CM7_wc32.a(WM_UserData.o)
 .text.WM_GetUserData
                0x00000000        0x6 Middlewares/STemWin/Lib/STemWin_CM7_wc32.a(WM_UserData.o)
 .text.WM_SetUserData
                0x00000000        0x6 Middlewares/STemWin/Lib/STemWin_CM7_wc32.a(WM_UserData.o)
 .comment       0x00000000       0x6f Middlewares/STemWin/Lib/STemWin_CM7_wc32.a(WM_UserData.o)
 .ARM.attributes
                0x00000000       0x39 Middlewares/STemWin/Lib/STemWin_CM7_wc32.a(WM_UserData.o)
 .text          0x00000000        0x0 Middlewares/STemWin/Lib/STemWin_CM7_wc32.a(GUICC_8888.o)
 .data          0x00000000        0x0 Middlewares/STemWin/Lib/STemWin_CM7_wc32.a(GUICC_8888.o)
 .bss           0x00000000        0x0 Middlewares/STemWin/Lib/STemWin_CM7_wc32.a(GUICC_8888.o)
 .text          0x00000000        0x0 Middlewares/STemWin/Lib/STemWin_CM7_wc32.a(GUICC_888_Index2Color.o)
 .data          0x00000000        0x0 Middlewares/STemWin/Lib/STemWin_CM7_wc32.a(GUICC_888_Index2Color.o)
 .bss           0x00000000        0x0 Middlewares/STemWin/Lib/STemWin_CM7_wc32.a(GUICC_888_Index2Color.o)
 .text          0x00000000        0x0 Middlewares/STemWin/Lib/STemWin_CM7_wc32.a(GUI_Arc.o)
 .data          0x00000000        0x0 Middlewares/STemWin/Lib/STemWin_CM7_wc32.a(GUI_Arc.o)
 .bss           0x00000000        0x0 Middlewares/STemWin/Lib/STemWin_CM7_wc32.a(GUI_Arc.o)
 .text._DrawArc.isra.0
                0x00000000      0x2d8 Middlewares/STemWin/Lib/STemWin_CM7_wc32.a(GUI_Arc.o)
 .text.GL_DrawArc
                0x00000000       0xfa Middlewares/STemWin/Lib/STemWin_CM7_wc32.a(GUI_Arc.o)
 .text.GUI_DrawArc
                0x00000000       0x48 Middlewares/STemWin/Lib/STemWin_CM7_wc32.a(GUI_Arc.o)
 .comment       0x00000000       0x6f Middlewares/STemWin/Lib/STemWin_CM7_wc32.a(GUI_Arc.o)
 .ARM.attributes
                0x00000000       0x39 Middlewares/STemWin/Lib/STemWin_CM7_wc32.a(GUI_Arc.o)
 .text          0x00000000        0x0 Middlewares/STemWin/Lib/STemWin_CM7_wc32.a(GUI_CharP.o)
 .data          0x00000000        0x0 Middlewares/STemWin/Lib/STemWin_CM7_wc32.a(GUI_CharP.o)
 .bss           0x00000000        0x0 Middlewares/STemWin/Lib/STemWin_CM7_wc32.a(GUI_CharP.o)
 .text          0x00000000        0x0 Middlewares/STemWin/Lib/STemWin_CM7_wc32.a(GUI_Circ.o)
 .data          0x00000000        0x0 Middlewares/STemWin/Lib/STemWin_CM7_wc32.a(GUI_Circ.o)
 .bss           0x00000000        0x0 Middlewares/STemWin/Lib/STemWin_CM7_wc32.a(GUI_Circ.o)
 .text.Draw8Point
                0x00000000       0xa0 Middlewares/STemWin/Lib/STemWin_CM7_wc32.a(GUI_Circ.o)
 .text.GL_DrawCircle
                0x00000000       0x5e Middlewares/STemWin/Lib/STemWin_CM7_wc32.a(GUI_Circ.o)
 .text.GUI_DrawCircle
                0x00000000       0x50 Middlewares/STemWin/Lib/STemWin_CM7_wc32.a(GUI_Circ.o)
 .text.GL_FillCircle
                0x00000000       0xc0 Middlewares/STemWin/Lib/STemWin_CM7_wc32.a(GUI_Circ.o)
 .text.GUI_FillCircle
                0x00000000       0x3c Middlewares/STemWin/Lib/STemWin_CM7_wc32.a(GUI_Circ.o)
 .text.GL_FillEllipse
                0x00000000       0x90 Middlewares/STemWin/Lib/STemWin_CM7_wc32.a(GUI_Circ.o)
 .text.GUI_FillEllipse
                0x00000000       0x64 Middlewares/STemWin/Lib/STemWin_CM7_wc32.a(GUI_Circ.o)
 .text.GL_DrawEllipse
                0x00000000       0xe6 Middlewares/STemWin/Lib/STemWin_CM7_wc32.a(GUI_Circ.o)
 .text.GUI_DrawEllipse
                0x00000000       0x8c Middlewares/STemWin/Lib/STemWin_CM7_wc32.a(GUI_Circ.o)
 .comment       0x00000000       0x6f Middlewares/STemWin/Lib/STemWin_CM7_wc32.a(GUI_Circ.o)
 .ARM.attributes
                0x00000000       0x39 Middlewares/STemWin/Lib/STemWin_CM7_wc32.a(GUI_Circ.o)
 .text          0x00000000        0x0 Middlewares/STemWin/Lib/STemWin_CM7_wc32.a(GUI_SetAlpha.o)
 .data          0x00000000        0x0 Middlewares/STemWin/Lib/STemWin_CM7_wc32.a(GUI_SetAlpha.o)
 .bss           0x00000000       0x1c Middlewares/STemWin/Lib/STemWin_CM7_wc32.a(GUI_SetAlpha.o)
 .text._Color2Index
                0x00000000       0x1c Middlewares/STemWin/Lib/STemWin_CM7_wc32.a(GUI_SetAlpha.o)
 .text._Index2Color
                0x00000000       0x1c Middlewares/STemWin/Lib/STemWin_CM7_wc32.a(GUI_SetAlpha.o)
 .text._GetIndexMask
                0x00000000       0x1c Middlewares/STemWin/Lib/STemWin_CM7_wc32.a(GUI_SetAlpha.o)
 .text._GetPixelIndex
                0x00000000        0x8 Middlewares/STemWin/Lib/STemWin_CM7_wc32.a(GUI_SetAlpha.o)
 .text._GetDevData
                0x00000000        0x4 Middlewares/STemWin/Lib/STemWin_CM7_wc32.a(GUI_SetAlpha.o)
 .text._SetOrg  0x00000000        0xc Middlewares/STemWin/Lib/STemWin_CM7_wc32.a(GUI_SetAlpha.o)
 .text._GetDevFunc
                0x00000000       0x28 Middlewares/STemWin/Lib/STemWin_CM7_wc32.a(GUI_SetAlpha.o)
 .text._GetDevProp
                0x00000000       0x10 Middlewares/STemWin/Lib/STemWin_CM7_wc32.a(GUI_SetAlpha.o)
 .text._GetRect
                0x00000000        0xc Middlewares/STemWin/Lib/STemWin_CM7_wc32.a(GUI_SetAlpha.o)
 .text.GUI_SetAlpha
                0x00000000      0x108 Middlewares/STemWin/Lib/STemWin_CM7_wc32.a(GUI_SetAlpha.o)
 .text._OnExit  0x00000000       0x34 Middlewares/STemWin/Lib/STemWin_CM7_wc32.a(GUI_SetAlpha.o)
 .text._ReadRectFromMemdev
                0x00000000       0xa0 Middlewares/STemWin/Lib/STemWin_CM7_wc32.a(GUI_SetAlpha.o)
 .text._Color2IndexBulk
                0x00000000       0xc4 Middlewares/STemWin/Lib/STemWin_CM7_wc32.a(GUI_SetAlpha.o)
 .text._Index2ColorBulk
                0x00000000       0xc0 Middlewares/STemWin/Lib/STemWin_CM7_wc32.a(GUI_SetAlpha.o)
 .text._MixColors
                0x00000000       0x6c Middlewares/STemWin/Lib/STemWin_CM7_wc32.a(GUI_SetAlpha.o)
 .text._SetPixelIndex
                0x00000000       0x44 Middlewares/STemWin/Lib/STemWin_CM7_wc32.a(GUI_SetAlpha.o)
 .text._XorPixel
                0x00000000       0x2a Middlewares/STemWin/Lib/STemWin_CM7_wc32.a(GUI_SetAlpha.o)
 .text._DrawVLine
                0x00000000       0x50 Middlewares/STemWin/Lib/STemWin_CM7_wc32.a(GUI_SetAlpha.o)
 .text._GetLine
                0x00000000       0xb0 Middlewares/STemWin/Lib/STemWin_CM7_wc32.a(GUI_SetAlpha.o)
 .text._DrawBitmapLine.isra.6
                0x00000000       0x5c Middlewares/STemWin/Lib/STemWin_CM7_wc32.a(GUI_SetAlpha.o)
 .text._DrawHLine
                0x00000000       0x78 Middlewares/STemWin/Lib/STemWin_CM7_wc32.a(GUI_SetAlpha.o)
 .text._FillRect
                0x00000000       0x26 Middlewares/STemWin/Lib/STemWin_CM7_wc32.a(GUI_SetAlpha.o)
 .text._DrawBitmap
                0x00000000      0x5a0 Middlewares/STemWin/Lib/STemWin_CM7_wc32.a(GUI_SetAlpha.o)
 .rodata        0x00000000       0x4c Middlewares/STemWin/Lib/STemWin_CM7_wc32.a(GUI_SetAlpha.o)
 .text          0x00000000        0x0 Middlewares/STemWin/Lib/STemWin_CM7_wc32.a(GUIDEV_CreateFixed.o)
 .data          0x00000000        0x0 Middlewares/STemWin/Lib/STemWin_CM7_wc32.a(GUIDEV_CreateFixed.o)
 .bss           0x00000000        0x0 Middlewares/STemWin/Lib/STemWin_CM7_wc32.a(GUIDEV_CreateFixed.o)
 .text.GUI_MEMDEV_CreateFixed
                0x00000000       0x12 Middlewares/STemWin/Lib/STemWin_CM7_wc32.a(GUIDEV_CreateFixed.o)
 .text.GUI_MEMDEV_CreateFixed32
                0x00000000       0x20 Middlewares/STemWin/Lib/STemWin_CM7_wc32.a(GUIDEV_CreateFixed.o)
 .comment       0x00000000       0x6f Middlewares/STemWin/Lib/STemWin_CM7_wc32.a(GUIDEV_CreateFixed.o)
 .ARM.attributes
                0x00000000       0x39 Middlewares/STemWin/Lib/STemWin_CM7_wc32.a(GUIDEV_CreateFixed.o)
 .text          0x00000000        0x0 Middlewares/STemWin/Lib/STemWin_CM7_wc32.a(GUIDEV_GetPos.o)
 .data          0x00000000        0x0 Middlewares/STemWin/Lib/STemWin_CM7_wc32.a(GUIDEV_GetPos.o)
 .bss           0x00000000        0x0 Middlewares/STemWin/Lib/STemWin_CM7_wc32.a(GUIDEV_GetPos.o)
 .text.GUI_MEMDEV_GetXPos
                0x00000000       0x30 Middlewares/STemWin/Lib/STemWin_CM7_wc32.a(GUIDEV_GetPos.o)
 .text.GUI_MEMDEV_GetYPos
                0x00000000       0x30 Middlewares/STemWin/Lib/STemWin_CM7_wc32.a(GUIDEV_GetPos.o)
 .comment       0x00000000       0x6f Middlewares/STemWin/Lib/STemWin_CM7_wc32.a(GUIDEV_GetPos.o)
 .ARM.attributes
                0x00000000       0x39 Middlewares/STemWin/Lib/STemWin_CM7_wc32.a(GUIDEV_GetPos.o)
 .text          0x00000000        0x0 Middlewares/STemWin/Lib/STemWin_CM7_wc32.a(GUIDEV_GetXSize.o)
 .data          0x00000000        0x0 Middlewares/STemWin/Lib/STemWin_CM7_wc32.a(GUIDEV_GetXSize.o)
 .bss           0x00000000        0x0 Middlewares/STemWin/Lib/STemWin_CM7_wc32.a(GUIDEV_GetXSize.o)
 .text.GUI_MEMDEV_GetXSize
                0x00000000       0x30 Middlewares/STemWin/Lib/STemWin_CM7_wc32.a(GUIDEV_GetXSize.o)
 .comment       0x00000000       0x6f Middlewares/STemWin/Lib/STemWin_CM7_wc32.a(GUIDEV_GetXSize.o)
 .ARM.attributes
                0x00000000       0x39 Middlewares/STemWin/Lib/STemWin_CM7_wc32.a(GUIDEV_GetXSize.o)
 .text          0x00000000      0x378 c:/vsarm/armcc/bin/../lib/gcc/arm-none-eabi/7.3.1/thumb/v7e-m/fpv4-sp/hard\libgcc.a(_arm_addsubdf3.o)
 .data          0x00000000        0x0 c:/vsarm/armcc/bin/../lib/gcc/arm-none-eabi/7.3.1/thumb/v7e-m/fpv4-sp/hard\libgcc.a(_arm_addsubdf3.o)
 .bss           0x00000000        0x0 c:/vsarm/armcc/bin/../lib/gcc/arm-none-eabi/7.3.1/thumb/v7e-m/fpv4-sp/hard\libgcc.a(_arm_addsubdf3.o)
 .debug_frame   0x00000000       0xac c:/vsarm/armcc/bin/../lib/gcc/arm-none-eabi/7.3.1/thumb/v7e-m/fpv4-sp/hard\libgcc.a(_arm_addsubdf3.o)
 .ARM.attributes
                0x00000000       0x22 c:/vsarm/armcc/bin/../lib/gcc/arm-none-eabi/7.3.1/thumb/v7e-m/fpv4-sp/hard\libgcc.a(_arm_addsubdf3.o)
 .text          0x00000000       0x50 c:/vsarm/armcc/bin/../lib/gcc/arm-none-eabi/7.3.1/thumb/v7e-m/fpv4-sp/hard\libgcc.a(_arm_fixdfsi.o)
 .data          0x00000000        0x0 c:/vsarm/armcc/bin/../lib/gcc/arm-none-eabi/7.3.1/thumb/v7e-m/fpv4-sp/hard\libgcc.a(_arm_fixdfsi.o)
 .bss           0x00000000        0x0 c:/vsarm/armcc/bin/../lib/gcc/arm-none-eabi/7.3.1/thumb/v7e-m/fpv4-sp/hard\libgcc.a(_arm_fixdfsi.o)
 .debug_frame   0x00000000       0x24 c:/vsarm/armcc/bin/../lib/gcc/arm-none-eabi/7.3.1/thumb/v7e-m/fpv4-sp/hard\libgcc.a(_arm_fixdfsi.o)
 .ARM.attributes
                0x00000000       0x22 c:/vsarm/armcc/bin/../lib/gcc/arm-none-eabi/7.3.1/thumb/v7e-m/fpv4-sp/hard\libgcc.a(_arm_fixdfsi.o)
 .data          0x00000000        0x0 c:/vsarm/armcc/bin/../lib/gcc/arm-none-eabi/7.3.1/thumb/v7e-m/fpv4-sp/hard\libgcc.a(_aeabi_uldivmod.o)
 .bss           0x00000000        0x0 c:/vsarm/armcc/bin/../lib/gcc/arm-none-eabi/7.3.1/thumb/v7e-m/fpv4-sp/hard\libgcc.a(_aeabi_uldivmod.o)
 .data          0x00000000        0x0 c:/vsarm/armcc/bin/../lib/gcc/arm-none-eabi/7.3.1/thumb/v7e-m/fpv4-sp/hard\libgcc.a(_udivmoddi4.o)
 .bss           0x00000000        0x0 c:/vsarm/armcc/bin/../lib/gcc/arm-none-eabi/7.3.1/thumb/v7e-m/fpv4-sp/hard\libgcc.a(_udivmoddi4.o)
 .ARM.extab     0x00000000        0x0 c:/vsarm/armcc/bin/../lib/gcc/arm-none-eabi/7.3.1/thumb/v7e-m/fpv4-sp/hard\libgcc.a(_udivmoddi4.o)
 .data          0x00000000        0x0 c:/vsarm/armcc/bin/../lib/gcc/arm-none-eabi/7.3.1/thumb/v7e-m/fpv4-sp/hard\libgcc.a(_dvmd_tls.o)
 .bss           0x00000000        0x0 c:/vsarm/armcc/bin/../lib/gcc/arm-none-eabi/7.3.1/thumb/v7e-m/fpv4-sp/hard\libgcc.a(_dvmd_tls.o)
 .text          0x00000000        0x0 c:/vsarm/armcc/bin/../lib/gcc/arm-none-eabi/7.3.1/../../../../arm-none-eabi/lib/thumb/v7e-m/fpv4-sp/hard\libc_nano.a(lib_a-memcpy-stub.o)
 .data          0x00000000        0x0 c:/vsarm/armcc/bin/../lib/gcc/arm-none-eabi/7.3.1/../../../../arm-none-eabi/lib/thumb/v7e-m/fpv4-sp/hard\libc_nano.a(lib_a-memcpy-stub.o)
 .bss           0x00000000        0x0 c:/vsarm/armcc/bin/../lib/gcc/arm-none-eabi/7.3.1/../../../../arm-none-eabi/lib/thumb/v7e-m/fpv4-sp/hard\libc_nano.a(lib_a-memcpy-stub.o)
 .text          0x00000000        0x0 c:/vsarm/armcc/bin/../lib/gcc/arm-none-eabi/7.3.1/../../../../arm-none-eabi/lib/thumb/v7e-m/fpv4-sp/hard\libc_nano.a(lib_a-memmove.o)
 .data          0x00000000        0x0 c:/vsarm/armcc/bin/../lib/gcc/arm-none-eabi/7.3.1/../../../../arm-none-eabi/lib/thumb/v7e-m/fpv4-sp/hard\libc_nano.a(lib_a-memmove.o)
 .bss           0x00000000        0x0 c:/vsarm/armcc/bin/../lib/gcc/arm-none-eabi/7.3.1/../../../../arm-none-eabi/lib/thumb/v7e-m/fpv4-sp/hard\libc_nano.a(lib_a-memmove.o)
 .text          0x00000000        0x0 c:/vsarm/armcc/bin/../lib/gcc/arm-none-eabi/7.3.1/../../../../arm-none-eabi/lib/thumb/v7e-m/fpv4-sp/hard\libc_nano.a(lib_a-strcpy.o)
 .data          0x00000000        0x0 c:/vsarm/armcc/bin/../lib/gcc/arm-none-eabi/7.3.1/../../../../arm-none-eabi/lib/thumb/v7e-m/fpv4-sp/hard\libc_nano.a(lib_a-strcpy.o)
 .bss           0x00000000        0x0 c:/vsarm/armcc/bin/../lib/gcc/arm-none-eabi/7.3.1/../../../../arm-none-eabi/lib/thumb/v7e-m/fpv4-sp/hard\libc_nano.a(lib_a-strcpy.o)
 .data          0x00000000        0x0 c:/vsarm/armcc/bin/../lib/gcc/arm-none-eabi/7.3.1/../../../../arm-none-eabi/lib/thumb/v7e-m/fpv4-sp/hard\libc_nano.a(lib_a-strlen.o)
 .bss           0x00000000        0x0 c:/vsarm/armcc/bin/../lib/gcc/arm-none-eabi/7.3.1/../../../../arm-none-eabi/lib/thumb/v7e-m/fpv4-sp/hard\libc_nano.a(lib_a-strlen.o)
 .text          0x00000000        0x0 c:/vsarm/armcc/bin/../lib/gcc/arm-none-eabi/7.3.1/thumb/v7e-m/fpv4-sp/hard/crtend.o
 .data          0x00000000        0x0 c:/vsarm/armcc/bin/../lib/gcc/arm-none-eabi/7.3.1/thumb/v7e-m/fpv4-sp/hard/crtend.o
 .bss           0x00000000        0x0 c:/vsarm/armcc/bin/../lib/gcc/arm-none-eabi/7.3.1/thumb/v7e-m/fpv4-sp/hard/crtend.o
 .eh_frame      0x00000000        0x4 c:/vsarm/armcc/bin/../lib/gcc/arm-none-eabi/7.3.1/thumb/v7e-m/fpv4-sp/hard/crtend.o
 .ARM.attributes
                0x00000000       0x34 c:/vsarm/armcc/bin/../lib/gcc/arm-none-eabi/7.3.1/thumb/v7e-m/fpv4-sp/hard/crtend.o
 .text          0x00000000        0x0 c:/vsarm/armcc/bin/../lib/gcc/arm-none-eabi/7.3.1/thumb/v7e-m/fpv4-sp/hard/crtn.o
 .data          0x00000000        0x0 c:/vsarm/armcc/bin/../lib/gcc/arm-none-eabi/7.3.1/thumb/v7e-m/fpv4-sp/hard/crtn.o
 .bss           0x00000000        0x0 c:/vsarm/armcc/bin/../lib/gcc/arm-none-eabi/7.3.1/thumb/v7e-m/fpv4-sp/hard/crtn.o
 .text          0x00000000        0x0 c:/vsarm/armcc/bin/../lib/gcc/arm-none-eabi/7.3.1/../../../../arm-none-eabi/lib/thumb/v7e-m/fpv4-sp/hard\libm.a(lib_a-s_ceil.o)
 .data          0x00000000        0x0 c:/vsarm/armcc/bin/../lib/gcc/arm-none-eabi/7.3.1/../../../../arm-none-eabi/lib/thumb/v7e-m/fpv4-sp/hard\libm.a(lib_a-s_ceil.o)
 .bss           0x00000000        0x0 c:/vsarm/armcc/bin/../lib/gcc/arm-none-eabi/7.3.1/../../../../arm-none-eabi/lib/thumb/v7e-m/fpv4-sp/hard\libm.a(lib_a-s_ceil.o)
 .text.ceil     0x00000000      0x110 c:/vsarm/armcc/bin/../lib/gcc/arm-none-eabi/7.3.1/../../../../arm-none-eabi/lib/thumb/v7e-m/fpv4-sp/hard\libm.a(lib_a-s_ceil.o)
 .debug_frame   0x00000000       0x30 c:/vsarm/armcc/bin/../lib/gcc/arm-none-eabi/7.3.1/../../../../arm-none-eabi/lib/thumb/v7e-m/fpv4-sp/hard\libm.a(lib_a-s_ceil.o)
 .ARM.attributes
                0x00000000       0x34 c:/vsarm/armcc/bin/../lib/gcc/arm-none-eabi/7.3.1/../../../../arm-none-eabi/lib/thumb/v7e-m/fpv4-sp/hard\libm.a(lib_a-s_ceil.o)
 .text          0x00000000        0x0 c:/vsarm/armcc/bin/../lib/gcc/arm-none-eabi/7.3.1/../../../../arm-none-eabi/lib/thumb/v7e-m/fpv4-sp/hard\libm.a(lib_a-s_floor.o)
 .data          0x00000000        0x0 c:/vsarm/armcc/bin/../lib/gcc/arm-none-eabi/7.3.1/../../../../arm-none-eabi/lib/thumb/v7e-m/fpv4-sp/hard\libm.a(lib_a-s_floor.o)
 .bss           0x00000000        0x0 c:/vsarm/armcc/bin/../lib/gcc/arm-none-eabi/7.3.1/../../../../arm-none-eabi/lib/thumb/v7e-m/fpv4-sp/hard\libm.a(lib_a-s_floor.o)
 .text.floor    0x00000000      0x110 c:/vsarm/armcc/bin/../lib/gcc/arm-none-eabi/7.3.1/../../../../arm-none-eabi/lib/thumb/v7e-m/fpv4-sp/hard\libm.a(lib_a-s_floor.o)
 .debug_frame   0x00000000       0x30 c:/vsarm/armcc/bin/../lib/gcc/arm-none-eabi/7.3.1/../../../../arm-none-eabi/lib/thumb/v7e-m/fpv4-sp/hard\libm.a(lib_a-s_floor.o)
 .ARM.attributes
                0x00000000       0x34 c:/vsarm/armcc/bin/../lib/gcc/arm-none-eabi/7.3.1/../../../../arm-none-eabi/lib/thumb/v7e-m/fpv4-sp/hard\libm.a(lib_a-s_floor.o)
 .text          0x00000000      0x110 c:/vsarm/armcc/bin/../lib/gcc/arm-none-eabi/7.3.1/thumb/v7e-m/fpv4-sp/hard\libgcc.a(_arm_cmpdf2.o)
 .data          0x00000000        0x0 c:/vsarm/armcc/bin/../lib/gcc/arm-none-eabi/7.3.1/thumb/v7e-m/fpv4-sp/hard\libgcc.a(_arm_cmpdf2.o)
 .bss           0x00000000        0x0 c:/vsarm/armcc/bin/../lib/gcc/arm-none-eabi/7.3.1/thumb/v7e-m/fpv4-sp/hard\libgcc.a(_arm_cmpdf2.o)
 .debug_frame   0x00000000       0xc4 c:/vsarm/armcc/bin/../lib/gcc/arm-none-eabi/7.3.1/thumb/v7e-m/fpv4-sp/hard\libgcc.a(_arm_cmpdf2.o)
 .ARM.attributes
                0x00000000       0x22 c:/vsarm/armcc/bin/../lib/gcc/arm-none-eabi/7.3.1/thumb/v7e-m/fpv4-sp/hard\libgcc.a(_arm_cmpdf2.o)

Memory Configuration

Name             Origin             Length             Attributes
RAM              0x20000000         0x00050000         xrw
FLASH            0x08000000         0x00100000         xr
GUI_Memory       0xc0300000         0x00500000         xr
*default*        0x00000000         0xffffffff

Linker script and memory map

LOAD c:/vsarm/armcc/bin/../lib/gcc/arm-none-eabi/7.3.1/thumb/v7e-m/fpv4-sp/hard/crti.o
LOAD c:/vsarm/armcc/bin/../lib/gcc/arm-none-eabi/7.3.1/thumb/v7e-m/fpv4-sp/hard/crtbegin.o
LOAD c:/vsarm/armcc/bin/../lib/gcc/arm-none-eabi/7.3.1/../../../../arm-none-eabi/lib/thumb/v7e-m/fpv4-sp/hard/crt0.o
LOAD build/main.o
LOAD build/stm32f7xx_it.o
LOAD build/stm32f7xx_hal_ltdc_ex.o
LOAD build/stm32f7xx_hal.o
LOAD build/stm32f7xx_hal_uart.o
LOAD build/stm32f7xx_hal_rcc_ex.o
LOAD build/stm32f7xx_hal_dsi.o
LOAD build/stm32f7xx_hal_crc.o
LOAD build/stm32f7xx_hal_ltdc.o
LOAD build/stm32f7xx_hal_pwr_ex.o
LOAD build/stm32f7xx_hal_sdram.o
LOAD build/stm32f7xx_hal_flash.o
LOAD build/stm32f7xx_hal_rcc.o
LOAD build/stm32f7xx_hal_dma_ex.o
LOAD build/stm32f7xx_hal_i2c.o
LOAD build/stm32f7xx_hal_pwr.o
LOAD build/stm32f7xx_hal_dma.o
LOAD build/stm32f7xx_hal_uart_ex.o
LOAD build/stm32f7xx_hal_tim_ex.o
LOAD build/stm32f7xx_hal_cortex.o
LOAD build/stm32f7xx_ll_fmc.o
LOAD build/stm32f7xx_hal_flash_ex.o
LOAD build/stm32f7xx_hal_exti.o
LOAD build/stm32f7xx_hal_gpio.o
LOAD build/stm32f7xx_hal_dma2d.o
LOAD build/stm32f7xx_hal_tim.o
LOAD build/stm32f7xx_hal_i2c_ex.o
LOAD build/stm32f7xx_hal_crc_ex.o
LOAD build/system_stm32f7xx.o
LOAD build/ft5336.o
LOAD build/wm8994.o
LOAD build/stm32746g_discovery.o
LOAD build/stm32746g_discovery_lcd.o
LOAD build/stm32746g_discovery_ts.o
LOAD build/stm32746g_discovery_sdram.o
LOAD build/stm32746g_discovery_eeprom.o
LOAD build/GUIConf.o
LOAD build/LCDConf.o
LOAD build/GUI_X.o
LOAD build/FramewinDLG.o
LOAD build/startup_stm32f746xx.o
LOAD c:/vsarm/armcc/bin/../lib/gcc/arm-none-eabi/7.3.1/../../../../arm-none-eabi/lib/thumb/v7e-m/fpv4-sp/hard\libc_nano.a
LOAD c:/vsarm/armcc/bin/../lib/gcc/arm-none-eabi/7.3.1/../../../../arm-none-eabi/lib/thumb/v7e-m/fpv4-sp/hard\libm.a
LOAD c:/vsarm/armcc/bin/../lib/gcc/arm-none-eabi/7.3.1/../../../../arm-none-eabi/lib/thumb/v7e-m/fpv4-sp/hard\libnosys.a
LOAD Middlewares/STemWin/Lib/STemWin_CM7_wc32.a
START GROUP
LOAD c:/vsarm/armcc/bin/../lib/gcc/arm-none-eabi/7.3.1/thumb/v7e-m/fpv4-sp/hard\libgcc.a
LOAD c:/vsarm/armcc/bin/../lib/gcc/arm-none-eabi/7.3.1/../../../../arm-none-eabi/lib/thumb/v7e-m/fpv4-sp/hard\libc_nano.a
END GROUP
START GROUP
LOAD c:/vsarm/armcc/bin/../lib/gcc/arm-none-eabi/7.3.1/thumb/v7e-m/fpv4-sp/hard\libgcc.a
LOAD c:/vsarm/armcc/bin/../lib/gcc/arm-none-eabi/7.3.1/../../../../arm-none-eabi/lib/thumb/v7e-m/fpv4-sp/hard\libc_nano.a
END GROUP
LOAD c:/vsarm/armcc/bin/../lib/gcc/arm-none-eabi/7.3.1/thumb/v7e-m/fpv4-sp/hard/crtend.o
LOAD c:/vsarm/armcc/bin/../lib/gcc/arm-none-eabi/7.3.1/thumb/v7e-m/fpv4-sp/hard/crtn.o
                0x20050000                _estack = 0x20050000
                0x00000200                _Min_Heap_Size = 0x200
                0x00000460                _Min_Stack_Size = 0x460

.isr_vector     0x08000000      0x1c8
                0x08000000                . = ALIGN (0x4)
 *(.isr_vector)
 .isr_vector    0x08000000      0x1c8 build/startup_stm32f746xx.o
                0x08000000                g_pfnVectors
                0x080001c8                . = ALIGN (0x4)

.text           0x080001c8    0x11270
                0x080001c8                . = ALIGN (0x4)
 *(.text)
 .text          0x080001c8       0x40 c:/vsarm/armcc/bin/../lib/gcc/arm-none-eabi/7.3.1/thumb/v7e-m/fpv4-sp/hard/crtbegin.o
 .text          0x08000208       0x30 c:/vsarm/armcc/bin/../lib/gcc/arm-none-eabi/7.3.1/thumb/v7e-m/fpv4-sp/hard\libgcc.a(_aeabi_uldivmod.o)
                0x08000208                __aeabi_uldivmod
 .text          0x08000238      0x2cc c:/vsarm/armcc/bin/../lib/gcc/arm-none-eabi/7.3.1/thumb/v7e-m/fpv4-sp/hard\libgcc.a(_udivmoddi4.o)
                0x08000238                __udivmoddi4
 .text          0x08000504        0x4 c:/vsarm/armcc/bin/../lib/gcc/arm-none-eabi/7.3.1/thumb/v7e-m/fpv4-sp/hard\libgcc.a(_dvmd_tls.o)
                0x08000504                __aeabi_idiv0
                0x08000504                __aeabi_ldiv0
 .text          0x08000508       0x10 c:/vsarm/armcc/bin/../lib/gcc/arm-none-eabi/7.3.1/../../../../arm-none-eabi/lib/thumb/v7e-m/fpv4-sp/hard\libc_nano.a(lib_a-strlen.o)
                0x08000508                strlen
 *(.text*)
 .text.MX_GPIO_Init
                0x08000518      0x104 build/main.o
 .text.MX_DMA_Init
                0x0800061c       0x5c build/main.o
 .text.MX_CRC_Init
                0x08000678       0x24 build/main.o
 .text.MX_USART6_UART_Init
                0x0800069c       0x30 build/main.o
 .text.MX_I2C2_Init
                0x080006cc       0x44 build/main.o
 .text.MX_DMA2D_Init
                0x08000710       0x30 build/main.o
 .text.MX_FMC_Init
                0x08000740       0x4c build/main.o
 .text.MX_LTDC_Init
                0x0800078c       0xe8 build/main.o
 .text._write   0x08000874       0x52 build/main.o
                0x08000874                _write
 *fill*         0x080008c6        0x2 
 .text.HAL_SYSTICK_Callback
                0x080008c8       0x10 build/main.o
                0x080008c8                HAL_SYSTICK_Callback
 .text.SystemClock_Config
                0x080008d8       0xd0 build/main.o
                0x080008d8                SystemClock_Config
 .text.main     0x080009a8      0x140 build/main.o
                0x080009a8                main
 .text.NMI_Handler
                0x08000ae8        0x2 build/stm32f7xx_it.o
                0x08000ae8                NMI_Handler
 .text.HardFault_Handler
                0x08000aea        0x2 build/stm32f7xx_it.o
                0x08000aea                HardFault_Handler
 .text.MemManage_Handler
                0x08000aec        0x2 build/stm32f7xx_it.o
                0x08000aec                MemManage_Handler
 .text.BusFault_Handler
                0x08000aee        0x2 build/stm32f7xx_it.o
                0x08000aee                BusFault_Handler
 .text.UsageFault_Handler
                0x08000af0        0x2 build/stm32f7xx_it.o
                0x08000af0                UsageFault_Handler
 .text.DebugMon_Handler
                0x08000af2        0x2 build/stm32f7xx_it.o
                0x08000af2                DebugMon_Handler
 .text.SysTick_Handler
                0x08000af4        0xc build/stm32f7xx_it.o
                0x08000af4                SysTick_Handler
 .text.LTDC_IRQHandler
                0x08000b00       0x10 build/stm32f7xx_it.o
                0x08000b00                LTDC_IRQHandler
 .text.DMA2D_IRQHandler
                0x08000b10       0x10 build/stm32f7xx_it.o
                0x08000b10                DMA2D_IRQHandler
 .text.HAL_MspInit
                0x08000b20        0x2 build/stm32f7xx_hal.o
                0x08000b20                HAL_MspInit
 *fill*         0x08000b22        0x2 
 .text.HAL_InitTick
                0x08000b24       0x4c build/stm32f7xx_hal.o
                0x08000b24                HAL_InitTick
 .text.HAL_Init
                0x08000b70       0x16 build/stm32f7xx_hal.o
                0x08000b70                HAL_Init
 *fill*         0x08000b86        0x2 
 .text.HAL_IncTick
                0x08000b88       0x18 build/stm32f7xx_hal.o
                0x08000b88                HAL_IncTick
 .text.HAL_GetTick
                0x08000ba0        0xc build/stm32f7xx_hal.o
                0x08000ba0                HAL_GetTick
 .text.HAL_Delay
                0x08000bac       0x28 build/stm32f7xx_hal.o
                0x08000bac                HAL_Delay
 .text.HAL_UART_MspInit
                0x08000bd4        0x2 build/stm32f7xx_hal_uart.o
                0x08000bd4                HAL_UART_MspInit
 *fill*         0x08000bd6        0x2 
 .text.UART_SetConfig
                0x08000bd8      0x370 build/stm32f7xx_hal_uart.o
                0x08000bd8                UART_SetConfig
 .text.UART_AdvFeatureConfig
                0x08000f48       0xca build/stm32f7xx_hal_uart.o
                0x08000f48                UART_AdvFeatureConfig
 .text.UART_WaitOnFlagUntilTimeout
                0x08001012       0x9c build/stm32f7xx_hal_uart.o
                0x08001012                UART_WaitOnFlagUntilTimeout
 .text.UART_CheckIdleState
                0x080010ae       0x44 build/stm32f7xx_hal_uart.o
                0x080010ae                UART_CheckIdleState
 .text.HAL_UART_Init
                0x080010f2       0x62 build/stm32f7xx_hal_uart.o
                0x080010f2                HAL_UART_Init
 .text.HAL_RCCEx_PeriphCLKConfig
                0x08001154      0x5ac build/stm32f7xx_hal_rcc_ex.o
                0x08001154                HAL_RCCEx_PeriphCLKConfig
 .text.HAL_CRC_MspInit
                0x08001700        0x2 build/stm32f7xx_hal_crc.o
                0x08001700                HAL_CRC_MspInit
 *fill*         0x08001702        0x2 
 .text.HAL_CRC_Init
                0x08001704       0x80 build/stm32f7xx_hal_crc.o
                0x08001704                HAL_CRC_Init
 .text.LTDC_SetConfig
                0x08001784      0x194 build/stm32f7xx_hal_ltdc.o
 .text.HAL_LTDC_Init
                0x08001918       0xf4 build/stm32f7xx_hal_ltdc.o
                0x08001918                HAL_LTDC_Init
 .text.HAL_LTDC_DeInit
                0x08001a0c       0x18 build/stm32f7xx_hal_ltdc.o
                0x08001a0c                HAL_LTDC_DeInit
 .text.HAL_LTDC_ErrorCallback
                0x08001a24        0x2 build/stm32f7xx_hal_ltdc.o
                0x08001a24                HAL_LTDC_ErrorCallback
 .text.HAL_LTDC_ReloadEventCallback
                0x08001a26        0x2 build/stm32f7xx_hal_ltdc.o
                0x08001a26                HAL_LTDC_ReloadEventCallback
 .text.HAL_LTDC_IRQHandler
                0x08001a28       0xda build/stm32f7xx_hal_ltdc.o
                0x08001a28                HAL_LTDC_IRQHandler
 .text.HAL_LTDC_ConfigLayer
                0x08001b02       0x5c build/stm32f7xx_hal_ltdc.o
                0x08001b02                HAL_LTDC_ConfigLayer
 .text.HAL_LTDC_ConfigColorKeying
                0x08001b5e       0x48 build/stm32f7xx_hal_ltdc.o
                0x08001b5e                HAL_LTDC_ConfigColorKeying
 .text.HAL_LTDC_ConfigCLUT
                0x08001ba6       0x7c build/stm32f7xx_hal_ltdc.o
                0x08001ba6                HAL_LTDC_ConfigCLUT
 .text.HAL_LTDC_EnableColorKeying
                0x08001c22       0x3c build/stm32f7xx_hal_ltdc.o
                0x08001c22                HAL_LTDC_EnableColorKeying
 .text.HAL_LTDC_DisableColorKeying
                0x08001c5e       0x3c build/stm32f7xx_hal_ltdc.o
                0x08001c5e                HAL_LTDC_DisableColorKeying
 .text.HAL_LTDC_EnableCLUT
                0x08001c9a       0x3c build/stm32f7xx_hal_ltdc.o
                0x08001c9a                HAL_LTDC_EnableCLUT
 *fill*         0x08001cd6        0x2 
 .text.HAL_LTDC_EnableDither
                0x08001cd8       0x34 build/stm32f7xx_hal_ltdc.o
                0x08001cd8                HAL_LTDC_EnableDither
 .text.HAL_LTDC_SetWindowPosition
                0x08001d0c       0x52 build/stm32f7xx_hal_ltdc.o
                0x08001d0c                HAL_LTDC_SetWindowPosition
 .text.HAL_LTDC_SetAlpha
                0x08001d5e       0x42 build/stm32f7xx_hal_ltdc.o
                0x08001d5e                HAL_LTDC_SetAlpha
 .text.HAL_LTDC_SetAddress
                0x08001da0       0x42 build/stm32f7xx_hal_ltdc.o
                0x08001da0                HAL_LTDC_SetAddress
 *fill*         0x08001de2        0x2 
 .text.HAL_LTDC_ProgramLineEvent
                0x08001de4       0x48 build/stm32f7xx_hal_ltdc.o
                0x08001de4                HAL_LTDC_ProgramLineEvent
 .text.HAL_PWREx_EnableOverDrive
                0x08001e2c       0x7c build/stm32f7xx_hal_pwr_ex.o
                0x08001e2c                HAL_PWREx_EnableOverDrive
 .text.HAL_SDRAM_MspInit
                0x08001ea8        0x2 build/stm32f7xx_hal_sdram.o
                0x08001ea8                HAL_SDRAM_MspInit
 .text.HAL_SDRAM_Init
                0x08001eaa       0x3e build/stm32f7xx_hal_sdram.o
                0x08001eaa                HAL_SDRAM_Init
 .text.HAL_SDRAM_SendCommand
                0x08001ee8       0x3a build/stm32f7xx_hal_sdram.o
                0x08001ee8                HAL_SDRAM_SendCommand
 .text.HAL_SDRAM_ProgramRefreshRate
                0x08001f22       0x28 build/stm32f7xx_hal_sdram.o
                0x08001f22                HAL_SDRAM_ProgramRefreshRate
 *fill*         0x08001f4a        0x2 
 .text.HAL_RCC_OscConfig
                0x08001f4c      0x434 build/stm32f7xx_hal_rcc.o
                0x08001f4c                HAL_RCC_OscConfig
 .text.HAL_RCC_GetSysClockFreq
                0x08002380       0xa8 build/stm32f7xx_hal_rcc.o
                0x08002380                HAL_RCC_GetSysClockFreq
 .text.HAL_RCC_ClockConfig
                0x08002428      0x168 build/stm32f7xx_hal_rcc.o
                0x08002428                HAL_RCC_ClockConfig
 .text.HAL_RCC_GetHCLKFreq
                0x08002590        0xc build/stm32f7xx_hal_rcc.o
                0x08002590                HAL_RCC_GetHCLKFreq
 .text.HAL_RCC_GetPCLK1Freq
                0x0800259c       0x20 build/stm32f7xx_hal_rcc.o
                0x0800259c                HAL_RCC_GetPCLK1Freq
 .text.HAL_RCC_GetPCLK2Freq
                0x080025bc       0x20 build/stm32f7xx_hal_rcc.o
                0x080025bc                HAL_RCC_GetPCLK2Freq
 .text.HAL_I2C_MspInit
                0x080025dc        0x2 build/stm32f7xx_hal_i2c.o
                0x080025dc                HAL_I2C_MspInit
 *fill*         0x080025de        0x2 
 .text.HAL_I2C_Init
                0x080025e0       0xbc build/stm32f7xx_hal_i2c.o
                0x080025e0                HAL_I2C_Init
 .text.HAL_PWR_EnableBkUpAccess
                0x0800269c       0x10 build/stm32f7xx_hal_pwr.o
                0x0800269c                HAL_PWR_EnableBkUpAccess
 .text.DMA_CalcBaseAndBitshift
                0x080026ac       0x38 build/stm32f7xx_hal_dma.o
 .text.DMA_CheckFifoParam
                0x080026e4       0x8e build/stm32f7xx_hal_dma.o
 *fill*         0x08002772        0x2 
 .text.HAL_DMA_Init
                0x08002774       0xcc build/stm32f7xx_hal_dma.o
                0x08002774                HAL_DMA_Init
 .text.HAL_DMA_DeInit
                0x08002840       0x66 build/stm32f7xx_hal_dma.o
                0x08002840                HAL_DMA_DeInit
 *fill*         0x080028a6        0x2 
 .text.HAL_NVIC_SetPriorityGrouping
                0x080028a8       0x24 build/stm32f7xx_hal_cortex.o
                0x080028a8                HAL_NVIC_SetPriorityGrouping
 .text.HAL_NVIC_SetPriority
                0x080028cc       0x64 build/stm32f7xx_hal_cortex.o
                0x080028cc                HAL_NVIC_SetPriority
 .text.HAL_NVIC_EnableIRQ
                0x08002930       0x1c build/stm32f7xx_hal_cortex.o
                0x08002930                HAL_NVIC_EnableIRQ
 .text.HAL_SYSTICK_Config
                0x0800294c       0x2c build/stm32f7xx_hal_cortex.o
                0x0800294c                HAL_SYSTICK_Config
 .text.HAL_SYSTICK_IRQHandler
                0x08002978        0x8 build/stm32f7xx_hal_cortex.o
                0x08002978                HAL_SYSTICK_IRQHandler
 .text.FMC_SDRAM_Init
                0x08002980       0x74 build/stm32f7xx_ll_fmc.o
                0x08002980                FMC_SDRAM_Init
 .text.FMC_SDRAM_Timing_Init
                0x080029f4       0x98 build/stm32f7xx_ll_fmc.o
                0x080029f4                FMC_SDRAM_Timing_Init
 .text.FMC_SDRAM_SendCommand
                0x08002a8c       0x2c build/stm32f7xx_ll_fmc.o
                0x08002a8c                FMC_SDRAM_SendCommand
 .text.FMC_SDRAM_ProgramRefreshRate
                0x08002ab8        0xc build/stm32f7xx_ll_fmc.o
                0x08002ab8                FMC_SDRAM_ProgramRefreshRate
 .text.HAL_GPIO_Init
                0x08002ac4      0x1dc build/stm32f7xx_hal_gpio.o
                0x08002ac4                HAL_GPIO_Init
 .text.HAL_GPIO_WritePin
                0x08002ca0        0xc build/stm32f7xx_hal_gpio.o
                0x08002ca0                HAL_GPIO_WritePin
 .text.HAL_GPIO_TogglePin
                0x08002cac       0x10 build/stm32f7xx_hal_gpio.o
                0x08002cac                HAL_GPIO_TogglePin
 .text.HAL_DMA2D_Init
                0x08002cbc       0x5c build/stm32f7xx_hal_dma2d.o
                0x08002cbc                HAL_DMA2D_Init
 .text.HAL_DMA2D_LineEventCallback
                0x08002d18        0x2 build/stm32f7xx_hal_dma2d.o
                0x08002d18                HAL_DMA2D_LineEventCallback
 .text.HAL_DMA2D_CLUTLoadingCpltCallback
                0x08002d1a        0x2 build/stm32f7xx_hal_dma2d.o
                0x08002d1a                HAL_DMA2D_CLUTLoadingCpltCallback
 .text.HAL_DMA2D_IRQHandler
                0x08002d1c      0x13c build/stm32f7xx_hal_dma2d.o
                0x08002d1c                HAL_DMA2D_IRQHandler
 .text.HAL_DMA2D_ConfigLayer
                0x08002e58       0xc4 build/stm32f7xx_hal_dma2d.o
                0x08002e58                HAL_DMA2D_ConfigLayer
 .text.HAL_I2CEx_ConfigAnalogFilter
                0x08002f1c       0x5c build/stm32f7xx_hal_i2c_ex.o
                0x08002f1c                HAL_I2CEx_ConfigAnalogFilter
 .text.HAL_I2CEx_ConfigDigitalFilter
                0x08002f78       0x58 build/stm32f7xx_hal_i2c_ex.o
                0x08002f78                HAL_I2CEx_ConfigDigitalFilter
 .text.HAL_CRCEx_Polynomial_Set
                0x08002fd0       0x6c build/stm32f7xx_hal_crc_ex.o
                0x08002fd0                HAL_CRCEx_Polynomial_Set
 .text.SystemInit
                0x0800303c       0x1c build/system_stm32f7xx.o
                0x0800303c                SystemInit
 .text.BSP_LED_Init
                0x08003058       0x4c build/stm32746g_discovery.o
                0x08003058                BSP_LED_Init
 .text.BSP_SDRAM_Initialization_sequence
                0x080030a4       0x9c build/stm32746g_discovery_sdram.o
                0x080030a4                BSP_SDRAM_Initialization_sequence
 .text.BSP_SDRAM_MspInit
                0x08003140      0x17c build/stm32746g_discovery_sdram.o
                0x08003140                BSP_SDRAM_MspInit
 .text.BSP_SDRAM_Init
                0x080032bc       0x80 build/stm32746g_discovery_sdram.o
                0x080032bc                BSP_SDRAM_Init
 .text.GUI_X_Config
                0x0800333c       0x14 build/GUIConf.o
                0x0800333c                GUI_X_Config
 .text.DMA2D_CopyBuffer
                0x08003350       0x44 build/LCDConf.o
 .text.DMA2D_FillBuffer
                0x08003394       0x40 build/LCDConf.o
 .text.GetBufferSize
                0x080033d4       0x2c build/LCDConf.o
 .text.CUSTOM_CopyBuffer
                0x08003400       0x48 build/LCDConf.o
 .text.CUSTOM_CopyRect
                0x08003448       0x40 build/LCDConf.o
 .text.CUSTOM_DrawBitmap32bpp
                0x08003488       0x78 build/LCDConf.o
 .text.CUSTOM_FillRect
                0x08003500       0xa0 build/LCDConf.o
 .text.LCD_LL_Init
                0x080035a0       0xac build/LCDConf.o
 .text.LCD_LL_LayerInit
                0x0800364c       0x6c build/LCDConf.o
 .text.HAL_DMA2D_MspInit
                0x080036b8       0x20 build/LCDConf.o
                0x080036b8                HAL_DMA2D_MspInit
 .text.HAL_LTDC_MspInit
                0x080036d8      0x14c build/LCDConf.o
                0x080036d8                HAL_LTDC_MspInit
 .text.HAL_LTDC_MspDeInit
                0x08003824       0x18 build/LCDConf.o
                0x08003824                HAL_LTDC_MspDeInit
 .text.HAL_LTDC_LineEventCallback
                0x0800383c       0x68 build/LCDConf.o
                0x0800383c                HAL_LTDC_LineEventCallback
 .text.LCD_X_Config
                0x080038a4       0xe4 build/LCDConf.o
                0x080038a4                LCD_X_Config
 .text.LCD_X_DisplayDriver
                0x08003988      0x168 build/LCDConf.o
                0x08003988                LCD_X_DisplayDriver
 .text.GUI_X_GetTime
                0x08003af0        0xc build/GUI_X.o
                0x08003af0                GUI_X_GetTime
 .text.GUI_X_Delay
                0x08003afc       0x18 build/GUI_X.o
                0x08003afc                GUI_X_Delay
 .text.GUI_X_Init
                0x08003b14        0x2 build/GUI_X.o
                0x08003b14                GUI_X_Init
 *fill*         0x08003b16        0x2 
 .text._cbDialog
                0x08003b18       0x28 build/FramewinDLG.o
 .text.CreateFramewin
                0x08003b40       0xac build/FramewinDLG.o
                0x08003b40                CreateFramewin
 .text.Reset_Handler
                0x08003bec       0x50 build/startup_stm32f746xx.o
                0x08003bec                Reset_Handler
 .text.Default_Handler
                0x08003c3c        0x2 build/startup_stm32f746xx.o
                0x08003c3c                RTC_Alarm_IRQHandler
                0x08003c3c                EXTI2_IRQHandler
                0x08003c3c                TIM8_CC_IRQHandler
                0x08003c3c                UART8_IRQHandler
                0x08003c3c                SPI4_IRQHandler
                0x08003c3c                TIM1_CC_IRQHandler
                0x08003c3c                DMA2_Stream5_IRQHandler
                0x08003c3c                DMA1_Stream5_IRQHandler
                0x08003c3c                PVD_IRQHandler
                0x08003c3c                TAMP_STAMP_IRQHandler
                0x08003c3c                PendSV_Handler
                0x08003c3c                CAN2_RX1_IRQHandler
                0x08003c3c                EXTI3_IRQHandler
                0x08003c3c                TIM8_TRG_COM_TIM14_IRQHandler
                0x08003c3c                TIM1_UP_TIM10_IRQHandler
                0x08003c3c                TIM8_UP_TIM13_IRQHandler
                0x08003c3c                I2C3_ER_IRQHandler
                0x08003c3c                EXTI0_IRQHandler
                0x08003c3c                I2C2_EV_IRQHandler
                0x08003c3c                DMA1_Stream2_IRQHandler
                0x08003c3c                CAN1_RX0_IRQHandler
                0x08003c3c                FPU_IRQHandler
                0x08003c3c                OTG_HS_WKUP_IRQHandler
                0x08003c3c                LTDC_ER_IRQHandler
                0x08003c3c                CAN2_SCE_IRQHandler
                0x08003c3c                DMA2_Stream2_IRQHandler
                0x08003c3c                SPI1_IRQHandler
                0x08003c3c                TIM6_DAC_IRQHandler
                0x08003c3c                TIM1_BRK_TIM9_IRQHandler
                0x08003c3c                DCMI_IRQHandler
                0x08003c3c                CAN2_RX0_IRQHandler
                0x08003c3c                DMA2_Stream3_IRQHandler
                0x08003c3c                SAI2_IRQHandler
                0x08003c3c                USART6_IRQHandler
                0x08003c3c                USART3_IRQHandler
                0x08003c3c                CAN1_RX1_IRQHandler
                0x08003c3c                UART5_IRQHandler
                0x08003c3c                DMA2_Stream0_IRQHandler
                0x08003c3c                TIM4_IRQHandler
                0x08003c3c                QUADSPI_IRQHandler
                0x08003c3c                I2C1_EV_IRQHandler
                0x08003c3c                DMA1_Stream6_IRQHandler
                0x08003c3c                DMA1_Stream1_IRQHandler
                0x08003c3c                UART4_IRQHandler
                0x08003c3c                TIM3_IRQHandler
                0x08003c3c                RCC_IRQHandler
                0x08003c3c                TIM8_BRK_TIM12_IRQHandler
                0x08003c3c                Default_Handler
                0x08003c3c                CEC_IRQHandler
                0x08003c3c                EXTI15_10_IRQHandler
                0x08003c3c                ADC_IRQHandler
                0x08003c3c                DMA1_Stream7_IRQHandler
                0x08003c3c                SPI5_IRQHandler
                0x08003c3c                TIM7_IRQHandler
                0x08003c3c                SDMMC1_IRQHandler
                0x08003c3c                CAN2_TX_IRQHandler
                0x08003c3c                TIM5_IRQHandler
                0x08003c3c                DMA2_Stream7_IRQHandler
                0x08003c3c                I2C3_EV_IRQHandler
                0x08003c3c                EXTI9_5_IRQHandler
                0x08003c3c                RTC_WKUP_IRQHandler
                0x08003c3c                ETH_WKUP_IRQHandler
                0x08003c3c                SPDIF_RX_IRQHandler
                0x08003c3c                SPI2_IRQHandler
                0x08003c3c                OTG_HS_EP1_IN_IRQHandler
                0x08003c3c                DMA1_Stream0_IRQHandler
                0x08003c3c                CAN1_TX_IRQHandler
                0x08003c3c                SVC_Handler
                0x08003c3c                EXTI4_IRQHandler
                0x08003c3c                RNG_IRQHandler
                0x08003c3c                ETH_IRQHandler
                0x08003c3c                OTG_HS_EP1_OUT_IRQHandler
                0x08003c3c                WWDG_IRQHandler
                0x08003c3c                SPI6_IRQHandler
                0x08003c3c                I2C4_EV_IRQHandler
                0x08003c3c                TIM2_IRQHandler
                0x08003c3c                OTG_FS_WKUP_IRQHandler
                0x08003c3c                TIM1_TRG_COM_TIM11_IRQHandler
                0x08003c3c                OTG_HS_IRQHandler
                0x08003c3c                EXTI1_IRQHandler
                0x08003c3c                UART7_IRQHandler
                0x08003c3c                USART2_IRQHandler
                0x08003c3c                I2C2_ER_IRQHandler
                0x08003c3c                DMA2_Stream1_IRQHandler
                0x08003c3c                CAN1_SCE_IRQHandler
                0x08003c3c                FLASH_IRQHandler
                0x08003c3c                DMA2_Stream4_IRQHandler
                0x08003c3c                USART1_IRQHandler
                0x08003c3c                OTG_FS_IRQHandler
                0x08003c3c                SPI3_IRQHandler
                0x08003c3c                DMA1_Stream4_IRQHandler
                0x08003c3c                I2C1_ER_IRQHandler
                0x08003c3c                FMC_IRQHandler
                0x08003c3c                LPTIM1_IRQHandler
                0x08003c3c                I2C4_ER_IRQHandler
                0x08003c3c                DMA2_Stream6_IRQHandler
                0x08003c3c                SAI1_IRQHandler
                0x08003c3c                DMA1_Stream3_IRQHandler
 *fill*         0x08003c3e        0x2 
 .text.__libc_init_array
                0x08003c40       0x48 c:/vsarm/armcc/bin/../lib/gcc/arm-none-eabi/7.3.1/../../../../arm-none-eabi/lib/thumb/v7e-m/fpv4-sp/hard\libc_nano.a(lib_a-init.o)
                0x08003c40                __libc_init_array
 .text.memset   0x08003c88       0x10 c:/vsarm/armcc/bin/../lib/gcc/arm-none-eabi/7.3.1/../../../../arm-none-eabi/lib/thumb/v7e-m/fpv4-sp/hard\libc_nano.a(lib_a-memset.o)
                0x08003c88                memset
 .text._puts_r  0x08003c98       0xb8 c:/vsarm/armcc/bin/../lib/gcc/arm-none-eabi/7.3.1/../../../../arm-none-eabi/lib/thumb/v7e-m/fpv4-sp/hard\libc_nano.a(lib_a-puts.o)
                0x08003c98                _puts_r
 .text.puts     0x08003d50       0x10 c:/vsarm/armcc/bin/../lib/gcc/arm-none-eabi/7.3.1/../../../../arm-none-eabi/lib/thumb/v7e-m/fpv4-sp/hard\libc_nano.a(lib_a-puts.o)
                0x08003d50                puts
 .text.__swbuf_r
                0x08003d60       0xa4 c:/vsarm/armcc/bin/../lib/gcc/arm-none-eabi/7.3.1/../../../../arm-none-eabi/lib/thumb/v7e-m/fpv4-sp/hard\libc_nano.a(lib_a-wbuf.o)
                0x08003d60                __swbuf_r
 .text.__swsetup_r
                0x08003e04       0xdc c:/vsarm/armcc/bin/../lib/gcc/arm-none-eabi/7.3.1/../../../../arm-none-eabi/lib/thumb/v7e-m/fpv4-sp/hard\libc_nano.a(lib_a-wsetup.o)
                0x08003e04                __swsetup_r
 .text.__sflush_r
                0x08003ee0      0x10c c:/vsarm/armcc/bin/../lib/gcc/arm-none-eabi/7.3.1/../../../../arm-none-eabi/lib/thumb/v7e-m/fpv4-sp/hard\libc_nano.a(lib_a-fflush.o)
                0x08003ee0                __sflush_r
 .text._fflush_r
                0x08003fec       0x54 c:/vsarm/armcc/bin/../lib/gcc/arm-none-eabi/7.3.1/../../../../arm-none-eabi/lib/thumb/v7e-m/fpv4-sp/hard\libc_nano.a(lib_a-fflush.o)
                0x08003fec                _fflush_r
 .text.std      0x08004040       0x48 c:/vsarm/armcc/bin/../lib/gcc/arm-none-eabi/7.3.1/../../../../arm-none-eabi/lib/thumb/v7e-m/fpv4-sp/hard\libc_nano.a(lib_a-findfp.o)
 .text._cleanup_r
                0x08004088        0xc c:/vsarm/armcc/bin/../lib/gcc/arm-none-eabi/7.3.1/../../../../arm-none-eabi/lib/thumb/v7e-m/fpv4-sp/hard\libc_nano.a(lib_a-findfp.o)
                0x08004088                _cleanup_r
 .text.__sfmoreglue
                0x08004094       0x2c c:/vsarm/armcc/bin/../lib/gcc/arm-none-eabi/7.3.1/../../../../arm-none-eabi/lib/thumb/v7e-m/fpv4-sp/hard\libc_nano.a(lib_a-findfp.o)
                0x08004094                __sfmoreglue
 .text.__sinit  0x080040c0       0x60 c:/vsarm/armcc/bin/../lib/gcc/arm-none-eabi/7.3.1/../../../../arm-none-eabi/lib/thumb/v7e-m/fpv4-sp/hard\libc_nano.a(lib_a-findfp.o)
                0x080040c0                __sinit
 .text.__sfp    0x08004120       0x78 c:/vsarm/armcc/bin/../lib/gcc/arm-none-eabi/7.3.1/../../../../arm-none-eabi/lib/thumb/v7e-m/fpv4-sp/hard\libc_nano.a(lib_a-findfp.o)
                0x08004120                __sfp
 .text._fwalk_reent
                0x08004198       0x3c c:/vsarm/armcc/bin/../lib/gcc/arm-none-eabi/7.3.1/../../../../arm-none-eabi/lib/thumb/v7e-m/fpv4-sp/hard\libc_nano.a(lib_a-fwalk.o)
                0x08004198                _fwalk_reent
 .text.__swhatbuf_r
                0x080041d4       0x48 c:/vsarm/armcc/bin/../lib/gcc/arm-none-eabi/7.3.1/../../../../arm-none-eabi/lib/thumb/v7e-m/fpv4-sp/hard\libc_nano.a(lib_a-makebuf.o)
                0x080041d4                __swhatbuf_r
 .text.__smakebuf_r
                0x0800421c       0x80 c:/vsarm/armcc/bin/../lib/gcc/arm-none-eabi/7.3.1/../../../../arm-none-eabi/lib/thumb/v7e-m/fpv4-sp/hard\libc_nano.a(lib_a-makebuf.o)
                0x0800421c                __smakebuf_r
 .text._free_r  0x0800429c       0x9c c:/vsarm/armcc/bin/../lib/gcc/arm-none-eabi/7.3.1/../../../../arm-none-eabi/lib/thumb/v7e-m/fpv4-sp/hard\libc_nano.a(lib_a-nano-freer.o)
                0x0800429c                _free_r
 .text._malloc_r
                0x08004338       0xb4 c:/vsarm/armcc/bin/../lib/gcc/arm-none-eabi/7.3.1/../../../../arm-none-eabi/lib/thumb/v7e-m/fpv4-sp/hard\libc_nano.a(lib_a-nano-mallocr.o)
                0x08004338                _malloc_r
 .text._sbrk_r  0x080043ec       0x20 c:/vsarm/armcc/bin/../lib/gcc/arm-none-eabi/7.3.1/../../../../arm-none-eabi/lib/thumb/v7e-m/fpv4-sp/hard\libc_nano.a(lib_a-sbrkr.o)
                0x080043ec                _sbrk_r
 .text.__sread  0x0800440c       0x22 c:/vsarm/armcc/bin/../lib/gcc/arm-none-eabi/7.3.1/../../../../arm-none-eabi/lib/thumb/v7e-m/fpv4-sp/hard\libc_nano.a(lib_a-stdio.o)
                0x0800440c                __sread
 .text.__swrite
                0x0800442e       0x38 c:/vsarm/armcc/bin/../lib/gcc/arm-none-eabi/7.3.1/../../../../arm-none-eabi/lib/thumb/v7e-m/fpv4-sp/hard\libc_nano.a(lib_a-stdio.o)
                0x0800442e                __swrite
 .text.__sseek  0x08004466       0x24 c:/vsarm/armcc/bin/../lib/gcc/arm-none-eabi/7.3.1/../../../../arm-none-eabi/lib/thumb/v7e-m/fpv4-sp/hard\libc_nano.a(lib_a-stdio.o)
                0x08004466                __sseek
 .text.__sclose
                0x0800448a        0x8 c:/vsarm/armcc/bin/../lib/gcc/arm-none-eabi/7.3.1/../../../../arm-none-eabi/lib/thumb/v7e-m/fpv4-sp/hard\libc_nano.a(lib_a-stdio.o)
                0x0800448a                __sclose
 *fill*         0x08004492        0x2 
 .text._write_r
                0x08004494       0x24 c:/vsarm/armcc/bin/../lib/gcc/arm-none-eabi/7.3.1/../../../../arm-none-eabi/lib/thumb/v7e-m/fpv4-sp/hard\libc_nano.a(lib_a-writer.o)
                0x08004494                _write_r
 .text._close_r
                0x080044b8       0x20 c:/vsarm/armcc/bin/../lib/gcc/arm-none-eabi/7.3.1/../../../../arm-none-eabi/lib/thumb/v7e-m/fpv4-sp/hard\libc_nano.a(lib_a-closer.o)
                0x080044b8                _close_r
 .text._fstat_r
                0x080044d8       0x24 c:/vsarm/armcc/bin/../lib/gcc/arm-none-eabi/7.3.1/../../../../arm-none-eabi/lib/thumb/v7e-m/fpv4-sp/hard\libc_nano.a(lib_a-fstatr.o)
                0x080044d8                _fstat_r
 .text._isatty_r
                0x080044fc       0x20 c:/vsarm/armcc/bin/../lib/gcc/arm-none-eabi/7.3.1/../../../../arm-none-eabi/lib/thumb/v7e-m/fpv4-sp/hard\libc_nano.a(lib_a-isattyr.o)
                0x080044fc                _isatty_r
 .text._lseek_r
                0x0800451c       0x24 c:/vsarm/armcc/bin/../lib/gcc/arm-none-eabi/7.3.1/../../../../arm-none-eabi/lib/thumb/v7e-m/fpv4-sp/hard\libc_nano.a(lib_a-lseekr.o)
                0x0800451c                _lseek_r
 .text.__malloc_lock
                0x08004540        0x2 c:/vsarm/armcc/bin/../lib/gcc/arm-none-eabi/7.3.1/../../../../arm-none-eabi/lib/thumb/v7e-m/fpv4-sp/hard\libc_nano.a(lib_a-mlock.o)
                0x08004540                __malloc_lock
 .text.__malloc_unlock
                0x08004542        0x2 c:/vsarm/armcc/bin/../lib/gcc/arm-none-eabi/7.3.1/../../../../arm-none-eabi/lib/thumb/v7e-m/fpv4-sp/hard\libc_nano.a(lib_a-mlock.o)
                0x08004542                __malloc_unlock
 .text._read_r  0x08004544       0x24 c:/vsarm/armcc/bin/../lib/gcc/arm-none-eabi/7.3.1/../../../../arm-none-eabi/lib/thumb/v7e-m/fpv4-sp/hard\libc_nano.a(lib_a-readr.o)
                0x08004544                _read_r
 .text._close   0x08004568       0x10 c:/vsarm/armcc/bin/../lib/gcc/arm-none-eabi/7.3.1/../../../../arm-none-eabi/lib/thumb/v7e-m/fpv4-sp/hard\libnosys.a(close.o)
                0x08004568                _close
 .text._fstat   0x08004578       0x10 c:/vsarm/armcc/bin/../lib/gcc/arm-none-eabi/7.3.1/../../../../arm-none-eabi/lib/thumb/v7e-m/fpv4-sp/hard\libnosys.a(fstat.o)
                0x08004578                _fstat
 .text._isatty  0x08004588       0x10 c:/vsarm/armcc/bin/../lib/gcc/arm-none-eabi/7.3.1/../../../../arm-none-eabi/lib/thumb/v7e-m/fpv4-sp/hard\libnosys.a(isatty.o)
                0x08004588                _isatty
 .text._lseek   0x08004598       0x10 c:/vsarm/armcc/bin/../lib/gcc/arm-none-eabi/7.3.1/../../../../arm-none-eabi/lib/thumb/v7e-m/fpv4-sp/hard\libnosys.a(lseek.o)
                0x08004598                _lseek
 .text._read    0x080045a8       0x10 c:/vsarm/armcc/bin/../lib/gcc/arm-none-eabi/7.3.1/../../../../arm-none-eabi/lib/thumb/v7e-m/fpv4-sp/hard\libnosys.a(read.o)
                0x080045a8                _read
 .text._sbrk    0x080045b8       0x1c c:/vsarm/armcc/bin/../lib/gcc/arm-none-eabi/7.3.1/../../../../arm-none-eabi/lib/thumb/v7e-m/fpv4-sp/hard\libnosys.a(sbrk.o)
                0x080045b8                _sbrk
 .text._Color2Index_M8888I
                0x080045d4       0x1c Middlewares/STemWin/Lib/STemWin_CM7_wc32.a(GUICC_M8888I.o)
 .text._GetIndexMask_M8888I
                0x080045f0        0x6 Middlewares/STemWin/Lib/STemWin_CM7_wc32.a(GUICC_M8888I.o)
 *fill*         0x080045f6        0x2 
 .text._Color2IndexBulk_M8888I
                0x080045f8       0x58 Middlewares/STemWin/Lib/STemWin_CM7_wc32.a(GUICC_M8888I.o)
 .text._Index2ColorBulk_M8888I
                0x08004650       0x58 Middlewares/STemWin/Lib/STemWin_CM7_wc32.a(GUICC_M8888I.o)
 .text.LCD_Index2Color_M8888I
                0x080046a8       0x1c Middlewares/STemWin/Lib/STemWin_CM7_wc32.a(GUICC_M8888I_Index2Color.o)
                0x080046a8                LCD_Index2Color_M8888I
 .text._PushFreeBlock
                0x080046c4       0x24 Middlewares/STemWin/Lib/STemWin_CM7_wc32.a(GUI_Alloc.o)
 .text._RemoveFreeBlock
                0x080046e8       0x40 Middlewares/STemWin/Lib/STemWin_CM7_wc32.a(GUI_Alloc.o)
 .text._AddFreeMemory
                0x08004728       0xa4 Middlewares/STemWin/Lib/STemWin_CM7_wc32.a(GUI_Alloc.o)
 .text._RemoveHoles
                0x080047cc       0x98 Middlewares/STemWin/Lib/STemWin_CM7_wc32.a(GUI_Alloc.o)
 .text.GUI_ALLOC_FreeFixedBlock
                0x08004864       0x14 Middlewares/STemWin/Lib/STemWin_CM7_wc32.a(GUI_Alloc.o)
                0x08004864                GUI_ALLOC_FreeFixedBlock
 .text.GUI_ALLOC_h2p
                0x08004878       0x14 Middlewares/STemWin/Lib/STemWin_CM7_wc32.a(GUI_Alloc.o)
                0x08004878                GUI_ALLOC_h2p
 .text.GUI_ALLOC_LockH
                0x0800488c       0x1c Middlewares/STemWin/Lib/STemWin_CM7_wc32.a(GUI_Alloc.o)
                0x0800488c                GUI_ALLOC_LockH
 .text.GUI_ALLOC_UnlockH
                0x080048a8       0x30 Middlewares/STemWin/Lib/STemWin_CM7_wc32.a(GUI_Alloc.o)
                0x080048a8                GUI_ALLOC_UnlockH
 .text.GUI_ALLOC_AssignMemory
                0x080048d8       0x10 Middlewares/STemWin/Lib/STemWin_CM7_wc32.a(GUI_Alloc.o)
                0x080048d8                GUI_ALLOC_AssignMemory
 .text.GUI_ALLOC_GetSize
                0x080048e8       0x18 Middlewares/STemWin/Lib/STemWin_CM7_wc32.a(GUI_Alloc.o)
                0x080048e8                GUI_ALLOC_GetSize
 .text.GUI_ALLOC_Free
                0x08004900       0x28 Middlewares/STemWin/Lib/STemWin_CM7_wc32.a(GUI_Alloc.o)
                0x08004900                GUI_ALLOC_Free
 .text._EnlargeBlocks
                0x08004928       0x9c Middlewares/STemWin/Lib/STemWin_CM7_wc32.a(GUI_Alloc.o)
 .text._InitOnce
                0x080049c4       0x68 Middlewares/STemWin/Lib/STemWin_CM7_wc32.a(GUI_Alloc.o)
 .text.GUI_ALLOC_GetFixedBlock
                0x08004a2c       0xa4 Middlewares/STemWin/Lib/STemWin_CM7_wc32.a(GUI_Alloc.o)
                0x08004a2c                GUI_ALLOC_GetFixedBlock
 .text.GUI_ALLOC_GetMaxSize
                0x08004ad0       0x3c Middlewares/STemWin/Lib/STemWin_CM7_wc32.a(GUI_Alloc.o)
                0x08004ad0                GUI_ALLOC_GetMaxSize
 .text.GUI_ALLOC_RequestSize
                0x08004b0c       0x28 Middlewares/STemWin/Lib/STemWin_CM7_wc32.a(GUI_Alloc.o)
                0x08004b0c                GUI_ALLOC_RequestSize
 .text._Alloc   0x08004b34       0xf0 Middlewares/STemWin/Lib/STemWin_CM7_wc32.a(GUI_Alloc.o)
 .text.GUI_ALLOC_AllocNoInit
                0x08004c24        0x8 Middlewares/STemWin/Lib/STemWin_CM7_wc32.a(GUI_Alloc.o)
                0x08004c24                GUI_ALLOC_AllocNoInit
 .text.GUI_ALLOC_FreePtr
                0x08004c2c       0x10 Middlewares/STemWin/Lib/STemWin_CM7_wc32.a(GUI_Alloc.o)
                0x08004c2c                GUI_ALLOC_FreePtr
 .text.GUI_ALLOC_FreePtrArray
                0x08004c3c       0x1a Middlewares/STemWin/Lib/STemWin_CM7_wc32.a(GUI_Alloc.o)
                0x08004c3c                GUI_ALLOC_FreePtrArray
 *fill*         0x08004c56        0x2 
 .text.GUI_ALLOC_AllocZero
                0x08004c58       0x30 Middlewares/STemWin/Lib/STemWin_CM7_wc32.a(GUI_Alloc.o)
                0x08004c58                GUI_ALLOC_AllocZero
 .text.GUI_ALLOC_Realloc
                0x08004c88       0x5c Middlewares/STemWin/Lib/STemWin_CM7_wc32.a(GUI_Alloc.o)
                0x08004c88                GUI_ALLOC_Realloc
 .text.GUI__GetFontSizeY
                0x08004ce4       0x14 Middlewares/STemWin/Lib/STemWin_CM7_wc32.a(GUI_Common.o)
                0x08004ce4                GUI__GetFontSizeY
 .text.GUI__InvertRectColors
                0x08004cf8       0x54 Middlewares/STemWin/Lib/STemWin_CM7_wc32.a(GUI_Common.o)
                0x08004cf8                GUI__InvertRectColors
 .text.GUI_CalcColorDist
                0x08004d4c       0x4e Middlewares/STemWin/Lib/STemWin_CM7_wc32.a(GUI_Common.o)
                0x08004d4c                GUI_CalcColorDist
 .text.GUI_GetClientRect
                0x08004d9a        0x8 Middlewares/STemWin/Lib/STemWin_CM7_wc32.a(GUI_Common.o)
                0x08004d9a                GUI_GetClientRect
 .text.GUI_GetBkColor
                0x08004da2        0xe Middlewares/STemWin/Lib/STemWin_CM7_wc32.a(GUI_Common.o)
                0x08004da2                GUI_GetBkColor
 .text.GUI_GetColor
                0x08004db0        0xe Middlewares/STemWin/Lib/STemWin_CM7_wc32.a(GUI_Common.o)
                0x08004db0                GUI_GetColor
 *fill*         0x08004dbe        0x2 
 .text.GUI_GetDrawMode
                0x08004dc0        0xc Middlewares/STemWin/Lib/STemWin_CM7_wc32.a(GUI_Common.o)
                0x08004dc0                GUI_GetDrawMode
 .text.GUI_GetFontSizeY
                0x08004dcc        0x4 Middlewares/STemWin/Lib/STemWin_CM7_wc32.a(GUI_Common.o)
                0x08004dcc                GUI_GetFontSizeY
 .text.GUI_GetOrg
                0x08004dd0       0x1c Middlewares/STemWin/Lib/STemWin_CM7_wc32.a(GUI_Common.o)
                0x08004dd0                GUI_GetOrg
 .text.GUI_GetVersionString
                0x08004dec       0x18 Middlewares/STemWin/Lib/STemWin_CM7_wc32.a(GUI_Common.o)
                0x08004dec                GUI_GetVersionString
 .text.GUI_GetYSizeOfFont
                0x08004e04        0x8 Middlewares/STemWin/Lib/STemWin_CM7_wc32.a(GUI_Common.o)
                0x08004e04                GUI_GetYSizeOfFont
 .text.GUI_GetYDistOfFont
                0x08004e0c        0x4 Middlewares/STemWin/Lib/STemWin_CM7_wc32.a(GUI_Common.o)
                0x08004e0c                GUI_GetYDistOfFont
 .text.GUI_MergeRect
                0x08004e10       0x56 Middlewares/STemWin/Lib/STemWin_CM7_wc32.a(GUI_Common.o)
                0x08004e10                GUI_MergeRect
 .text.GUI_MoveRect
                0x08004e66       0x20 Middlewares/STemWin/Lib/STemWin_CM7_wc32.a(GUI_Common.o)
                0x08004e66                GUI_MoveRect
 *fill*         0x08004e86        0x2 
 .text.GUI_Exec1
                0x08004e88       0x40 Middlewares/STemWin/Lib/STemWin_CM7_wc32.a(GUI_Common.o)
                0x08004e88                GUI_Exec1
 .text.GUI_Exec
                0x08004ec8       0x12 Middlewares/STemWin/Lib/STemWin_CM7_wc32.a(GUI_Common.o)
                0x08004ec8                GUI_Exec
 *fill*         0x08004eda        0x2 
 .text.GUI_GotoXY
                0x08004edc       0x10 Middlewares/STemWin/Lib/STemWin_CM7_wc32.a(GUI_Common.o)
                0x08004edc                GUI_GotoXY
 .text.GUI_SetPenSize
                0x08004eec       0x10 Middlewares/STemWin/Lib/STemWin_CM7_wc32.a(GUI_Common.o)
                0x08004eec                GUI_SetPenSize
 .text.GUI_RectsIntersect
                0x08004efc       0x3a Middlewares/STemWin/Lib/STemWin_CM7_wc32.a(GUI_Common.o)
                0x08004efc                GUI_RectsIntersect
 *fill*         0x08004f36        0x2 
 .text.GUI_SaveContext_W
                0x08004f38       0x14 Middlewares/STemWin/Lib/STemWin_CM7_wc32.a(GUI_Common.o)
                0x08004f38                GUI_SaveContext_W
 .text.GUI_RestoreContext
                0x08004f4c       0x14 Middlewares/STemWin/Lib/STemWin_CM7_wc32.a(GUI_Common.o)
                0x08004f4c                GUI_RestoreContext
 .text.GUI_SelectLCD
                0x08004f60       0x12 Middlewares/STemWin/Lib/STemWin_CM7_wc32.a(GUI_Common.o)
                0x08004f60                GUI_SelectLCD
 .text.GUI_SetBkColor
                0x08004f72        0x4 Middlewares/STemWin/Lib/STemWin_CM7_wc32.a(GUI_Common.o)
                0x08004f72                GUI_SetBkColor
 .text.GUI_SetColor
                0x08004f76        0x4 Middlewares/STemWin/Lib/STemWin_CM7_wc32.a(GUI_Common.o)
                0x08004f76                GUI_SetColor
 .text.GUI_SetDrawMode
                0x08004f7a        0x4 Middlewares/STemWin/Lib/STemWin_CM7_wc32.a(GUI_Common.o)
                0x08004f7a                GUI_SetDrawMode
 *fill*         0x08004f7e        0x2 
 .text.GUI_SetFont
                0x08004f80       0x14 Middlewares/STemWin/Lib/STemWin_CM7_wc32.a(GUI_Common.o)
                0x08004f80                GUI_SetFont
 .text.GUI_SetLineStyle
                0x08004f94       0x10 Middlewares/STemWin/Lib/STemWin_CM7_wc32.a(GUI_Common.o)
                0x08004f94                GUI_SetLineStyle
 .text.GUI_SetOrg
                0x08004fa4       0x38 Middlewares/STemWin/Lib/STemWin_CM7_wc32.a(GUI_Common.o)
                0x08004fa4                GUI_SetOrg
 .text.GUI_SetTextAlign
                0x08004fdc       0x14 Middlewares/STemWin/Lib/STemWin_CM7_wc32.a(GUI_Common.o)
                0x08004fdc                GUI_SetTextAlign
 .text.GUI_SetTextMode
                0x08004ff0       0x14 Middlewares/STemWin/Lib/STemWin_CM7_wc32.a(GUI_Common.o)
                0x08004ff0                GUI_SetTextMode
 .text.GL_SetDefault
                0x08005004       0x48 Middlewares/STemWin/Lib/STemWin_CM7_wc32.a(GUI_Common.o)
                0x08005004                GL_SetDefault
 .text._InitContext
                0x0800504c       0x84 Middlewares/STemWin/Lib/STemWin_CM7_wc32.a(GUI_Core.o)
 .text._OnExit  0x080050d0       0x48 Middlewares/STemWin/Lib/STemWin_CM7_wc32.a(GUI_Core.o)
 .text.GUI_ClearRect
                0x08005118       0x64 Middlewares/STemWin/Lib/STemWin_CM7_wc32.a(GUI_Core.o)
                0x08005118                GUI_ClearRect
 .text.GUI_Clear
                0x0800517c       0x20 Middlewares/STemWin/Lib/STemWin_CM7_wc32.a(GUI_Core.o)
                0x0800517c                GUI_Clear
 .text.GUI__Config
                0x0800519c       0x98 Middlewares/STemWin/Lib/STemWin_CM7_wc32.a(GUI_Core.o)
                0x0800519c                GUI__Config
 .text.GUI_Init
                0x08005234      0x188 Middlewares/STemWin/Lib/STemWin_CM7_wc32.a(GUI_Core.o)
                0x08005234                GUI_Init
 .text.GUI__RegisterExit
                0x080053bc       0x28 Middlewares/STemWin/Lib/STemWin_CM7_wc32.a(GUI_Core.o)
                0x080053bc                GUI__RegisterExit
 .text.GUI_DEVICE__GetpDriver
                0x080053e4       0x20 Middlewares/STemWin/Lib/STemWin_CM7_wc32.a(GUI_Device.o)
                0x080053e4                GUI_DEVICE__GetpDriver
 .text.GUI_DEVICE_Delete
                0x08005404        0x4 Middlewares/STemWin/Lib/STemWin_CM7_wc32.a(GUI_Device.o)
                0x08005404                GUI_DEVICE_Delete
 .text.GUI_DEVICE_Create
                0x08005408       0x4c Middlewares/STemWin/Lib/STemWin_CM7_wc32.a(GUI_Device.o)
                0x08005408                GUI_DEVICE_Create
 .text.GUI_DEVICE_Unlink
                0x08005454       0x30 Middlewares/STemWin/Lib/STemWin_CM7_wc32.a(GUI_Device.o)
                0x08005454                GUI_DEVICE_Unlink
 .text.GUI_DEVICE_Link
                0x08005484       0x84 Middlewares/STemWin/Lib/STemWin_CM7_wc32.a(GUI_Device.o)
                0x08005484                GUI_DEVICE_Link
 .text.GUI_DEVICE_CreateAndLink
                0x08005508       0x28 Middlewares/STemWin/Lib/STemWin_CM7_wc32.a(GUI_Device.o)
                0x08005508                GUI_DEVICE_CreateAndLink
 .text.GUI_DispString
                0x08005530      0x118 Middlewares/STemWin/Lib/STemWin_CM7_wc32.a(GUI_DispString.o)
                0x08005530                GUI_DispString
 .text.GUI_DispStringAt
                0x08005648       0x10 Middlewares/STemWin/Lib/STemWin_CM7_wc32.a(GUI_DispString.o)
                0x08005648                GUI_DispStringAt
 .text.GUI__DispStringInRect
                0x08005658      0x14c Middlewares/STemWin/Lib/STemWin_CM7_wc32.a(GUI_DispString.o)
                0x08005658                GUI__DispStringInRect
 .text.GUI_DispStringInRectMax
                0x080057a4       0x46 Middlewares/STemWin/Lib/STemWin_CM7_wc32.a(GUI_DispString.o)
                0x080057a4                GUI_DispStringInRectMax
 .text.GUI_DispStringInRect
                0x080057ea        0x8 Middlewares/STemWin/Lib/STemWin_CM7_wc32.a(GUI_DispString.o)
                0x080057ea                GUI_DispStringInRect
 .text.GUI_WrapGetNumLines
                0x080057f2       0x20 Middlewares/STemWin/Lib/STemWin_CM7_wc32.a(GUI_DispString.o)
                0x080057f2                GUI_WrapGetNumLines
 .text.GUI_DispStringInRectWrap
                0x08005812      0x146 Middlewares/STemWin/Lib/STemWin_CM7_wc32.a(GUI_DispString.o)
                0x08005812                GUI_DispStringInRectWrap
 .text._OnExit  0x08005958       0x48 Middlewares/STemWin/Lib/STemWin_CM7_wc32.a(GUI_MULTIBUF.o)
 .text.GUI_MULTIBUF_ConfirmEx
                0x080059a0       0x28 Middlewares/STemWin/Lib/STemWin_CM7_wc32.a(GUI_MULTIBUF.o)
                0x080059a0                GUI_MULTIBUF_ConfirmEx
 .text.GUI_MULTIBUF_ConfigEx
                0x080059c8       0x38 Middlewares/STemWin/Lib/STemWin_CM7_wc32.a(GUI_MULTIBUF.o)
                0x080059c8                GUI_MULTIBUF_ConfigEx
 .text.GUI_StoreKey
                0x08005a00       0x10 Middlewares/STemWin/Lib/STemWin_CM7_wc32.a(GUI_OnKey.o)
                0x08005a00                GUI_StoreKey
 .text.GUI_PollKeyMsg
                0x08005a10       0x30 Middlewares/STemWin/Lib/STemWin_CM7_wc32.a(GUI_OnKey.o)
                0x08005a10                GUI_PollKeyMsg
 .text.GUI_GetLayerPosEx
                0x08005a40       0x14 Middlewares/STemWin/Lib/STemWin_CM7_wc32.a(GUI_SelectLayer.o)
                0x08005a40                GUI_GetLayerPosEx
 .text.GUI_SelectLayer
                0x08005a54       0x2c Middlewares/STemWin/Lib/STemWin_CM7_wc32.a(GUI_SelectLayer.o)
                0x08005a54                GUI_SelectLayer
 .text.GUI_GetTime
                0x08005a80        0x4 Middlewares/STemWin/Lib/STemWin_CM7_wc32.a(GUI_Time.o)
                0x08005a80                GUI_GetTime
 .text.GUI_Delay
                0x08005a84       0x30 Middlewares/STemWin/Lib/STemWin_CM7_wc32.a(GUI_Time.o)
                0x08005a84                GUI_Delay
 .text.GUI_UC_GetCharSize
                0x08005ab4        0xc Middlewares/STemWin/Lib/STemWin_CM7_wc32.a(GUI_UC.o)
                0x08005ab4                GUI_UC_GetCharSize
 .text.GUI_UC_GetCharCode
                0x08005ac0        0xc Middlewares/STemWin/Lib/STemWin_CM7_wc32.a(GUI_UC.o)
                0x08005ac0                GUI_UC_GetCharCode
 .text.GUI_UC_Encode
                0x08005acc        0xc Middlewares/STemWin/Lib/STemWin_CM7_wc32.a(GUI_UC.o)
                0x08005acc                GUI_UC_Encode
 .text.GUI_UC__CalcSizeOfChar
                0x08005ad8        0xc Middlewares/STemWin/Lib/STemWin_CM7_wc32.a(GUI_UC.o)
                0x08005ad8                GUI_UC__CalcSizeOfChar
 .text.GUI_UC__GetCharCodeInc
                0x08005ae4       0x28 Middlewares/STemWin/Lib/STemWin_CM7_wc32.a(GUI_UC.o)
                0x08005ae4                GUI_UC__GetCharCodeInc
 .text.GUI_UC__NumChars2NumBytes
                0x08005b0c       0x24 Middlewares/STemWin/Lib/STemWin_CM7_wc32.a(GUI_UC.o)
                0x08005b0c                GUI_UC__NumChars2NumBytes
 .text.GUI_UC__NumBytes2NumChars
                0x08005b30       0x30 Middlewares/STemWin/Lib/STemWin_CM7_wc32.a(GUI_UC.o)
                0x08005b30                GUI_UC__NumBytes2NumChars
 .text.GUI__GetNumChars
                0x08005b60       0x1c Middlewares/STemWin/Lib/STemWin_CM7_wc32.a(GUI_UC.o)
                0x08005b60                GUI__GetNumChars
 .text._GetCharCode
                0x08005b7c        0x4 Middlewares/STemWin/Lib/STemWin_CM7_wc32.a(GUI_UC_EncodeNone.o)
 .text._GetCharSize
                0x08005b80        0x4 Middlewares/STemWin/Lib/STemWin_CM7_wc32.a(GUI_UC_EncodeNone.o)
 .text._CalcSizeOfChar
                0x08005b84        0x4 Middlewares/STemWin/Lib/STemWin_CM7_wc32.a(GUI_UC_EncodeNone.o)
 .text._Encode  0x08005b88        0x6 Middlewares/STemWin/Lib/STemWin_CM7_wc32.a(GUI_UC_EncodeNone.o)
 *fill*         0x08005b8e        0x2 
 .text.GUI_SignalEvent
                0x08005b90       0x10 Middlewares/STemWin/Lib/STemWin_CM7_wc32.a(GUI_WaitEvent.o)
                0x08005b90                GUI_SignalEvent
 .text.GUI__DivideRound32
                0x08005ba0       0x18 Middlewares/STemWin/Lib/STemWin_CM7_wc32.a(GUI__Private.o)
                0x08005ba0                GUI__DivideRound32
 .text.GUI__HandleEOLine
                0x08005bb8       0x26 Middlewares/STemWin/Lib/STemWin_CM7_wc32.a(GUI__Private.o)
                0x08005bb8                GUI__HandleEOLine
 .text.GUI__IntersectRect
                0x08005bde       0x3a Middlewares/STemWin/Lib/STemWin_CM7_wc32.a(GUI__Private.o)
                0x08005bde                GUI__IntersectRect
 .text.GUI__IntersectRects
                0x08005c18       0x56 Middlewares/STemWin/Lib/STemWin_CM7_wc32.a(GUI__Private.o)
                0x08005c18                GUI__IntersectRects
 .text.GUI__memset
                0x08005c6e       0x5e Middlewares/STemWin/Lib/STemWin_CM7_wc32.a(GUI__Private.o)
                0x08005c6e                GUI__memset
 .text.GUI__ReduceRect
                0x08005ccc       0x1c Middlewares/STemWin/Lib/STemWin_CM7_wc32.a(GUI__Private.o)
                0x08005ccc                GUI__ReduceRect
 .text.GUI__sqrt32
                0x08005ce8       0x24 Middlewares/STemWin/Lib/STemWin_CM7_wc32.a(GUI__Private.o)
                0x08005ce8                GUI__sqrt32
 .text.GUI__strcmp
                0x08005d0c       0x2c Middlewares/STemWin/Lib/STemWin_CM7_wc32.a(GUI__Private.o)
                0x08005d0c                GUI__strcmp
 .text.GUI__strcmp_hp
                0x08005d38       0x28 Middlewares/STemWin/Lib/STemWin_CM7_wc32.a(GUI__Private.o)
                0x08005d38                GUI__strcmp_hp
 .text.GUI__strlen
                0x08005d60       0x18 Middlewares/STemWin/Lib/STemWin_CM7_wc32.a(GUI__Private.o)
                0x08005d60                GUI__strlen
 .text.GUI__SetText
                0x08005d78       0x7c Middlewares/STemWin/Lib/STemWin_CM7_wc32.a(GUI__Private.o)
                0x08005d78                GUI__SetText
 .text._GetWordWrap
                0x08005df4       0x98 Middlewares/STemWin/Lib/STemWin_CM7_wc32.a(GUI__Wrap.o)
 .text._GetCharWrap
                0x08005e8c       0x36 Middlewares/STemWin/Lib/STemWin_CM7_wc32.a(GUI__Wrap.o)
 *fill*         0x08005ec2        0x2 
 .text._WrapGetNumCharsDisp
                0x08005ec4       0x34 Middlewares/STemWin/Lib/STemWin_CM7_wc32.a(GUI__Wrap.o)
 .text.GUI__WrapGetNumCharsDisp
                0x08005ef8        0x6 Middlewares/STemWin/Lib/STemWin_CM7_wc32.a(GUI__Wrap.o)
                0x08005ef8                GUI__WrapGetNumCharsDisp
 .text.GUI__WrapGetNumCharsToNextLine
                0x08005efe       0x5c Middlewares/STemWin/Lib/STemWin_CM7_wc32.a(GUI__Wrap.o)
                0x08005efe                GUI__WrapGetNumCharsToNextLine
 .text.GUI__WrapGetNumBytesToNextLine
                0x08005f5a       0x14 Middlewares/STemWin/Lib/STemWin_CM7_wc32.a(GUI__Wrap.o)
                0x08005f5a                GUI__WrapGetNumBytesToNextLine
 *fill*         0x08005f6e        0x2 
 .text._SetDrawMode
                0x08005f70       0x28 Middlewares/STemWin/Lib/STemWin_CM7_wc32.a(LCD.o)
 .text.LCD_SetDrawMode
                0x08005f98        0xc Middlewares/STemWin/Lib/STemWin_CM7_wc32.a(LCD.o)
                0x08005f98                LCD_SetDrawMode
 .text.LCD_DrawPixel
                0x08005fa4       0x60 Middlewares/STemWin/Lib/STemWin_CM7_wc32.a(LCD.o)
                0x08005fa4                LCD_DrawPixel
 .text.LCD_DrawHLine
                0x08006004       0x50 Middlewares/STemWin/Lib/STemWin_CM7_wc32.a(LCD.o)
                0x08006004                LCD_DrawHLine
 .text.LCD_DrawVLine
                0x08006054       0x54 Middlewares/STemWin/Lib/STemWin_CM7_wc32.a(LCD.o)
                0x08006054                LCD_DrawVLine
 .text.LCD_FillRect
                0x080060a8       0x58 Middlewares/STemWin/Lib/STemWin_CM7_wc32.a(LCD.o)
                0x080060a8                LCD_FillRect
 .text.LCD__DrawBitmap_1bpp
                0x08006100      0x1d8 Middlewares/STemWin/Lib/STemWin_CM7_wc32.a(LCD.o)
                0x08006100                LCD__DrawBitmap_1bpp
 .text.LCD_DrawBitmap
                0x080062d8      0x224 Middlewares/STemWin/Lib/STemWin_CM7_wc32.a(LCD.o)
                0x080062d8                LCD_DrawBitmap
 .text.LCD_SetClipRectMax
                0x080064fc       0x1c Middlewares/STemWin/Lib/STemWin_CM7_wc32.a(LCD.o)
                0x080064fc                LCD_SetClipRectMax
 .text.emWin_LCD_Init
                0x08006518       0xa4 Middlewares/STemWin/Lib/STemWin_CM7_wc32.a(LCD.o)
                0x08006518                emWin_LCD_Init
 .text.LCD_Color2Index
                0x080065bc       0x1c Middlewares/STemWin/Lib/STemWin_CM7_wc32.a(LCD.o)
                0x080065bc                LCD_Color2Index
 .text.LCD_Index2Color
                0x080065d8       0x1c Middlewares/STemWin/Lib/STemWin_CM7_wc32.a(LCD.o)
                0x080065d8                LCD_Index2Color
 .text.LCD_SetColorIndex
                0x080065f4       0x18 Middlewares/STemWin/Lib/STemWin_CM7_wc32.a(LCD.o)
                0x080065f4                LCD_SetColorIndex
 .text._SetColor
                0x0800660c       0x20 Middlewares/STemWin/Lib/STemWin_CM7_wc32.a(LCD.o)
 .text.LCD_SetBkColorIndex
                0x0800662c       0x18 Middlewares/STemWin/Lib/STemWin_CM7_wc32.a(LCD.o)
                0x0800662c                LCD_SetBkColorIndex
 .text._SetBkColor
                0x08006644       0x20 Middlewares/STemWin/Lib/STemWin_CM7_wc32.a(LCD.o)
 .text.LCD_SetBkColor
                0x08006664        0xc Middlewares/STemWin/Lib/STemWin_CM7_wc32.a(LCD.o)
                0x08006664                LCD_SetBkColor
 .text.LCD_SetColor
                0x08006670        0xc Middlewares/STemWin/Lib/STemWin_CM7_wc32.a(LCD.o)
                0x08006670                LCD_SetColor
 .text.LCD_SetPixelIndex
                0x0800667c       0x4c Middlewares/STemWin/Lib/STemWin_CM7_wc32.a(LCD.o)
                0x0800667c                LCD_SetPixelIndex
 .text._OnExit  0x080066c8       0x1c Middlewares/STemWin/Lib/STemWin_CM7_wc32.a(LCD_Color.o)
 .text.LCD_InitColors
                0x080066e4       0x3c Middlewares/STemWin/Lib/STemWin_CM7_wc32.a(LCD_Color.o)
                0x080066e4                LCD_InitColors
 .text.LCD_GetpPalConvTableUncached
                0x08006720       0x6c Middlewares/STemWin/Lib/STemWin_CM7_wc32.a(LCD_Color.o)
                0x08006720                LCD_GetpPalConvTableUncached
 .text.LCD_GetpPalConvTableBM
                0x0800678c        0x4 Middlewares/STemWin/Lib/STemWin_CM7_wc32.a(LCD_Color.o)
                0x0800678c                LCD_GetpPalConvTableBM
 .text.LCD_InitLUT
                0x08006790       0x88 Middlewares/STemWin/Lib/STemWin_CM7_wc32.a(LCD_Color.o)
                0x08006790                LCD_InitLUT
 .text.LCD_GetBkColorIndex
                0x08006818       0x10 Middlewares/STemWin/Lib/STemWin_CM7_wc32.a(LCD_GetColorIndex.o)
                0x08006818                LCD_GetBkColorIndex
 .text.LCD_GetColorIndex
                0x08006828       0x10 Middlewares/STemWin/Lib/STemWin_CM7_wc32.a(LCD_GetColorIndex.o)
                0x08006828                LCD_GetColorIndex
 .text._GetDevProp
                0x08006838       0x1e Middlewares/STemWin/Lib/STemWin_CM7_wc32.a(LCD_GetEx.o)
 .text._GetMaxValue
                0x08006856       0x22 Middlewares/STemWin/Lib/STemWin_CM7_wc32.a(LCD_GetEx.o)
 .text.LCD_GetXSizeEx
                0x08006878        0x6 Middlewares/STemWin/Lib/STemWin_CM7_wc32.a(LCD_GetEx.o)
                0x08006878                LCD_GetXSizeEx
 .text.LCD_GetYSizeEx
                0x0800687e        0x6 Middlewares/STemWin/Lib/STemWin_CM7_wc32.a(LCD_GetEx.o)
                0x0800687e                LCD_GetYSizeEx
 .text.LCD_GetVXSizeEx
                0x08006884        0x6 Middlewares/STemWin/Lib/STemWin_CM7_wc32.a(LCD_GetEx.o)
                0x08006884                LCD_GetVXSizeEx
 .text.LCD_GetVYSizeEx
                0x0800688a        0x6 Middlewares/STemWin/Lib/STemWin_CM7_wc32.a(LCD_GetEx.o)
                0x0800688a                LCD_GetVYSizeEx
 .text.LCD_GetBitsPerPixelEx
                0x08006890        0x6 Middlewares/STemWin/Lib/STemWin_CM7_wc32.a(LCD_GetEx.o)
                0x08006890                LCD_GetBitsPerPixelEx
 .text.LCD_GetNumColorsEx
                0x08006896        0x6 Middlewares/STemWin/Lib/STemWin_CM7_wc32.a(LCD_GetEx.o)
                0x08006896                LCD_GetNumColorsEx
 .text.LCD_GetMirrorXEx
                0x0800689c        0x6 Middlewares/STemWin/Lib/STemWin_CM7_wc32.a(LCD_GetEx.o)
                0x0800689c                LCD_GetMirrorXEx
 .text.LCD_GetMirrorYEx
                0x080068a2        0x6 Middlewares/STemWin/Lib/STemWin_CM7_wc32.a(LCD_GetEx.o)
                0x080068a2                LCD_GetMirrorYEx
 .text.LCD_GetSwapXYEx
                0x080068a8        0x6 Middlewares/STemWin/Lib/STemWin_CM7_wc32.a(LCD_GetEx.o)
                0x080068a8                LCD_GetSwapXYEx
 *fill*         0x080068ae        0x2 
 .text.LCD_GetXSize
                0x080068b0       0x10 Middlewares/STemWin/Lib/STemWin_CM7_wc32.a(LCD_GetEx.o)
                0x080068b0                LCD_GetXSize
 .text.LCD_GetYSize
                0x080068c0       0x10 Middlewares/STemWin/Lib/STemWin_CM7_wc32.a(LCD_GetEx.o)
                0x080068c0                LCD_GetYSize
 .text.LCD_GetNumColors
                0x080068d0       0x10 Middlewares/STemWin/Lib/STemWin_CM7_wc32.a(LCD_GetEx.o)
                0x080068d0                LCD_GetNumColors
 .text.GUI_GetBitsPerPixelEx
                0x080068e0       0x14 Middlewares/STemWin/Lib/STemWin_CM7_wc32.a(LCD_GetEx.o)
                0x080068e0                GUI_GetBitsPerPixelEx
 .text.LCD_GetPaletteEx
                0x080068f4       0x16 Middlewares/STemWin/Lib/STemWin_CM7_wc32.a(LCD_GetEx.o)
                0x080068f4                LCD_GetPaletteEx
 *fill*         0x0800690a        0x2 
 .text.LCD_GetPalette
                0x0800690c       0x10 Middlewares/STemWin/Lib/STemWin_CM7_wc32.a(LCD_GetEx.o)
                0x0800690c                LCD_GetPalette
 .text.GUI_GetpfIndex2ColorEx
                0x0800691c       0x10 Middlewares/STemWin/Lib/STemWin_CM7_wc32.a(LCD_GetEx.o)
                0x0800691c                GUI_GetpfIndex2ColorEx
 .text.GUI_GetpfColor2IndexEx
                0x0800692c       0x10 Middlewares/STemWin/Lib/STemWin_CM7_wc32.a(LCD_GetEx.o)
                0x0800692c                GUI_GetpfColor2IndexEx
 .text.LCD_GetXSizeMax
                0x0800693c        0x6 Middlewares/STemWin/Lib/STemWin_CM7_wc32.a(LCD_GetEx.o)
                0x0800693c                LCD_GetXSizeMax
 .text.LCD_GetYSizeMax
                0x08006942        0x6 Middlewares/STemWin/Lib/STemWin_CM7_wc32.a(LCD_GetEx.o)
                0x08006942                LCD_GetYSizeMax
 .text.LCD_GetVXSizeMax
                0x08006948        0x6 Middlewares/STemWin/Lib/STemWin_CM7_wc32.a(LCD_GetEx.o)
                0x08006948                LCD_GetVXSizeMax
 *fill*         0x0800694e        0x2 
 .text.LCD_SetDisplaySize
                0x08006950        0xc Middlewares/STemWin/Lib/STemWin_CM7_wc32.a(LCD_GetEx.o)
                0x08006950                LCD_SetDisplaySize
 .text.LCD_GetXSizeDisplay
                0x0800695c        0xc Middlewares/STemWin/Lib/STemWin_CM7_wc32.a(LCD_GetEx.o)
                0x0800695c                LCD_GetXSizeDisplay
 .text.LCD_GetYSizeDisplay
                0x08006968        0xc Middlewares/STemWin/Lib/STemWin_CM7_wc32.a(LCD_GetEx.o)
                0x08006968                LCD_GetYSizeDisplay
 .text.LCD__GetBPP
                0x08006974       0x7e Middlewares/STemWin/Lib/STemWin_CM7_wc32.a(LCD_GetEx.o)
                0x08006974                LCD__GetBPP
 .text.LCD__GetBPPDevice
                0x080069f2       0x2c Middlewares/STemWin/Lib/STemWin_CM7_wc32.a(LCD_GetEx.o)
                0x080069f2                LCD__GetBPPDevice
 .text.LCD_GetNumLayers
                0x08006a1e       0x1e Middlewares/STemWin/Lib/STemWin_CM7_wc32.a(LCD_GetNumDisplays.o)
                0x08006a1e                LCD_GetNumLayers
 .text.LCD_GetPixelIndex
                0x08006a3c       0x5c Middlewares/STemWin/Lib/STemWin_CM7_wc32.a(LCD_GetP.o)
                0x08006a3c                LCD_GetPixelIndex
 .text.LCD_SelectLCD
                0x08006a98       0x40 Middlewares/STemWin/Lib/STemWin_CM7_wc32.a(LCD_SelectLCD.o)
                0x08006a98                LCD_SelectLCD
 .text.LCD_GetPosEx
                0x08006ad8       0x32 Middlewares/STemWin/Lib/STemWin_CM7_wc32.a(LCD_Set.o)
                0x08006ad8                LCD_GetPosEx
 .text.LCD_SetDevFunc
                0x08006b0a       0x30 Middlewares/STemWin/Lib/STemWin_CM7_wc32.a(LCD_Set.o)
                0x08006b0a                LCD_SetDevFunc
 .text.LCD_SetLUTEntryEx
                0x08006b3a       0x30 Middlewares/STemWin/Lib/STemWin_CM7_wc32.a(LCD_Set.o)
                0x08006b3a                LCD_SetLUTEntryEx
 .text.LCD_SetSizeEx
                0x08006b6a       0x30 Middlewares/STemWin/Lib/STemWin_CM7_wc32.a(LCD_Set.o)
                0x08006b6a                LCD_SetSizeEx
 .text.LCD_SetVRAMAddrEx
                0x08006b9a       0x2c Middlewares/STemWin/Lib/STemWin_CM7_wc32.a(LCD_Set.o)
                0x08006b9a                LCD_SetVRAMAddrEx
 .text.LCD_SetVSizeEx
                0x08006bc6       0x30 Middlewares/STemWin/Lib/STemWin_CM7_wc32.a(LCD_Set.o)
                0x08006bc6                LCD_SetVSizeEx
 *fill*         0x08006bf6        0x2 
 .text.LCD_UpdateColorIndices
                0x08006bf8       0x24 Middlewares/STemWin/Lib/STemWin_CM7_wc32.a(LCD_UpdateColorIndices.o)
                0x08006bf8                LCD_UpdateColorIndices
 .text._GetRect
                0x08006c1c       0x16 Middlewares/STemWin/Lib/STemWin_CM7_wc32.a(GUIDRV_Lin_32.o)
 .text._SetPixelIndex
                0x08006c32       0x12 Middlewares/STemWin/Lib/STemWin_CM7_wc32.a(GUIDRV_Lin_32.o)
 .text._GetPixelIndex
                0x08006c44       0x10 Middlewares/STemWin/Lib/STemWin_CM7_wc32.a(GUIDRV_Lin_32.o)
 .text._XorPixel
                0x08006c54       0x28 Middlewares/STemWin/Lib/STemWin_CM7_wc32.a(GUIDRV_Lin_32.o)
 .text._FillRect
                0x08006c7c      0x14c Middlewares/STemWin/Lib/STemWin_CM7_wc32.a(GUIDRV_Lin_32.o)
 .text._DrawHLine
                0x08006dc8        0xe Middlewares/STemWin/Lib/STemWin_CM7_wc32.a(GUIDRV_Lin_32.o)
 .text._DrawVLine
                0x08006dd6       0x10 Middlewares/STemWin/Lib/STemWin_CM7_wc32.a(GUIDRV_Lin_32.o)
 .text._GetDevProp
                0x08006de6       0x3c Middlewares/STemWin/Lib/STemWin_CM7_wc32.a(GUIDRV_Lin_32.o)
 *fill*         0x08006e22        0x2 
 .text._GetDevData
                0x08006e24       0x10 Middlewares/STemWin/Lib/STemWin_CM7_wc32.a(GUIDRV_Lin_32.o)
 .text._ReadRect
                0x08006e34       0x5c Middlewares/STemWin/Lib/STemWin_CM7_wc32.a(GUIDRV_Lin_32.o)
 .text._GetDevFunc
                0x08006e90       0xe8 Middlewares/STemWin/Lib/STemWin_CM7_wc32.a(GUIDRV_Lin_32.o)
 .text._SetChroma
                0x08006f78       0x16 Middlewares/STemWin/Lib/STemWin_CM7_wc32.a(GUIDRV_Lin_32.o)
 .text._SetChromaMode
                0x08006f8e       0x16 Middlewares/STemWin/Lib/STemWin_CM7_wc32.a(GUIDRV_Lin_32.o)
 .text._SetAlphaMode
                0x08006fa4       0x16 Middlewares/STemWin/Lib/STemWin_CM7_wc32.a(GUIDRV_Lin_32.o)
 .text._Off     0x08006fba        0xa Middlewares/STemWin/Lib/STemWin_CM7_wc32.a(GUIDRV_Lin_32.o)
 .text._On      0x08006fc4        0xa Middlewares/STemWin/Lib/STemWin_CM7_wc32.a(GUIDRV_Lin_32.o)
 .text._SetOrg  0x08006fce       0x94 Middlewares/STemWin/Lib/STemWin_CM7_wc32.a(GUIDRV_Lin_32.o)
 *fill*         0x08007062        0x2 
 .text._DrawBitmap
                0x08007064      0x4e8 Middlewares/STemWin/Lib/STemWin_CM7_wc32.a(GUIDRV_Lin_32.o)
 .text._InitOnce.isra.4
                0x0800754c       0x22 Middlewares/STemWin/Lib/STemWin_CM7_wc32.a(GUIDRV_Lin_32.o)
 .text._SetDevFunc
                0x0800756e       0x4c Middlewares/STemWin/Lib/STemWin_CM7_wc32.a(GUIDRV_Lin_32.o)
 *fill*         0x080075ba        0x2 
 .text._CopyBuffer
                0x080075bc       0x64 Middlewares/STemWin/Lib/STemWin_CM7_wc32.a(GUIDRV_Lin_32.o)
 .text._GetPos  0x08007620       0x1c Middlewares/STemWin/Lib/STemWin_CM7_wc32.a(GUIDRV_Lin_32.o)
 .text._SetVRAM_BufferPTR
                0x0800763c       0x18 Middlewares/STemWin/Lib/STemWin_CM7_wc32.a(GUIDRV_Lin_32.o)
 .text._ShowBuffer
                0x08007654       0x26 Middlewares/STemWin/Lib/STemWin_CM7_wc32.a(GUIDRV_Lin_32.o)
 .text._Init    0x0800767a       0x1a Middlewares/STemWin/Lib/STemWin_CM7_wc32.a(GUIDRV_Lin_32.o)
 .text._SetVis  0x08007694       0x28 Middlewares/STemWin/Lib/STemWin_CM7_wc32.a(GUIDRV_Lin_32.o)
 .text._SetAlpha
                0x080076bc       0x28 Middlewares/STemWin/Lib/STemWin_CM7_wc32.a(GUIDRV_Lin_32.o)
 .text._SetVRAMAddr
                0x080076e4       0x2a Middlewares/STemWin/Lib/STemWin_CM7_wc32.a(GUIDRV_Lin_32.o)
 .text._SetPos  0x0800770e       0xfa Middlewares/STemWin/Lib/STemWin_CM7_wc32.a(GUIDRV_Lin_32.o)
 .text._SetSize
                0x08007808       0x42 Middlewares/STemWin/Lib/STemWin_CM7_wc32.a(GUIDRV_Lin_32.o)
 .text._SetVSize
                0x0800784a       0x26 Middlewares/STemWin/Lib/STemWin_CM7_wc32.a(GUIDRV_Lin_32.o)
 .text._GetDevData
                0x08007870       0x10 Middlewares/STemWin/Lib/STemWin_CM7_wc32.a(GUIDEV_32.o)
 .text._GetDevFunc
                0x08007880       0x10 Middlewares/STemWin/Lib/STemWin_CM7_wc32.a(GUIDEV_32.o)
 .text._GetDevProp
                0x08007890        0xa Middlewares/STemWin/Lib/STemWin_CM7_wc32.a(GUIDEV_32.o)
 .text._SetOrg  0x0800789a        0x8 Middlewares/STemWin/Lib/STemWin_CM7_wc32.a(GUIDEV_32.o)
 .text._GetRect
                0x080078a2       0x36 Middlewares/STemWin/Lib/STemWin_CM7_wc32.a(GUIDEV_32.o)
 .text._XY2PTR  0x080078d8       0x40 Middlewares/STemWin/Lib/STemWin_CM7_wc32.a(GUIDEV_32.o)
 .text._GetPixelIndex
                0x08007918        0xe Middlewares/STemWin/Lib/STemWin_CM7_wc32.a(GUIDEV_32.o)
 *fill*         0x08007926        0x2 
 .text._XorPixel
                0x08007928       0x5c Middlewares/STemWin/Lib/STemWin_CM7_wc32.a(GUIDEV_32.o)
 .text._SetPixelIndex
                0x08007984       0x4c Middlewares/STemWin/Lib/STemWin_CM7_wc32.a(GUIDEV_32.o)
 .text._DrawVLine
                0x080079d0       0xb4 Middlewares/STemWin/Lib/STemWin_CM7_wc32.a(GUIDEV_32.o)
 .text._FillRect
                0x08007a84       0xb4 Middlewares/STemWin/Lib/STemWin_CM7_wc32.a(GUIDEV_32.o)
 .text._DrawHLine
                0x08007b38        0xe Middlewares/STemWin/Lib/STemWin_CM7_wc32.a(GUIDEV_32.o)
 *fill*         0x08007b46        0x2 
 .text._DrawBitmap
                0x08007b48      0x728 Middlewares/STemWin/Lib/STemWin_CM7_wc32.a(GUIDEV_32.o)
 .text.GUI_USAGE_DecUseCnt
                0x08008270       0x28 Middlewares/STemWin/Lib/STemWin_CM7_wc32.a(GUIDEV_Usage.o)
                0x08008270                GUI_USAGE_DecUseCnt
 .text.GUI_USAGE_AddRect
                0x08008298       0x26 Middlewares/STemWin/Lib/STemWin_CM7_wc32.a(GUIDEV_Usage.o)
                0x08008298                GUI_USAGE_AddRect
 *fill*         0x080082be        0x2 
 .text.GUI_MEMDEV__WriteToActiveAlpha
                0x080082c0      0x184 Middlewares/STemWin/Lib/STemWin_CM7_wc32.a(GUIDEV_WriteToActiveAlpha.o)
                0x080082c0                GUI_MEMDEV__WriteToActiveAlpha
 .text._OnExit  0x08008444       0xa4 Middlewares/STemWin/Lib/STemWin_CM7_wc32.a(WM.o)
 .text._Paint1  0x080084e8       0x28 Middlewares/STemWin/Lib/STemWin_CM7_wc32.a(WM.o)
 .text._Findy1  0x08008510       0xa6 Middlewares/STemWin/Lib/STemWin_CM7_wc32.a(WM.o)
 .text._Findx0  0x080085b6       0x86 Middlewares/STemWin/Lib/STemWin_CM7_wc32.a(WM.o)
 .text._Findx1  0x0800863c       0x72 Middlewares/STemWin/Lib/STemWin_CM7_wc32.a(WM.o)
 *fill*         0x080086ae        0x2 
 .text._Paint1Trans
                0x080086b0       0x94 Middlewares/STemWin/Lib/STemWin_CM7_wc32.a(WM.o)
 .text._PaintTransChildren
                0x08008744       0xae Middlewares/STemWin/Lib/STemWin_CM7_wc32.a(WM.o)
 *fill*         0x080087f2        0x2 
 .text.WM__PaintWinAndOverlays
                0x080087f4       0x78 Middlewares/STemWin/Lib/STemWin_CM7_wc32.a(WM.o)
 .text._cbPaintMemDev
                0x0800886c       0x6c Middlewares/STemWin/Lib/STemWin_CM7_wc32.a(WM.o)
 .text.WM__ClipAtParentBorders
                0x080088d8       0x58 Middlewares/STemWin/Lib/STemWin_CM7_wc32.a(WM.o)
                0x080088d8                WM__ClipAtParentBorders
 .text.WM__InsertWindowIntoList
                0x08008930       0xac Middlewares/STemWin/Lib/STemWin_CM7_wc32.a(WM.o)
                0x08008930                WM__InsertWindowIntoList
 .text.WM__RemoveWindowFromList
                0x080089dc       0x3c Middlewares/STemWin/Lib/STemWin_CM7_wc32.a(WM.o)
                0x080089dc                WM__RemoveWindowFromList
 .text.WM__Client2Screen
                0x08008a18       0x10 Middlewares/STemWin/Lib/STemWin_CM7_wc32.a(WM.o)
                0x08008a18                WM__Client2Screen
 .text._SetClipRectUserIntersect
                0x08008a28       0x50 Middlewares/STemWin/Lib/STemWin_CM7_wc32.a(WM.o)
 .text.WM__ActivateClipRect
                0x08008a78       0x48 Middlewares/STemWin/Lib/STemWin_CM7_wc32.a(WM.o)
                0x08008a78                WM__ActivateClipRect
 .text.WM__IsWindow
                0x08008ac0       0x20 Middlewares/STemWin/Lib/STemWin_CM7_wc32.a(WM.o)
                0x08008ac0                WM__IsWindow
 .text.WM__InvalidateDrawAndDescs
                0x08008ae0       0x50 Middlewares/STemWin/Lib/STemWin_CM7_wc32.a(WM.o)
                0x08008ae0                WM__InvalidateDrawAndDescs
 .text.WM__RectIsNZ
                0x08008b30       0x22 Middlewares/STemWin/Lib/STemWin_CM7_wc32.a(WM.o)
                0x08008b30                WM__RectIsNZ
 .text.WM_SendMessage
                0x08008b52        0x8 Middlewares/STemWin/Lib/STemWin_CM7_wc32.a(WM.o)
                0x08008b52                WM_SendMessage
 .text.WM__SendMsgNoData
                0x08008b5a       0x16 Middlewares/STemWin/Lib/STemWin_CM7_wc32.a(WM.o)
                0x08008b5a                WM__SendMsgNoData
 .text.WM__GetClientRectWin
                0x08008b70       0x18 Middlewares/STemWin/Lib/STemWin_CM7_wc32.a(WM.o)
                0x08008b70                WM__GetClientRectWin
 .text.WM__GetTopLevelLayer
                0x08008b88       0x28 Middlewares/STemWin/Lib/STemWin_CM7_wc32.a(WM.o)
                0x08008b88                WM__GetTopLevelLayer
 .text._Invalidate1Abs
                0x08008bb0       0xa0 Middlewares/STemWin/Lib/STemWin_CM7_wc32.a(WM.o)
 .text.WM__Invalidate1Abs
                0x08008c50        0x6 Middlewares/STemWin/Lib/STemWin_CM7_wc32.a(WM.o)
                0x08008c50                WM__Invalidate1Abs
 .text.WM_InvalidateWindowAndDescsEx
                0x08008c56       0x64 Middlewares/STemWin/Lib/STemWin_CM7_wc32.a(WM.o)
                0x08008c56                WM_InvalidateWindowAndDescsEx
 .text.WM__InvalidateRect
                0x08008cba       0x76 Middlewares/STemWin/Lib/STemWin_CM7_wc32.a(WM.o)
                0x08008cba                WM__InvalidateRect
 .text.WM__InvalidateParent
                0x08008d30       0x2a Middlewares/STemWin/Lib/STemWin_CM7_wc32.a(WM.o)
                0x08008d30                WM__InvalidateParent
 .text.WM__InvalidateRectEx
                0x08008d5a        0x6 Middlewares/STemWin/Lib/STemWin_CM7_wc32.a(WM.o)
                0x08008d5a                WM__InvalidateRectEx
 .text.WM__DetachWindow
                0x08008d60       0x2a Middlewares/STemWin/Lib/STemWin_CM7_wc32.a(WM.o)
                0x08008d60                WM__DetachWindow
 .text.WM_InvalidateRect
                0x08008d8a       0x78 Middlewares/STemWin/Lib/STemWin_CM7_wc32.a(WM.o)
                0x08008d8a                WM_InvalidateRect
 .text.WM_InvalidateWindow
                0x08008e02        0x6 Middlewares/STemWin/Lib/STemWin_CM7_wc32.a(WM.o)
                0x08008e02                WM_InvalidateWindow
 .text.WM__SelectTopLevelLayer
                0x08008e08       0x14 Middlewares/STemWin/Lib/STemWin_CM7_wc32.a(WM.o)
                0x08008e08                WM__SelectTopLevelLayer
 .text.WM_SelectWindow
                0x08008e1c       0x40 Middlewares/STemWin/Lib/STemWin_CM7_wc32.a(WM.o)
                0x08008e1c                WM_SelectWindow
 .text.WM_CreateWindowAsChild
                0x08008e5c      0x160 Middlewares/STemWin/Lib/STemWin_CM7_wc32.a(WM.o)
                0x08008e5c                WM_CreateWindowAsChild
 .text.WM_DeleteWindow
                0x08008fbc      0x118 Middlewares/STemWin/Lib/STemWin_CM7_wc32.a(WM.o)
                0x08008fbc                WM_DeleteWindow
 .text._Exec1Input
                0x080090d4       0x84 Middlewares/STemWin/Lib/STemWin_CM7_wc32.a(WM.o)
 .text.WM_GetActiveWindow
                0x08009158        0xc Middlewares/STemWin/Lib/STemWin_CM7_wc32.a(WM.o)
                0x08009158                WM_GetActiveWindow
 .text.WM__GetNextIVR
                0x08009164      0x184 Middlewares/STemWin/Lib/STemWin_CM7_wc32.a(WM.o)
                0x08009164                WM__GetNextIVR
 .text.WM__InitIVRSearch
                0x080092e8      0x100 Middlewares/STemWin/Lib/STemWin_CM7_wc32.a(WM.o)
                0x080092e8                WM__InitIVRSearch
 .text.WM_SetDefault
                0x080093e8       0x14 Middlewares/STemWin/Lib/STemWin_CM7_wc32.a(WM.o)
                0x080093e8                WM_SetDefault
 .text.WM__Paint1
                0x080093fc       0x94 Middlewares/STemWin/Lib/STemWin_CM7_wc32.a(WM.o)
                0x080093fc                WM__Paint1
 .text.WM__Paint
                0x08009490       0xb4 Middlewares/STemWin/Lib/STemWin_CM7_wc32.a(WM.o)
                0x08009490                WM__Paint
 .text._Exec1Draw
                0x08009544       0x8c Middlewares/STemWin/Lib/STemWin_CM7_wc32.a(WM.o)
 .text.WM__DeleteSecure
                0x080095d0       0x1c Middlewares/STemWin/Lib/STemWin_CM7_wc32.a(WM.o)
                0x080095d0                WM__DeleteSecure
 .text.WM_Exec  0x080095ec       0x78 Middlewares/STemWin/Lib/STemWin_CM7_wc32.a(WM.o)
                0x080095ec                WM_Exec
 .text.WM_Activate
                0x08009664       0x10 Middlewares/STemWin/Lib/STemWin_CM7_wc32.a(WM.o)
                0x08009664                WM_Activate
 .text.WM_Deactivate
                0x08009674       0x14 Middlewares/STemWin/Lib/STemWin_CM7_wc32.a(WM.o)
                0x08009674                WM_Deactivate
 .text.WM_DefaultProc
                0x08009688       0x48 Middlewares/STemWin/Lib/STemWin_CM7_wc32.a(WM.o)
                0x08009688                WM_DefaultProc
 .text._cbBackWin
                0x080096d0       0x68 Middlewares/STemWin/Lib/STemWin_CM7_wc32.a(WM.o)
 .text.WM_Init  0x08009738       0xf0 Middlewares/STemWin/Lib/STemWin_CM7_wc32.a(WM.o)
                0x08009738                WM_Init
 .text.WM_ForEachDesc
                0x08009828        0x4 Middlewares/STemWin/Lib/STemWin_CM7_wc32.a(WM_Lib.o)
                0x08009828                WM_ForEachDesc
 .text.WM_GetClientRectEx
                0x0800982c        0x4 Middlewares/STemWin/Lib/STemWin_CM7_wc32.a(WM_Lib.o)
                0x0800982c                WM_GetClientRectEx
 .text.WM_GetClientRect
                0x08009830       0x1c Middlewares/STemWin/Lib/STemWin_CM7_wc32.a(WM_Lib.o)
                0x08009830                WM_GetClientRect
 .text.WM_GetClientWindow
                0x0800984c       0x1a Middlewares/STemWin/Lib/STemWin_CM7_wc32.a(WM_Lib.o)
                0x0800984c                WM_GetClientWindow
 *fill*         0x08009866        0x2 
 .text.WM_GetDesktopWindow
                0x08009868       0x18 Middlewares/STemWin/Lib/STemWin_CM7_wc32.a(WM_Lib.o)
                0x08009868                WM_GetDesktopWindow
 .text.WM_CheckScrollBounds
                0x08009880       0x1e Middlewares/STemWin/Lib/STemWin_CM7_wc32.a(WM_Lib.o)
                0x08009880                WM_CheckScrollBounds
 .text.WM_CheckScrollPos
                0x0800989e       0x2e Middlewares/STemWin/Lib/STemWin_CM7_wc32.a(WM_Lib.o)
                0x0800989e                WM_CheckScrollPos
 .text.WM_GetFirstChild
                0x080098cc       0x10 Middlewares/STemWin/Lib/STemWin_CM7_wc32.a(WM_Lib.o)
                0x080098cc                WM_GetFirstChild
 .text.WM_GetFlags
                0x080098dc        0xe Middlewares/STemWin/Lib/STemWin_CM7_wc32.a(WM_Lib.o)
                0x080098dc                WM_GetFlags
 *fill*         0x080098ea        0x2 
 .text.WM_GetFocusedWindow
                0x080098ec       0x14 Middlewares/STemWin/Lib/STemWin_CM7_wc32.a(WM_Lib.o)
                0x080098ec                WM_GetFocusedWindow
 .text.WM_GetId
                0x08009900       0x20 Middlewares/STemWin/Lib/STemWin_CM7_wc32.a(WM_Lib.o)
                0x08009900                WM_GetId
 .text._GetDialogItem
                0x08009920       0x46 Middlewares/STemWin/Lib/STemWin_CM7_wc32.a(WM_Lib.o)
 .text.WM_GetDialogItem
                0x08009966       0x42 Middlewares/STemWin/Lib/STemWin_CM7_wc32.a(WM_Lib.o)
                0x08009966                WM_GetDialogItem
 .text.WM_GetInsideRectEx
                0x080099a8       0x16 Middlewares/STemWin/Lib/STemWin_CM7_wc32.a(WM_Lib.o)
                0x080099a8                WM_GetInsideRectEx
 .text.WM_GetNextSibling
                0x080099be       0x10 Middlewares/STemWin/Lib/STemWin_CM7_wc32.a(WM_Lib.o)
                0x080099be                WM_GetNextSibling
 .text.WM_GetWindowOrgX
                0x080099ce       0x10 Middlewares/STemWin/Lib/STemWin_CM7_wc32.a(WM_Lib.o)
                0x080099ce                WM_GetWindowOrgX
 .text.WM_GetParent
                0x080099de       0x10 Middlewares/STemWin/Lib/STemWin_CM7_wc32.a(WM_Lib.o)
                0x080099de                WM_GetParent
 .text.WM_BringToBottom
                0x080099ee       0x86 Middlewares/STemWin/Lib/STemWin_CM7_wc32.a(WM_Lib.o)
                0x080099ee                WM_BringToBottom
 .text.WM_GetScrollbarH
                0x08009a74        0xa Middlewares/STemWin/Lib/STemWin_CM7_wc32.a(WM_Lib.o)
                0x08009a74                WM_GetScrollbarH
 .text.WM_GetScrollbarV
                0x08009a7e        0xa Middlewares/STemWin/Lib/STemWin_CM7_wc32.a(WM_Lib.o)
                0x08009a7e                WM_GetScrollbarV
 .text.WM_GetScrollPartner
                0x08009a88       0x2a Middlewares/STemWin/Lib/STemWin_CM7_wc32.a(WM_Lib.o)
                0x08009a88                WM_GetScrollPartner
 .text.WM_GetScrollState
                0x08009ab2       0x14 Middlewares/STemWin/Lib/STemWin_CM7_wc32.a(WM_Lib.o)
                0x08009ab2                WM_GetScrollState
 .text.WM_GetWindowRectEx
                0x08009ac6       0x16 Middlewares/STemWin/Lib/STemWin_CM7_wc32.a(WM_Lib.o)
                0x08009ac6                WM_GetWindowRectEx
 .text.WM_GetInsideRectExScrollbar
                0x08009adc       0xac Middlewares/STemWin/Lib/STemWin_CM7_wc32.a(WM_Lib.o)
                0x08009adc                WM_GetInsideRectExScrollbar
 .text.WM_HasCaptured
                0x08009b88       0x1c Middlewares/STemWin/Lib/STemWin_CM7_wc32.a(WM_Lib.o)
                0x08009b88                WM_HasCaptured
 .text.WM_HasFocus
                0x08009ba4       0x1c Middlewares/STemWin/Lib/STemWin_CM7_wc32.a(WM_Lib.o)
                0x08009ba4                WM_HasFocus
 .text.WM_IsFocusable
                0x08009bc0       0x30 Middlewares/STemWin/Lib/STemWin_CM7_wc32.a(WM_Lib.o)
                0x08009bc0                WM_IsFocusable
 .text.WM_IsWindow
                0x08009bf0        0x4 Middlewares/STemWin/Lib/STemWin_CM7_wc32.a(WM_Lib.o)
                0x08009bf0                WM_IsWindow
 .text.WM_OnKey
                0x08009bf4       0x34 Middlewares/STemWin/Lib/STemWin_CM7_wc32.a(WM_Lib.o)
                0x08009bf4                WM_OnKey
 .text.WM_ResizeWindow
                0x08009c28       0xf6 Middlewares/STemWin/Lib/STemWin_CM7_wc32.a(WM_Lib.o)
                0x08009c28                WM_ResizeWindow
 .text.WM_SendMessageNoPara
                0x08009d1e        0x4 Middlewares/STemWin/Lib/STemWin_CM7_wc32.a(WM_Lib.o)
                0x08009d1e                WM_SendMessageNoPara
 .text.WM_SendToParent
                0x08009d22       0x1c Middlewares/STemWin/Lib/STemWin_CM7_wc32.a(WM_Lib.o)
                0x08009d22                WM_SendToParent
 .text.WM_NotifyParent
                0x08009d3e       0x14 Middlewares/STemWin/Lib/STemWin_CM7_wc32.a(WM_Lib.o)
                0x08009d3e                WM_NotifyParent
 *fill*         0x08009d52        0x2 
 .text.WM_SetFocus
                0x08009d54       0x9c Middlewares/STemWin/Lib/STemWin_CM7_wc32.a(WM_Lib.o)
                0x08009d54                WM_SetFocus
 .text.WM_SetScrollState
                0x08009df0       0x18 Middlewares/STemWin/Lib/STemWin_CM7_wc32.a(WM_Lib.o)
                0x08009df0                WM_SetScrollState
 .text.WM_SetSize
                0x08009e08       0x4c Middlewares/STemWin/Lib/STemWin_CM7_wc32.a(WM_Lib.o)
                0x08009e08                WM_SetSize
 .text.WM_SetUserClipRect
                0x08009e54       0x18 Middlewares/STemWin/Lib/STemWin_CM7_wc32.a(WM_Lib.o)
                0x08009e54                WM_SetUserClipRect
 .text.WM_InvalidateWindowAndDescs
                0x08009e6c       0x26 Middlewares/STemWin/Lib/STemWin_CM7_wc32.a(WM_Lib.o)
                0x08009e6c                WM_InvalidateWindowAndDescs
 .text.WM_ShowWindow
                0x08009e92       0x28 Middlewares/STemWin/Lib/STemWin_CM7_wc32.a(WM_Lib.o)
                0x08009e92                WM_ShowWindow
 *fill*         0x08009eba        0x2 
 .text.WM_ValidateWindow
                0x08009ebc       0x30 Middlewares/STemWin/Lib/STemWin_CM7_wc32.a(WM_Lib.o)
                0x08009ebc                WM_ValidateWindow
 .text._MoveDescendents
                0x08009eec       0x72 Middlewares/STemWin/Lib/STemWin_CM7_wc32.a(WM_Move.o)
 .text.WM__MoveWindow
                0x08009f5e       0xa8 Middlewares/STemWin/Lib/STemWin_CM7_wc32.a(WM_Move.o)
                0x08009f5e                WM__MoveWindow
 .text.WM_MoveWindow
                0x0800a006        0x4 Middlewares/STemWin/Lib/STemWin_CM7_wc32.a(WM_Move.o)
                0x0800a006                WM_MoveWindow
 .text._cbTimer
                0x0800a00a       0x2c Middlewares/STemWin/Lib/STemWin_CM7_wc32.a(WM_Timer.o)
 .text.WM_DeleteTimer
                0x0800a036       0x26 Middlewares/STemWin/Lib/STemWin_CM7_wc32.a(WM_Timer.o)
                0x0800a036                WM_DeleteTimer
 .text.WM__DeleteAssocTimer
                0x0800a05c       0x4a Middlewares/STemWin/Lib/STemWin_CM7_wc32.a(WM_Timer.o)
                0x0800a05c                WM__DeleteAssocTimer
 *fill*         0x0800a0a6        0x2 
 .text.WM_CreateTimer
                0x0800a0a8       0x60 Middlewares/STemWin/Lib/STemWin_CM7_wc32.a(WM_Timer.o)
                0x0800a0a8                WM_CreateTimer
 .text.WM_RestartTimer
                0x0800a108       0x2c Middlewares/STemWin/Lib/STemWin_CM7_wc32.a(WM_Timer.o)
                0x0800a108                WM_RestartTimer
 .text.WM__ForEachDesc
                0x0800a134       0x2a Middlewares/STemWin/Lib/STemWin_CM7_wc32.a(WM__Private.o)
                0x0800a134                WM__ForEachDesc
 .text.WM__GetFirstSibling
                0x0800a15e       0x12 Middlewares/STemWin/Lib/STemWin_CM7_wc32.a(WM__Private.o)
                0x0800a15e                WM__GetFirstSibling
 .text.WM__GetLastSibling
                0x0800a170       0x18 Middlewares/STemWin/Lib/STemWin_CM7_wc32.a(WM__Private.o)
                0x0800a170                WM__GetLastSibling
 .text.WM__GetPrevSibling
                0x0800a188       0x26 Middlewares/STemWin/Lib/STemWin_CM7_wc32.a(WM__Private.o)
                0x0800a188                WM__GetPrevSibling
 .text.WM__IsAncestor
                0x0800a1ae       0x22 Middlewares/STemWin/Lib/STemWin_CM7_wc32.a(WM__Private.o)
                0x0800a1ae                WM__IsAncestor
 .text.WM__IsAncestorOrSelf
                0x0800a1d0        0xc Middlewares/STemWin/Lib/STemWin_CM7_wc32.a(WM__Private.o)
                0x0800a1d0                WM__IsAncestorOrSelf
 .text.WM__IsChild
                0x0800a1dc       0x28 Middlewares/STemWin/Lib/STemWin_CM7_wc32.a(WM__Private.o)
                0x0800a1dc                WM__IsChild
 .text.WM__GetFocusedChild
                0x0800a204       0x24 Middlewares/STemWin/Lib/STemWin_CM7_wc32.a(WM__Private.o)
                0x0800a204                WM__GetFocusedChild
 .text.WM__IsEnabled
                0x0800a228       0x12 Middlewares/STemWin/Lib/STemWin_CM7_wc32.a(WM__Private.o)
                0x0800a228                WM__IsEnabled
 .text.WM__Screen2Client
                0x0800a23a       0x14 Middlewares/STemWin/Lib/STemWin_CM7_wc32.a(WM__Private.o)
                0x0800a23a                WM__Screen2Client
 *fill*         0x0800a24e        0x2 
 .text.WM__SendMessage
                0x0800a250       0x3c Middlewares/STemWin/Lib/STemWin_CM7_wc32.a(WM__Private.o)
                0x0800a250                WM__SendMessage
 .text.WM__SendMessageNoPara
                0x0800a28c       0x28 Middlewares/STemWin/Lib/STemWin_CM7_wc32.a(WM__Private.o)
                0x0800a28c                WM__SendMessageNoPara
 .text.WM__UpdateChildPositions
                0x0800a2b4       0xec Middlewares/STemWin/Lib/STemWin_CM7_wc32.a(WM__Private.o)
                0x0800a2b4                WM__UpdateChildPositions
 .text.WM__AddCriticalHandle
                0x0800a3a0       0x10 Middlewares/STemWin/Lib/STemWin_CM7_wc32.a(WM__Private.o)
                0x0800a3a0                WM__AddCriticalHandle
 .text.WM__GetClientRectEx
                0x0800a3b0       0x22 Middlewares/STemWin/Lib/STemWin_CM7_wc32.a(WM__Private.o)
                0x0800a3b0                WM__GetClientRectEx
 .text._OnButtonPressed
                0x0800a3d2       0x30 Middlewares/STemWin/Lib/STemWin_CM7_wc32.a(BUTTON.o)
 .text._OnButtonReleased
                0x0800a402       0x40 Middlewares/STemWin/Lib/STemWin_CM7_wc32.a(BUTTON.o)
 .text._OnTouchDefault
                0x0800a442       0x40 Middlewares/STemWin/Lib/STemWin_CM7_wc32.a(BUTTON.o)
 *fill*         0x0800a482        0x2 
 .text.BUTTON_Callback
                0x0800a484       0xd8 Middlewares/STemWin/Lib/STemWin_CM7_wc32.a(BUTTON.o)
                0x0800a484                BUTTON_Callback
 .text.BUTTON_CreateUser
                0x0800a55c       0x70 Middlewares/STemWin/Lib/STemWin_CM7_wc32.a(BUTTON.o)
                0x0800a55c                BUTTON_CreateUser
 .text.BUTTON_SetText
                0x0800a5cc       0x52 Middlewares/STemWin/Lib/STemWin_CM7_wc32.a(BUTTON.o)
                0x0800a5cc                BUTTON_SetText
 .text.BUTTON_CreateIndirect
                0x0800a61e       0x46 Middlewares/STemWin/Lib/STemWin_CM7_wc32.a(BUTTON.o)
                0x0800a61e                BUTTON_CreateIndirect
 .text._Create  0x0800a664       0x36 Middlewares/STemWin/Lib/STemWin_CM7_wc32.a(BUTTON_Skin.o)
 .text._Paint   0x0800a69a       0x84 Middlewares/STemWin/Lib/STemWin_CM7_wc32.a(BUTTON_Skin.o)
 *fill*         0x0800a71e        0x2 
 .text.BUTTON_DrawSkinFlex
                0x0800a720      0x238 Middlewares/STemWin/Lib/STemWin_CM7_wc32.a(BUTTON_SkinFlex.o)
                0x0800a720                BUTTON_DrawSkinFlex
 .text.GUI_CreateDialogBox
                0x0800a958       0xae Middlewares/STemWin/Lib/STemWin_CM7_wc32.a(DIALOG.o)
                0x0800a958                GUI_CreateDialogBox
 .text.FRAMEWIN__GetBorderSize
                0x0800aa06       0x44 Middlewares/STemWin/Lib/STemWin_CM7_wc32.a(FRAMEWIN.o)
                0x0800aa06                FRAMEWIN__GetBorderSize
 .text._SetActive
                0x0800aa4a       0x38 Middlewares/STemWin/Lib/STemWin_CM7_wc32.a(FRAMEWIN.o)
 .text.FRAMEWIN__cbClient
                0x0800aa82       0xe2 Middlewares/STemWin/Lib/STemWin_CM7_wc32.a(FRAMEWIN.o)
 .text.FRAMEWIN__CalcTitleHeight
                0x0800ab64       0x22 Middlewares/STemWin/Lib/STemWin_CM7_wc32.a(FRAMEWIN.o)
                0x0800ab64                FRAMEWIN__CalcTitleHeight
 .text.FRAMEWIN__GetTitleLimits
                0x0800ab86       0x8a Middlewares/STemWin/Lib/STemWin_CM7_wc32.a(FRAMEWIN.o)
                0x0800ab86                FRAMEWIN__GetTitleLimits
 .text.FRAMEWIN__CalcPositions
                0x0800ac10       0xec Middlewares/STemWin/Lib/STemWin_CM7_wc32.a(FRAMEWIN.o)
                0x0800ac10                FRAMEWIN__CalcPositions
 .text.FRAMEWIN_SetText
                0x0800acfc       0x3e Middlewares/STemWin/Lib/STemWin_CM7_wc32.a(FRAMEWIN.o)
                0x0800acfc                FRAMEWIN_SetText
 *fill*         0x0800ad3a        0x2 
 .text.FRAMEWIN_CreateUser
                0x0800ad3c       0xf4 Middlewares/STemWin/Lib/STemWin_CM7_wc32.a(FRAMEWIN.o)
                0x0800ad3c                FRAMEWIN_CreateUser
 .text.FRAMEWIN_CreateIndirect
                0x0800ae30       0x44 Middlewares/STemWin/Lib/STemWin_CM7_wc32.a(FRAMEWIN.o)
                0x0800ae30                FRAMEWIN_CreateIndirect
 .text.FRAMEWIN_SetActive
                0x0800ae74        0x8 Middlewares/STemWin/Lib/STemWin_CM7_wc32.a(FRAMEWIN.o)
                0x0800ae74                FRAMEWIN_SetActive
 .text.FRAMEWIN_Callback
                0x0800ae7c      0x27c Middlewares/STemWin/Lib/STemWin_CM7_wc32.a(FRAMEWIN.o)
                0x0800ae7c                FRAMEWIN_Callback
 .text.FRAMEWIN_GetActive
                0x0800b0f8       0x24 Middlewares/STemWin/Lib/STemWin_CM7_wc32.a(FRAMEWIN.o)
                0x0800b0f8                FRAMEWIN_GetActive
 .text._GetBorderSize
                0x0800b11c       0x40 Middlewares/STemWin/Lib/STemWin_CM7_wc32.a(FRAMEWIN_Skin.o)
 .text._Create  0x0800b15c       0x2c Middlewares/STemWin/Lib/STemWin_CM7_wc32.a(FRAMEWIN_Skin.o)
 .text._Paint   0x0800b188       0xfe Middlewares/STemWin/Lib/STemWin_CM7_wc32.a(FRAMEWIN_Skin.o)
 *fill*         0x0800b286        0x2 
 .text.FRAMEWIN_DrawSkinFlex
                0x0800b288      0x378 Middlewares/STemWin/Lib/STemWin_CM7_wc32.a(FRAMEWIN_SkinFlex.o)
                0x0800b288                FRAMEWIN_DrawSkinFlex
 .text.GUI_DRAW__Draw
                0x0800b600       0x32 Middlewares/STemWin/Lib/STemWin_CM7_wc32.a(GUI_DRAW.o)
                0x0800b600                GUI_DRAW__Draw
 .text._GetNumCharsInPrompt
                0x0800b632       0x38 Middlewares/STemWin/Lib/STemWin_CM7_wc32.a(MULTIEDIT.o)
 .text._GetNumChars
                0x0800b66a       0x3a Middlewares/STemWin/Lib/STemWin_CM7_wc32.a(MULTIEDIT.o)
 .text._IsCharsAvailable
                0x0800b6a4       0x40 Middlewares/STemWin/Lib/STemWin_CM7_wc32.a(MULTIEDIT.o)
 .text._SetScrollState
                0x0800b6e4       0x3a Middlewares/STemWin/Lib/STemWin_CM7_wc32.a(MULTIEDIT.o)
 .text._IsSpaceInBuffer
                0x0800b71e       0xa4 Middlewares/STemWin/Lib/STemWin_CM7_wc32.a(MULTIEDIT.o)
 .text._GetCharDistX
                0x0800b7c2       0x26 Middlewares/STemWin/Lib/STemWin_CM7_wc32.a(MULTIEDIT.o)
 .text._GetXSize.isra.6
                0x0800b7e8       0x20 Middlewares/STemWin/Lib/STemWin_CM7_wc32.a(MULTIEDIT.o)
 .text._WrapGetNumCharsDisp
                0x0800b808       0x90 Middlewares/STemWin/Lib/STemWin_CM7_wc32.a(MULTIEDIT.o)
 .text._WrapGetNumBytesFromCurrent
                0x0800b898       0x4e Middlewares/STemWin/Lib/STemWin_CM7_wc32.a(MULTIEDIT.o)
 .text._WrapGetNumBytesToNextLine
                0x0800b8e6       0x1e Middlewares/STemWin/Lib/STemWin_CM7_wc32.a(MULTIEDIT.o)
 .text._GetpLineLocked
                0x0800b904       0x56 Middlewares/STemWin/Lib/STemWin_CM7_wc32.a(MULTIEDIT.o)
 .text._GetCursorXY
                0x0800b95a      0x10a Middlewares/STemWin/Lib/STemWin_CM7_wc32.a(MULTIEDIT.o)
 .text._CalcScrollPos
                0x0800ba64       0x6a Middlewares/STemWin/Lib/STemWin_CM7_wc32.a(MULTIEDIT.o)
 .text._GetCursorLine
                0x0800bace       0x6a Middlewares/STemWin/Lib/STemWin_CM7_wc32.a(MULTIEDIT.o)
 .text._CalcNextValidCursorPos
                0x0800bb38       0xe6 Middlewares/STemWin/Lib/STemWin_CM7_wc32.a(MULTIEDIT.o)
 .text._SetCursorPos
                0x0800bc1e       0x64 Middlewares/STemWin/Lib/STemWin_CM7_wc32.a(MULTIEDIT.o)
 .text._IsOverwriteAtThisChar
                0x0800bc82       0x96 Middlewares/STemWin/Lib/STemWin_CM7_wc32.a(MULTIEDIT.o)
 .text._GetNumLines
                0x0800bd18       0x7a Middlewares/STemWin/Lib/STemWin_CM7_wc32.a(MULTIEDIT.o)
 .text._GetTextSizeX
                0x0800bd92       0xa0 Middlewares/STemWin/Lib/STemWin_CM7_wc32.a(MULTIEDIT.o)
 .text._DeleteChar
                0x0800be32       0xee Middlewares/STemWin/Lib/STemWin_CM7_wc32.a(MULTIEDIT.o)
 .text._GetCursorSizeX
                0x0800bf20       0xac Middlewares/STemWin/Lib/STemWin_CM7_wc32.a(MULTIEDIT.o)
 .text._InvertCursor
                0x0800bfcc       0xb4 Middlewares/STemWin/Lib/STemWin_CM7_wc32.a(MULTIEDIT.o)
 .text._GetNumVisLines.isra.9
                0x0800c080       0x24 Middlewares/STemWin/Lib/STemWin_CM7_wc32.a(MULTIEDIT.o)
 .text._ManageAutoScrollV
                0x0800c0a4       0x74 Middlewares/STemWin/Lib/STemWin_CM7_wc32.a(MULTIEDIT.o)
 .text._CalcScrollParas
                0x0800c118       0x52 Middlewares/STemWin/Lib/STemWin_CM7_wc32.a(MULTIEDIT.o)
 .text._ManageScrollers
                0x0800c16a       0x62 Middlewares/STemWin/Lib/STemWin_CM7_wc32.a(MULTIEDIT.o)
 .text._Invalidate
                0x0800c1cc       0x12 Middlewares/STemWin/Lib/STemWin_CM7_wc32.a(MULTIEDIT.o)
 .text._InvalidateTextArea
                0x0800c1de       0x1c Middlewares/STemWin/Lib/STemWin_CM7_wc32.a(MULTIEDIT.o)
 .text._SetText
                0x0800c1fa       0xe4 Middlewares/STemWin/Lib/STemWin_CM7_wc32.a(MULTIEDIT.o)
 *fill*         0x0800c2de        0x2 
 .text._SetCursorXY
                0x0800c2e0      0x120 Middlewares/STemWin/Lib/STemWin_CM7_wc32.a(MULTIEDIT.o)
 .text._MoveCursor2NextLine
                0x0800c400       0x40 Middlewares/STemWin/Lib/STemWin_CM7_wc32.a(MULTIEDIT.o)
 .text._InsertChar
                0x0800c440       0x98 Middlewares/STemWin/Lib/STemWin_CM7_wc32.a(MULTIEDIT.o)
 .text._AddKey  0x0800c4d8      0x548 Middlewares/STemWin/Lib/STemWin_CM7_wc32.a(MULTIEDIT.o)
 .text.MULTIEDIT_Callback
                0x0800ca20      0x3d2 Middlewares/STemWin/Lib/STemWin_CM7_wc32.a(MULTIEDIT.o)
                0x0800ca20                MULTIEDIT_Callback
 .text.MULTIEDIT_SetText
                0x0800cdf2        0x8 Middlewares/STemWin/Lib/STemWin_CM7_wc32.a(MULTIEDIT.o)
                0x0800cdf2                MULTIEDIT_SetText
 *fill*         0x0800cdfa        0x2 
 .text.MULTIEDIT_CreateUser
                0x0800cdfc       0xf4 Middlewares/STemWin/Lib/STemWin_CM7_wc32.a(MULTIEDIT.o)
                0x0800cdfc                MULTIEDIT_CreateUser
 .text.MULTIEDIT_CreateEx
                0x0800cef0       0x28 Middlewares/STemWin/Lib/STemWin_CM7_wc32.a(MULTIEDIT.o)
                0x0800cef0                MULTIEDIT_CreateEx
 .text._DeleteTimer
                0x0800cf18       0x24 Middlewares/STemWin/Lib/STemWin_CM7_wc32.a(SCROLLBAR.o)
 .text.SCROLLBAR__Rect2VRect
                0x0800cf3c       0x34 Middlewares/STemWin/Lib/STemWin_CM7_wc32.a(SCROLLBAR.o)
                0x0800cf3c                SCROLLBAR__Rect2VRect
 .text.SCROLLBAR__InvalidatePartner
                0x0800cf70       0x1c Middlewares/STemWin/Lib/STemWin_CM7_wc32.a(SCROLLBAR.o)
                0x0800cf70                SCROLLBAR__InvalidatePartner
 .text.SCROLLBAR_CreateUser
                0x0800cf8c       0xd8 Middlewares/STemWin/Lib/STemWin_CM7_wc32.a(SCROLLBAR.o)
                0x0800cf8c                SCROLLBAR_CreateUser
 .text.SCROLLBAR_CreateEx
                0x0800d064       0x20 Middlewares/STemWin/Lib/STemWin_CM7_wc32.a(SCROLLBAR.o)
                0x0800d064                SCROLLBAR_CreateEx
 .text.SCROLLBAR_CreateAttached
                0x0800d084       0x3a Middlewares/STemWin/Lib/STemWin_CM7_wc32.a(SCROLLBAR.o)
                0x0800d084                SCROLLBAR_CreateAttached
 .text.SCROLLBAR_SetValue
                0x0800d0be       0x4e Middlewares/STemWin/Lib/STemWin_CM7_wc32.a(SCROLLBAR.o)
                0x0800d0be                SCROLLBAR_SetValue
 .text.SCROLLBAR_AddValue
                0x0800d10c       0x26 Middlewares/STemWin/Lib/STemWin_CM7_wc32.a(SCROLLBAR.o)
                0x0800d10c                SCROLLBAR_AddValue
 .text.SCROLLBAR_Dec
                0x0800d132        0x8 Middlewares/STemWin/Lib/STemWin_CM7_wc32.a(SCROLLBAR.o)
                0x0800d132                SCROLLBAR_Dec
 .text.SCROLLBAR_Inc
                0x0800d13a        0x6 Middlewares/STemWin/Lib/STemWin_CM7_wc32.a(SCROLLBAR.o)
                0x0800d13a                SCROLLBAR_Inc
 .text.SCROLLBAR_Callback
                0x0800d140      0x396 Middlewares/STemWin/Lib/STemWin_CM7_wc32.a(SCROLLBAR.o)
                0x0800d140                SCROLLBAR_Callback
 *fill*         0x0800d4d6        0x2 
 .text._Create  0x0800d4d8       0x38 Middlewares/STemWin/Lib/STemWin_CM7_wc32.a(SCROLLBAR_Skin.o)
 .text._CalcPositions
                0x0800d510      0x15c Middlewares/STemWin/Lib/STemWin_CM7_wc32.a(SCROLLBAR_Skin.o)
 .text._Paint   0x0800d66c       0xb6 Middlewares/STemWin/Lib/STemWin_CM7_wc32.a(SCROLLBAR_Skin.o)
 .text._GetArrowPara
                0x0800d722       0x30 Middlewares/STemWin/Lib/STemWin_CM7_wc32.a(SCROLLBAR_SkinFlex.o)
 .text._DrawGraspH
                0x0800d752       0x5c Middlewares/STemWin/Lib/STemWin_CM7_wc32.a(SCROLLBAR_SkinFlex.o)
 .text._DrawGraspV
                0x0800d7ae       0x5c Middlewares/STemWin/Lib/STemWin_CM7_wc32.a(SCROLLBAR_SkinFlex.o)
 .text._DrawFrame
                0x0800d80a       0xf4 Middlewares/STemWin/Lib/STemWin_CM7_wc32.a(SCROLLBAR_SkinFlex.o)
 .text._DrawBackgroundH
                0x0800d8fe       0x5c Middlewares/STemWin/Lib/STemWin_CM7_wc32.a(SCROLLBAR_SkinFlex.o)
 .text._DrawBackgroundV
                0x0800d95a       0x5c Middlewares/STemWin/Lib/STemWin_CM7_wc32.a(SCROLLBAR_SkinFlex.o)
 *fill*         0x0800d9b6        0x2 
 .text.SCROLLBAR_DrawSkinFlex
                0x0800d9b8      0x1a4 Middlewares/STemWin/Lib/STemWin_CM7_wc32.a(SCROLLBAR_SkinFlex.o)
                0x0800d9b8                SCROLLBAR_DrawSkinFlex
 .text.TEXT_Callback
                0x0800db5c       0xc6 Middlewares/STemWin/Lib/STemWin_CM7_wc32.a(TEXT.o)
                0x0800db5c                TEXT_Callback
 *fill*         0x0800dc22        0x2 
 .text.TEXT_CreateUser
                0x0800dc24       0x84 Middlewares/STemWin/Lib/STemWin_CM7_wc32.a(TEXT.o)
                0x0800dc24                TEXT_CreateUser
 .text.TEXT_CreateEx
                0x0800dca8       0x24 Middlewares/STemWin/Lib/STemWin_CM7_wc32.a(TEXT.o)
                0x0800dca8                TEXT_CreateEx
 .text._EffectRequiresRedraw
                0x0800dccc       0x60 Middlewares/STemWin/Lib/STemWin_CM7_wc32.a(WIDGET.o)
 .text.WIDGET__RotateRect90
                0x0800dd2c       0x28 Middlewares/STemWin/Lib/STemWin_CM7_wc32.a(WIDGET.o)
                0x0800dd2c                WIDGET__RotateRect90
 .text.WIDGET__GetClientRect
                0x0800dd54       0x34 Middlewares/STemWin/Lib/STemWin_CM7_wc32.a(WIDGET.o)
                0x0800dd54                WIDGET__GetClientRect
 .text.WIDGET__GetInsideRect
                0x0800dd88       0x1a Middlewares/STemWin/Lib/STemWin_CM7_wc32.a(WIDGET.o)
                0x0800dd88                WIDGET__GetInsideRect
 *fill*         0x0800dda2        0x2 
 .text.WIDGET__Init
                0x0800dda4       0x10 Middlewares/STemWin/Lib/STemWin_CM7_wc32.a(WIDGET.o)
                0x0800dda4                WIDGET__Init
 .text.WIDGET_SetState
                0x0800ddb4       0x24 Middlewares/STemWin/Lib/STemWin_CM7_wc32.a(WIDGET.o)
                0x0800ddb4                WIDGET_SetState
 .text.WIDGET_OrState
                0x0800ddd8       0x2a Middlewares/STemWin/Lib/STemWin_CM7_wc32.a(WIDGET.o)
                0x0800ddd8                WIDGET_OrState
 .text.WIDGET_AndState
                0x0800de02       0x2a Middlewares/STemWin/Lib/STemWin_CM7_wc32.a(WIDGET.o)
                0x0800de02                WIDGET_AndState
 .text.WIDGET_HandleActive
                0x0800de2c      0x13e Middlewares/STemWin/Lib/STemWin_CM7_wc32.a(WIDGET.o)
                0x0800de2c                WIDGET_HandleActive
 .text.WIDGET__SetScrollState
                0x0800df6a       0x26 Middlewares/STemWin/Lib/STemWin_CM7_wc32.a(WIDGET.o)
                0x0800df6a                WIDGET__SetScrollState
 .text.WIDGET__DrawTriangle
                0x0800df90       0x3c Middlewares/STemWin/Lib/STemWin_CM7_wc32.a(WIDGET.o)
                0x0800df90                WIDGET__DrawTriangle
 .text.WIDGET__EFFECT_DrawDownRect
                0x0800dfcc       0x38 Middlewares/STemWin/Lib/STemWin_CM7_wc32.a(WIDGET.o)
                0x0800dfcc                WIDGET__EFFECT_DrawDownRect
 .text.WIDGET__EFFECT_DrawDown
                0x0800e004        0x6 Middlewares/STemWin/Lib/STemWin_CM7_wc32.a(WIDGET.o)
                0x0800e004                WIDGET__EFFECT_DrawDown
 *fill*         0x0800e00a        0x2 
 .text._DrawDownRect
                0x0800e00c       0x38 Middlewares/STemWin/Lib/STemWin_CM7_wc32.a(WIDGET_Effect_Simple.o)
 .text._DrawUpRect
                0x0800e044        0x4 Middlewares/STemWin/Lib/STemWin_CM7_wc32.a(WIDGET_Effect_Simple.o)
 .text._DrawDown
                0x0800e048       0x14 Middlewares/STemWin/Lib/STemWin_CM7_wc32.a(WIDGET_Effect_Simple.o)
 .text._DrawUp  0x0800e05c        0x4 Middlewares/STemWin/Lib/STemWin_CM7_wc32.a(WIDGET_Effect_Simple.o)
 .text._GetIndexMask_0
                0x0800e060       0x52 Middlewares/STemWin/Lib/STemWin_CM7_wc32.a(GUICC_0.o)
 .text._Index2Color_0
                0x0800e0b2       0x1e Middlewares/STemWin/Lib/STemWin_CM7_wc32.a(GUICC_0.o)
 .text._Color2Index_0
                0x0800e0d0       0x52 Middlewares/STemWin/Lib/STemWin_CM7_wc32.a(GUICC_0.o)
 .text.LCD_Index2Color_8888
                0x0800e122        0x2 Middlewares/STemWin/Lib/STemWin_CM7_wc32.a(GUICC_8888_Index2Color.o)
                0x0800e122                LCD_Index2Color_8888
 .text.GUI_DrawRect
                0x0800e124       0x84 Middlewares/STemWin/Lib/STemWin_CM7_wc32.a(GUI_2DLib.o)
                0x0800e124                GUI_DrawRect
 .text.GUI_GetYAdjust
                0x0800e1a8       0x30 Middlewares/STemWin/Lib/STemWin_CM7_wc32.a(GUI_Char.o)
                0x0800e1a8                GUI_GetYAdjust
 .text.GUI_GetFontDistY
                0x0800e1d8       0x10 Middlewares/STemWin/Lib/STemWin_CM7_wc32.a(GUI_Char.o)
                0x0800e1d8                GUI_GetFontDistY
 .text.GUI_DispNextLine
                0x0800e1e8       0x1c Middlewares/STemWin/Lib/STemWin_CM7_wc32.a(GUI_Char.o)
                0x0800e1e8                GUI_DispNextLine
 .text.GL_DispChar
                0x0800e204       0x38 Middlewares/STemWin/Lib/STemWin_CM7_wc32.a(GUI_Char.o)
                0x0800e204                GL_DispChar
 .text.GUI_GetCharDistX
                0x0800e23c       0x10 Middlewares/STemWin/Lib/STemWin_CM7_wc32.a(GUI_Char.o)
                0x0800e23c                GUI_GetCharDistX
 .text.GUI_GetCharDistXEx
                0x0800e24c       0x10 Middlewares/STemWin/Lib/STemWin_CM7_wc32.a(GUI_Char.o)
                0x0800e24c                GUI_GetCharDistXEx
 .text._Log2VisBuffered
                0x0800e25c        0x2 Middlewares/STemWin/Lib/STemWin_CM7_wc32.a(GUI_CharLine.o)
 *fill*         0x0800e25e        0x2 
 .text._DispLine
                0x0800e260       0x9c Middlewares/STemWin/Lib/STemWin_CM7_wc32.a(GUI_CharLine.o)
 .text.GUI__GetLineNumChars
                0x0800e2fc       0x38 Middlewares/STemWin/Lib/STemWin_CM7_wc32.a(GUI_CharLine.o)
                0x0800e2fc                GUI__GetLineNumChars
 .text.GUI__GetOverlap
                0x0800e334       0x1c Middlewares/STemWin/Lib/STemWin_CM7_wc32.a(GUI_CharLine.o)
                0x0800e334                GUI__GetOverlap
 .text.GUI__GetLineDistX
                0x0800e350       0x60 Middlewares/STemWin/Lib/STemWin_CM7_wc32.a(GUI_CharLine.o)
                0x0800e350                GUI__GetLineDistX
 .text.GUI__DispLine
                0x0800e3b0       0xa8 Middlewares/STemWin/Lib/STemWin_CM7_wc32.a(GUI_CharLine.o)
                0x0800e3b0                GUI__DispLine
 .text.GUIMONO_DispChar
                0x0800e458      0x13c Middlewares/STemWin/Lib/STemWin_CM7_wc32.a(GUI_CharM.o)
                0x0800e458                GUIMONO_DispChar
 .text.GUIMONO_GetCharDistX
                0x0800e594       0x18 Middlewares/STemWin/Lib/STemWin_CM7_wc32.a(GUI_CharM.o)
                0x0800e594                GUIMONO_GetCharDistX
 .text.GUIMONO_GetFontInfo
                0x0800e5ac        0x6 Middlewares/STemWin/Lib/STemWin_CM7_wc32.a(GUI_CharM.o)
                0x0800e5ac                GUIMONO_GetFontInfo
 .text.GUIMONO_IsInFont
                0x0800e5b2       0x36 Middlewares/STemWin/Lib/STemWin_CM7_wc32.a(GUI_CharM.o)
                0x0800e5b2                GUIMONO_IsInFont
 .text.CL_DispChar
                0x0800e5e8       0x8c Middlewares/STemWin/Lib/STemWin_CM7_wc32.a(GUI_DispChar.o)
 .text.GUI_DispCharAt
                0x0800e674       0x10 Middlewares/STemWin/Lib/STemWin_CM7_wc32.a(GUI_DispChar.o)
                0x0800e674                GUI_DispCharAt
 .text.GUI_DispChars
                0x0800e684       0x14 Middlewares/STemWin/Lib/STemWin_CM7_wc32.a(GUI_DispChar.o)
                0x0800e684                GUI_DispChars
 .text._DrawGradient
                0x0800e698      0x196 Middlewares/STemWin/Lib/STemWin_CM7_wc32.a(GUI_DrawGradient.o)
 *fill*         0x0800e82e        0x2 
 .text.GUI_DrawGradientV
                0x0800e830       0x64 Middlewares/STemWin/Lib/STemWin_CM7_wc32.a(GUI_DrawGradient.o)
                0x0800e830                GUI_DrawGradientV
 .text.GUI_DrawGradientH
                0x0800e894       0x64 Middlewares/STemWin/Lib/STemWin_CM7_wc32.a(GUI_DrawGradient.o)
                0x0800e894                GUI_DrawGradientH
 .text.GUI_DrawHLine
                0x0800e8f8       0x48 Middlewares/STemWin/Lib/STemWin_CM7_wc32.a(GUI_DrawLib.o)
                0x0800e8f8                GUI_DrawHLine
 .text.GUI_DrawPixel
                0x0800e940       0x44 Middlewares/STemWin/Lib/STemWin_CM7_wc32.a(GUI_DrawLib.o)
                0x0800e940                GUI_DrawPixel
 .text.GUI_DrawVLine
                0x0800e984       0x44 Middlewares/STemWin/Lib/STemWin_CM7_wc32.a(GUI_DrawLib.o)
                0x0800e984                GUI_DrawVLine
 .text.GUI_FillRect
                0x0800e9c8       0x44 Middlewares/STemWin/Lib/STemWin_CM7_wc32.a(GUI_DrawLib.o)
                0x0800e9c8                GUI_FillRect
 .text.GUI_FillRectEx
                0x0800ea0c       0x14 Middlewares/STemWin/Lib/STemWin_CM7_wc32.a(GUI_DrawLib.o)
                0x0800ea0c                GUI_FillRectEx
 .text._OnExit  0x0800ea20       0x10 Middlewares/STemWin/Lib/STemWin_CM7_wc32.a(GUI_Timer.o)
 .text.GUI_TIMER_Exec
                0x0800ea30       0x6c Middlewares/STemWin/Lib/STemWin_CM7_wc32.a(GUI_Timer.o)
                0x0800ea30                GUI_TIMER_Exec
 .text._Link    0x0800ea9c       0x90 Middlewares/STemWin/Lib/STemWin_CM7_wc32.a(GUI_Timer.o)
 .text._Unlink  0x0800eb2c       0x4c Middlewares/STemWin/Lib/STemWin_CM7_wc32.a(GUI_Timer.o)
 .text.GUI_TIMER__GetFirstTimer
                0x0800eb78       0x30 Middlewares/STemWin/Lib/STemWin_CM7_wc32.a(GUI_Timer.o)
                0x0800eb78                GUI_TIMER__GetFirstTimer
 .text.GUI_TIMER__GetNextTimerLin
                0x0800eba8       0x38 Middlewares/STemWin/Lib/STemWin_CM7_wc32.a(GUI_Timer.o)
                0x0800eba8                GUI_TIMER__GetNextTimerLin
 .text.GUI_TIMER_Create
                0x0800ebe0       0x94 Middlewares/STemWin/Lib/STemWin_CM7_wc32.a(GUI_Timer.o)
                0x0800ebe0                GUI_TIMER_Create
 .text.GUI_TIMER_Delete
                0x0800ec74       0x64 Middlewares/STemWin/Lib/STemWin_CM7_wc32.a(GUI_Timer.o)
                0x0800ec74                GUI_TIMER_Delete
 .text.GUI_TIMER_SetPeriod
                0x0800ecd8       0x1c Middlewares/STemWin/Lib/STemWin_CM7_wc32.a(GUI_Timer.o)
                0x0800ecd8                GUI_TIMER_SetPeriod
 .text.GUI_TIMER_Restart
                0x0800ecf4       0x32 Middlewares/STemWin/Lib/STemWin_CM7_wc32.a(GUI_Timer.o)
                0x0800ecf4                GUI_TIMER_Restart
 .text.GUI_TIMER_GetFlag
                0x0800ed26       0x2a Middlewares/STemWin/Lib/STemWin_CM7_wc32.a(GUI_Timer.o)
                0x0800ed26                GUI_TIMER_GetFlag
 .text.GUI__MixColorsBulk
                0x0800ed50       0x88 Middlewares/STemWin/Lib/STemWin_CM7_wc32.a(GUI__Alpha.o)
                0x0800ed50                GUI__MixColorsBulk
 .text.GUI__MixColors
                0x0800edd8       0x5a Middlewares/STemWin/Lib/STemWin_CM7_wc32.a(GUI__Alpha.o)
                0x0800edd8                GUI__MixColors
 *fill*         0x0800ee32        0x2 
 .text._OnExit  0x0800ee34       0x28 Middlewares/STemWin/Lib/STemWin_CM7_wc32.a(GUI__Alpha.o)
 .text.GUI__GetAlphaBuffer
                0x0800ee5c       0xb8 Middlewares/STemWin/Lib/STemWin_CM7_wc32.a(GUI__Alpha.o)
                0x0800ee5c                GUI__GetAlphaBuffer
 .text.GUI__DoAlphaBlending
                0x0800ef14      0x1d4 Middlewares/STemWin/Lib/STemWin_CM7_wc32.a(GUI__Alpha.o)
                0x0800ef14                GUI__DoAlphaBlending
 .text.GUI__AllocAlphaBuffer
                0x0800f0e8       0x1a Middlewares/STemWin/Lib/STemWin_CM7_wc32.a(GUI__Alpha.o)
                0x0800f0e8                GUI__AllocAlphaBuffer
 .text.GUI__CompactPixelIndices
                0x0800f102      0x16e Middlewares/STemWin/Lib/STemWin_CM7_wc32.a(GUI__CompactPixelIndices.o)
                0x0800f102                GUI__CompactPixelIndices
 .text.GUI__ConvertColor2Index
                0x0800f270      0x196 Middlewares/STemWin/Lib/STemWin_CM7_wc32.a(GUI__CompactPixelIndices.o)
                0x0800f270                GUI__ConvertColor2Index
 .text.GUI__CompactPixelIndicesEx
                0x0800f406        0xe Middlewares/STemWin/Lib/STemWin_CM7_wc32.a(GUI__CompactPixelIndices.o)
                0x0800f406                GUI__CompactPixelIndicesEx
 .text._GetTwinArcPara
                0x0800f414       0x54 Middlewares/STemWin/Lib/STemWin_CM7_wc32.a(GUI__DrawTwinArc.o)
 .text.GUI__DrawTwinArc2
                0x0800f468      0x168 Middlewares/STemWin/Lib/STemWin_CM7_wc32.a(GUI__DrawTwinArc.o)
                0x0800f468                GUI__DrawTwinArc2
 .text.GUI__DrawTwinArc4
                0x0800f5d0      0x1d0 Middlewares/STemWin/Lib/STemWin_CM7_wc32.a(GUI__DrawTwinArc.o)
                0x0800f5d0                GUI__DrawTwinArc4
 .text.GUI__ExpandPixelIndicesEx
                0x0800f7a0      0x17c Middlewares/STemWin/Lib/STemWin_CM7_wc32.a(GUI__ExpandPixelIndices.o)
                0x0800f7a0                GUI__ExpandPixelIndicesEx
 .text._GetCursorPosX
                0x0800f91c       0x24 Middlewares/STemWin/Lib/STemWin_CM7_wc32.a(GUI__GetCursorPos.o)
 .text._GetCursorCharacter
                0x0800f940       0x2c Middlewares/STemWin/Lib/STemWin_CM7_wc32.a(GUI__GetCursorPos.o)
 .text._GetCursorPosChar
                0x0800f96c       0x42 Middlewares/STemWin/Lib/STemWin_CM7_wc32.a(GUI__GetCursorPos.o)
 *fill*         0x0800f9ae        0x2 
 .text.GUI__GetCursorPosX
                0x0800f9b0       0x18 Middlewares/STemWin/Lib/STemWin_CM7_wc32.a(GUI__GetCursorPos.o)
                0x0800f9b0                GUI__GetCursorPosX
 .text.GUI__GetCursorPosChar
                0x0800f9c8       0x18 Middlewares/STemWin/Lib/STemWin_CM7_wc32.a(GUI__GetCursorPos.o)
                0x0800f9c8                GUI__GetCursorPosChar
 .text.GUI__ManageCacheEx
                0x0800f9e0       0xdc Middlewares/STemWin/Lib/STemWin_CM7_wc32.a(GUI__ManageCache.o)
                0x0800f9e0                GUI__ManageCacheEx
 .text.GUI__ManageCache
                0x0800fabc       0x10 Middlewares/STemWin/Lib/STemWin_CM7_wc32.a(GUI__ManageCache.o)
                0x0800fabc                GUI__ManageCache
 .text.LCD_AA_MixColors16
                0x0800facc       0x48 Middlewares/STemWin/Lib/STemWin_CM7_wc32.a(LCD_AA.o)
                0x0800facc                LCD_AA_MixColors16
 .text.LCD_AA_SetAndMask
                0x0800fb14       0x10 Middlewares/STemWin/Lib/STemWin_CM7_wc32.a(LCD_AA.o)
                0x0800fb14                LCD_AA_SetAndMask
 .text.LCD_ReadRectEx
                0x0800fb24      0x1a4 Middlewares/STemWin/Lib/STemWin_CM7_wc32.a(LCD_ReadRect.o)
 .text.GUI_ReadRectEx
                0x0800fcc8       0x60 Middlewares/STemWin/Lib/STemWin_CM7_wc32.a(LCD_ReadRect.o)
                0x0800fcc8                GUI_ReadRectEx
 .text.LCD_SetClipRectEx
                0x0800fd28       0x30 Middlewares/STemWin/Lib/STemWin_CM7_wc32.a(LCD_SetClipRectEx.o)
                0x0800fd28                LCD_SetClipRectEx
 .text.GUI_MEMDEV__WriteToActiveAt
                0x0800fd58       0x38 Middlewares/STemWin/Lib/STemWin_CM7_wc32.a(GUIDEV.o)
                0x0800fd58                GUI_MEMDEV__WriteToActiveAt
 .text.GUI_MEMDEV__CreateFixed
                0x0800fd90      0x124 Middlewares/STemWin/Lib/STemWin_CM7_wc32.a(GUIDEV.o)
                0x0800fd90                GUI_MEMDEV__CreateFixed
 .text.GUI_MEMDEV_GetBitsPerPixel
                0x0800feb4       0x2a Middlewares/STemWin/Lib/STemWin_CM7_wc32.a(GUIDEV.o)
                0x0800feb4                GUI_MEMDEV_GetBitsPerPixel
 *fill*         0x0800fede        0x2 
 .text.GUI_MEMDEV_Delete
                0x0800fee0       0x44 Middlewares/STemWin/Lib/STemWin_CM7_wc32.a(GUIDEV.o)
                0x0800fee0                GUI_MEMDEV_Delete
 .text.GUI_MEMDEV_CreateEx
                0x0800ff24       0x78 Middlewares/STemWin/Lib/STemWin_CM7_wc32.a(GUIDEV.o)
                0x0800ff24                GUI_MEMDEV_CreateEx
 .text.GUI_MEMDEV_Select
                0x0800ff9c       0x4c Middlewares/STemWin/Lib/STemWin_CM7_wc32.a(GUIDEV.o)
                0x0800ff9c                GUI_MEMDEV_Select
 .text.GUI_MEMDEV_CopyToLCDAt
                0x0800ffe8       0xa8 Middlewares/STemWin/Lib/STemWin_CM7_wc32.a(GUIDEV.o)
                0x0800ffe8                GUI_MEMDEV_CopyToLCDAt
 .text.GUI_MEMDEV_CopyToLCD
                0x08010090        0xc Middlewares/STemWin/Lib/STemWin_CM7_wc32.a(GUIDEV.o)
                0x08010090                GUI_MEMDEV_CopyToLCD
 .text.GUI_MEMDEV_Draw
                0x0801009c      0x15c Middlewares/STemWin/Lib/STemWin_CM7_wc32.a(GUIDEV_Banding.o)
                0x0801009c                GUI_MEMDEV_Draw
 .text.GUI_MEMDEV_Clear
                0x080101f8       0x40 Middlewares/STemWin/Lib/STemWin_CM7_wc32.a(GUIDEV_Clear.o)
                0x080101f8                GUI_MEMDEV_Clear
 .text.GUI_MEMDEV_GetDataPtr
                0x08010238       0x20 Middlewares/STemWin/Lib/STemWin_CM7_wc32.a(GUIDEV_GetDataPtr.o)
                0x08010238                GUI_MEMDEV_GetDataPtr
 .text.GUI_MEMDEV_GetYSize
                0x08010258       0x30 Middlewares/STemWin/Lib/STemWin_CM7_wc32.a(GUIDEV_GetYSize.o)
                0x08010258                GUI_MEMDEV_GetYSize
 .text.GUI_MEMDEV_ReduceYSize
                0x08010288       0x2c Middlewares/STemWin/Lib/STemWin_CM7_wc32.a(GUIDEV_ReduceYSize.o)
                0x08010288                GUI_MEMDEV_ReduceYSize
 .text.GUI_MEMDEV_SetOrg
                0x080102b4       0x58 Middlewares/STemWin/Lib/STemWin_CM7_wc32.a(GUIDEV_SetOrg.o)
                0x080102b4                GUI_MEMDEV_SetOrg
 .text._CreateStaticDevice
                0x0801030c      0x164 Middlewares/STemWin/Lib/STemWin_CM7_wc32.a(GUIDEV_StaticDevices.o)
 .text.GUI_MEMDEV_Paint1Static
                0x08010470       0x1c Middlewares/STemWin/Lib/STemWin_CM7_wc32.a(GUIDEV_StaticDevices.o)
                0x08010470                GUI_MEMDEV_Paint1Static
 .text.GUI_USAGE_BM_AddPixel
                0x0801048c       0x28 Middlewares/STemWin/Lib/STemWin_CM7_wc32.a(GUIDEV_UsageBM.o)
 .text.GUI_USAGE_BM_GetNextDirty
                0x080104b4       0x9c Middlewares/STemWin/Lib/STemWin_CM7_wc32.a(GUIDEV_UsageBM.o)
 .text._GUI_USAGE_BM_Delete
                0x08010550        0x4 Middlewares/STemWin/Lib/STemWin_CM7_wc32.a(GUIDEV_UsageBM.o)
 .text.GUI_USAGE_BM_Clear
                0x08010554       0x10 Middlewares/STemWin/Lib/STemWin_CM7_wc32.a(GUIDEV_UsageBM.o)
 .text.GUI_USAGE_BM_AddHLine
                0x08010564       0x78 Middlewares/STemWin/Lib/STemWin_CM7_wc32.a(GUIDEV_UsageBM.o)
 .text.GUI_USAGE_BM_Create
                0x080105dc       0x54 Middlewares/STemWin/Lib/STemWin_CM7_wc32.a(GUIDEV_UsageBM.o)
                0x080105dc                GUI_USAGE_BM_Create
 .text.GUI_MEMDEV_WriteAt
                0x08010630       0x64 Middlewares/STemWin/Lib/STemWin_CM7_wc32.a(GUIDEV_Write.o)
                0x08010630                GUI_MEMDEV_WriteAt
 .text.GUI_MEMDEV_Write
                0x08010694        0xc Middlewares/STemWin/Lib/STemWin_CM7_wc32.a(GUIDEV_Write.o)
                0x08010694                GUI_MEMDEV_Write
 .text._Convert16
                0x080106a0       0x3e Middlewares/STemWin/Lib/STemWin_CM7_wc32.a(GUIDEV_WriteToActiveOpaque.o)
 .text._Convert8
                0x080106de       0x42 Middlewares/STemWin/Lib/STemWin_CM7_wc32.a(GUIDEV_WriteToActiveOpaque.o)
 .text.GUI_MEMDEV__WriteToActiveOpaque
                0x08010720      0x74c Middlewares/STemWin/Lib/STemWin_CM7_wc32.a(GUIDEV_WriteToActiveOpaque.o)
                0x08010720                GUI_MEMDEV__WriteToActiveOpaque
 .text._cbInvalidateOne
                0x08010e6c        0x4 Middlewares/STemWin/Lib/STemWin_CM7_wc32.a(WM_BringToTop.o)
 .text.WM_BringToTop
                0x08010e70       0x74 Middlewares/STemWin/Lib/STemWin_CM7_wc32.a(WM_BringToTop.o)
                0x08010e70                WM_BringToTop
 .text.WM__GetWindowSizeX
                0x08010ee4        0xe Middlewares/STemWin/Lib/STemWin_CM7_wc32.a(WM_GetWindowSize.o)
                0x08010ee4                WM__GetWindowSizeX
 .text.WM__GetWindowSizeY
                0x08010ef2        0xe Middlewares/STemWin/Lib/STemWin_CM7_wc32.a(WM_GetWindowSize.o)
                0x08010ef2                WM__GetWindowSizeY
 .text.WM_GetWindowSizeX
                0x08010f00       0x2a Middlewares/STemWin/Lib/STemWin_CM7_wc32.a(WM_GetWindowSize.o)
                0x08010f00                WM_GetWindowSizeX
 .text.WM_GetWindowSizeY
                0x08010f2a       0x2a Middlewares/STemWin/Lib/STemWin_CM7_wc32.a(WM_GetWindowSize.o)
                0x08010f2a                WM_GetWindowSizeY
 .text.WM_HideWindow
                0x08010f54       0x2c Middlewares/STemWin/Lib/STemWin_CM7_wc32.a(WM_Hide.o)
                0x08010f54                WM_HideWindow
 .text.WM_DisableMemdev
                0x08010f80       0x16 Middlewares/STemWin/Lib/STemWin_CM7_wc32.a(WM_MemDev.o)
                0x08010f80                WM_DisableMemdev
 *fill*         0x08010f96        0x2 
 .text.WM__ReleaseCapture
                0x08010f98       0x30 Middlewares/STemWin/Lib/STemWin_CM7_wc32.a(WM_SetCapture.o)
 .text.WM_SetCapture
                0x08010fc8       0x34 Middlewares/STemWin/Lib/STemWin_CM7_wc32.a(WM_SetCapture.o)
                0x08010fc8                WM_SetCapture
 .text.WM_SetCaptureMove
                0x08010ffc       0x9c Middlewares/STemWin/Lib/STemWin_CM7_wc32.a(WM_SetCaptureMove.o)
                0x08010ffc                WM_SetCaptureMove
 .text._GetNextChild
                0x08011098       0x26 Middlewares/STemWin/Lib/STemWin_CM7_wc32.a(WM_SetFocusOnNextChild.o)
 *fill*         0x080110be        0x2 
 .text.WM_SetFocusOnNextChild
                0x080110c0       0x54 Middlewares/STemWin/Lib/STemWin_CM7_wc32.a(WM_SetFocusOnNextChild.o)
                0x080110c0                WM_SetFocusOnNextChild
 .text._GetPrevChild
                0x08011114       0x1e Middlewares/STemWin/Lib/STemWin_CM7_wc32.a(WM_SetFocusOnPrevChild.o)
 .text.WM_SetFocusOnPrevChild
                0x08011132       0x38 Middlewares/STemWin/Lib/STemWin_CM7_wc32.a(WM_SetFocusOnPrevChild.o)
                0x08011132                WM_SetFocusOnPrevChild
 .text._SetScrollbar
                0x0801116a       0x52 Middlewares/STemWin/Lib/STemWin_CM7_wc32.a(WM_SetScrollbar.o)
 .text.WM__SetScrollbarV
                0x080111bc        0x8 Middlewares/STemWin/Lib/STemWin_CM7_wc32.a(WM_SetScrollbar.o)
                0x080111bc                WM__SetScrollbarV
 .text.WM__SetScrollbarH
                0x080111c4        0x8 Middlewares/STemWin/Lib/STemWin_CM7_wc32.a(WM_SetScrollbar.o)
                0x080111c4                WM__SetScrollbarH
 .text.WM_SetScrollbarH
                0x080111cc        0x4 Middlewares/STemWin/Lib/STemWin_CM7_wc32.a(WM_SetScrollbar.o)
                0x080111cc                WM_SetScrollbarH
 .text.WM_SetScrollbarV
                0x080111d0        0x4 Middlewares/STemWin/Lib/STemWin_CM7_wc32.a(WM_SetScrollbar.o)
                0x080111d0                WM_SetScrollbarV
 .text.WM_SetHasTrans
                0x080111d4       0x40 Middlewares/STemWin/Lib/STemWin_CM7_wc32.a(WM_SetTrans.o)
                0x080111d4                WM_SetHasTrans
 .text.WM_GetHasTrans
                0x08011214       0x12 Middlewares/STemWin/Lib/STemWin_CM7_wc32.a(WM_SetTrans.o)
                0x08011214                WM_GetHasTrans
 .text._Color2Index_8888
                0x08011226        0x2 Middlewares/STemWin/Lib/STemWin_CM7_wc32.a(GUICC_8888.o)
 .text._GetIndexMask_8888
                0x08011228        0x6 Middlewares/STemWin/Lib/STemWin_CM7_wc32.a(GUICC_8888.o)
 .text._Color2IndexBulk
                0x0801122e       0x10 Middlewares/STemWin/Lib/STemWin_CM7_wc32.a(GUICC_8888.o)
 .text._Index2ColorBulk
                0x0801123e       0x10 Middlewares/STemWin/Lib/STemWin_CM7_wc32.a(GUICC_8888.o)
 .text.LCD_Index2Color_888
                0x0801124e        0x2 Middlewares/STemWin/Lib/STemWin_CM7_wc32.a(GUICC_888_Index2Color.o)
                0x0801124e                LCD_Index2Color_888
 .text.GUIPROP__FindChar
                0x08011250       0x14 Middlewares/STemWin/Lib/STemWin_CM7_wc32.a(GUI_CharP.o)
                0x08011250                GUIPROP__FindChar
 .text.GUIPROP_DispChar
                0x08011264       0xec Middlewares/STemWin/Lib/STemWin_CM7_wc32.a(GUI_CharP.o)
                0x08011264                GUIPROP_DispChar
 .text.GUIPROP_GetCharDistX
                0x08011350       0x3c Middlewares/STemWin/Lib/STemWin_CM7_wc32.a(GUI_CharP.o)
                0x08011350                GUIPROP_GetCharDistX
 .text.GUIPROP_GetFontInfo
                0x0801138c        0x6 Middlewares/STemWin/Lib/STemWin_CM7_wc32.a(GUI_CharP.o)
                0x0801138c                GUIPROP_GetFontInfo
 .text.GUIPROP_IsInFont
                0x08011392       0x10 Middlewares/STemWin/Lib/STemWin_CM7_wc32.a(GUI_CharP.o)
                0x08011392                GUIPROP_IsInFont
 *fill*         0x080113a2        0x2 
 .text.GUI__AlphaPreserveTrans
                0x080113a4       0x24 Middlewares/STemWin/Lib/STemWin_CM7_wc32.a(GUI_SetAlpha.o)
                0x080113a4                GUI__AlphaPreserveTrans
 .text.memcpy   0x080113c8       0x16 c:/vsarm/armcc/bin/../lib/gcc/arm-none-eabi/7.3.1/../../../../arm-none-eabi/lib/thumb/v7e-m/fpv4-sp/hard\libc_nano.a(lib_a-memcpy-stub.o)
                0x080113c8                memcpy
 .text.memmove  0x080113de       0x32 c:/vsarm/armcc/bin/../lib/gcc/arm-none-eabi/7.3.1/../../../../arm-none-eabi/lib/thumb/v7e-m/fpv4-sp/hard\libc_nano.a(lib_a-memmove.o)
                0x080113de                memmove
 .text.strcpy   0x08011410       0x10 c:/vsarm/armcc/bin/../lib/gcc/arm-none-eabi/7.3.1/../../../../arm-none-eabi/lib/thumb/v7e-m/fpv4-sp/hard\libc_nano.a(lib_a-strcpy.o)
                0x08011410                strcpy
 *(.glue_7)
 .glue_7        0x08011420        0x0 linker stubs
 *(.glue_7t)
 .glue_7t       0x08011420        0x0 linker stubs
 *(.eh_frame)
 .eh_frame      0x08011420        0x0 c:/vsarm/armcc/bin/../lib/gcc/arm-none-eabi/7.3.1/thumb/v7e-m/fpv4-sp/hard/crtbegin.o
 *(.init)
 .init          0x08011420        0x4 c:/vsarm/armcc/bin/../lib/gcc/arm-none-eabi/7.3.1/thumb/v7e-m/fpv4-sp/hard/crti.o
                0x08011420                _init
 .init          0x08011424        0x8 c:/vsarm/armcc/bin/../lib/gcc/arm-none-eabi/7.3.1/thumb/v7e-m/fpv4-sp/hard/crtn.o
 *(.fini)
 .fini          0x0801142c        0x4 c:/vsarm/armcc/bin/../lib/gcc/arm-none-eabi/7.3.1/thumb/v7e-m/fpv4-sp/hard/crti.o
                0x0801142c                _fini
 .fini          0x08011430        0x8 c:/vsarm/armcc/bin/../lib/gcc/arm-none-eabi/7.3.1/thumb/v7e-m/fpv4-sp/hard/crtn.o
                0x08011438                . = ALIGN (0x4)
                0x08011438                _etext = .

.vfp11_veneer   0x08011438        0x0
 .vfp11_veneer  0x08011438        0x0 linker stubs

.v4_bx          0x08011438        0x0
 .v4_bx         0x08011438        0x0 linker stubs

.iplt           0x08011438        0x0
 .iplt          0x08011438        0x0 c:/vsarm/armcc/bin/../lib/gcc/arm-none-eabi/7.3.1/thumb/v7e-m/fpv4-sp/hard/crtbegin.o

.rodata         0x08011438     0x1b98
                0x08011438                . = ALIGN (0x4)
 *(.rodata)
 .rodata        0x08011438       0x18 Middlewares/STemWin/Lib/STemWin_CM7_wc32.a(GUICC_M8888I.o)
                0x08011438                LCD_API_ColorConv_M8888I
 .rodata        0x08011450       0x17 Middlewares/STemWin/Lib/STemWin_CM7_wc32.a(GUI_Core.o)
 *fill*         0x08011467        0x1 
 .rodata        0x08011468       0x10 Middlewares/STemWin/Lib/STemWin_CM7_wc32.a(GUI_UC_EncodeNone.o)
                0x08011468                GUI_UC_None
 .rodata        0x08011478        0xc Middlewares/STemWin/Lib/STemWin_CM7_wc32.a(LCD.o)
 .rodata        0x08011484       0x34 Middlewares/STemWin/Lib/STemWin_CM7_wc32.a(GUIDRV_Lin_32.o)
                0x08011484                GUIDRV_Lin_32_API
 .rodata        0x080114b8      0x73c Middlewares/STemWin/Lib/STemWin_CM7_wc32.a(F6x8.o)
                0x080114b8                GUI_Font6x9
                0x080114dc                GUI_Font6x8
 .rodata        0x08011bf4       0x74 Middlewares/STemWin/Lib/STemWin_CM7_wc32.a(GUIDEV_32.o)
                0x08011bf4                GUI_MEMDEV_DEVICE_32
 .rodata        0x08011c68       0x10 Middlewares/STemWin/Lib/STemWin_CM7_wc32.a(BUTTON_SkinFlex.o)
 .rodata        0x08011c78       0x1c Middlewares/STemWin/Lib/STemWin_CM7_wc32.a(WIDGET_Effect_Simple.o)
                0x08011c78                WIDGET_Effect_Simple
 .rodata        0x08011c94       0x18 Middlewares/STemWin/Lib/STemWin_CM7_wc32.a(GUICC_0.o)
                0x08011c94                LCD_API_ColorConv_0
 .rodata        0x08011cac      0x100 Middlewares/STemWin/Lib/STemWin_CM7_wc32.a(LCD_Mirror.o)
                0x08011cac                LCD_aMirror
 .rodata        0x08011dac      0x86b Middlewares/STemWin/Lib/STemWin_CM7_wc32.a(F13_1.o)
                0x08011dac                GUI_Font13_1
 *fill*         0x08012617        0x1 
 .rodata        0x08012618      0x822 Middlewares/STemWin/Lib/STemWin_CM7_wc32.a(F13_ASCII.o)
                0x08012618                GUI_Font13_ASCII
                0x0801263c                GUI_Font13ASCII_Prop1
 *fill*         0x08012e3a        0x2 
 .rodata        0x08012e3c       0x18 Middlewares/STemWin/Lib/STemWin_CM7_wc32.a(GUIDEV_UsageBM.o)
 .rodata        0x08012e54       0x18 Middlewares/STemWin/Lib/STemWin_CM7_wc32.a(GUICC_8888.o)
                0x08012e54                LCD_API_ColorConv_8888
 *(.rodata*)
 .rodata.main.str1.4
                0x08012e6c       0x53 build/main.o
 *fill*         0x08012ebf        0x1 
 .rodata.flagBitshiftOffset.8846
                0x08012ec0        0x8 build/stm32f7xx_hal_dma.o
 .rodata.AHBPrescTable
                0x08012ec8       0x10 build/system_stm32f7xx.o
                0x08012ec8                AHBPrescTable
 .rodata.APBPrescTable
                0x08012ed8        0x8 build/system_stm32f7xx.o
                0x08012ed8                APBPrescTable
 .rodata.CreateFramewin.str1.4
                0x08012ee0       0x53 build/FramewinDLG.o
                                  0x1 (size before relaxing)
 .rodata._aDialogCreate
                0x08012ee0       0x54 build/FramewinDLG.o
 .rodata._cbDialog.str1.4
                0x08012f34       0x15 build/FramewinDLG.o
 *fill*         0x08012f49        0x3 
 .rodata.str1.4
                0x08012f4c       0x1c build/FramewinDLG.o
 .rodata._global_impure_ptr
                0x08012f68        0x4 c:/vsarm/armcc/bin/../lib/gcc/arm-none-eabi/7.3.1/../../../../arm-none-eabi/lib/thumb/v7e-m/fpv4-sp/hard\libc_nano.a(lib_a-impure.o)
                0x08012f68                _global_impure_ptr
 .rodata.__sf_fake_stderr
                0x08012f6c       0x20 c:/vsarm/armcc/bin/../lib/gcc/arm-none-eabi/7.3.1/../../../../arm-none-eabi/lib/thumb/v7e-m/fpv4-sp/hard\libc_nano.a(lib_a-findfp.o)
                0x08012f6c                __sf_fake_stderr
 .rodata.__sf_fake_stdin
                0x08012f8c       0x20 c:/vsarm/armcc/bin/../lib/gcc/arm-none-eabi/7.3.1/../../../../arm-none-eabi/lib/thumb/v7e-m/fpv4-sp/hard\libc_nano.a(lib_a-findfp.o)
                0x08012f8c                __sf_fake_stdin
 .rodata.__sf_fake_stdout
                0x08012fac       0x20 c:/vsarm/armcc/bin/../lib/gcc/arm-none-eabi/7.3.1/../../../../arm-none-eabi/lib/thumb/v7e-m/fpv4-sp/hard\libc_nano.a(lib_a-findfp.o)
                0x08012fac                __sf_fake_stdout
 .rodata.str1.1
                0x08012fcc        0x1 Middlewares/STemWin/Lib/STemWin_CM7_wc32.a(GUI__Private.o)
                0x08012fd0                . = ALIGN (0x4)
 *fill*         0x08012fcd        0x3 

.ARM.extab
 *(.ARM.extab* .gnu.linkonce.armextab.*)

.ARM            0x08012fd0        0x8
                0x08012fd0                __exidx_start = .
 *(.ARM.exidx*)
 .ARM.exidx     0x08012fd0        0x8 c:/vsarm/armcc/bin/../lib/gcc/arm-none-eabi/7.3.1/thumb/v7e-m/fpv4-sp/hard\libgcc.a(_udivmoddi4.o)
                0x08012fd8                __exidx_end = .

.rel.dyn        0x08012fd8        0x0
 .rel.iplt      0x08012fd8        0x0 c:/vsarm/armcc/bin/../lib/gcc/arm-none-eabi/7.3.1/thumb/v7e-m/fpv4-sp/hard/crtbegin.o

.preinit_array  0x08012fd8        0x0
                0x08012fd8                PROVIDE (__preinit_array_start = .)
 *(.preinit_array*)
                0x08012fd8                PROVIDE (__preinit_array_end = .)

.init_array     0x08012fd8        0x4
                0x08012fd8                PROVIDE (__init_array_start = .)
 *(SORT_BY_NAME(.init_array.*))
 *(.init_array*)
 .init_array    0x08012fd8        0x4 c:/vsarm/armcc/bin/../lib/gcc/arm-none-eabi/7.3.1/thumb/v7e-m/fpv4-sp/hard/crtbegin.o
                0x08012fdc                PROVIDE (__init_array_end = .)

.fini_array     0x08012fdc        0x4
                [!provide]                PROVIDE (__fini_array_start = .)
 *(SORT_BY_NAME(.fini_array.*))
 *(.fini_array*)
 .fini_array    0x08012fdc        0x4 c:/vsarm/armcc/bin/../lib/gcc/arm-none-eabi/7.3.1/thumb/v7e-m/fpv4-sp/hard/crtbegin.o
                [!provide]                PROVIDE (__fini_array_end = .)
                0x08012fe0                _sidata = LOADADDR (.data)

.data           0x20000000      0x2d0 load address 0x08012fe0
                0x20000000                . = ALIGN (0x4)
                0x20000000                _sdata = .
 *(.data)
 .data          0x20000000        0x7 Middlewares/STemWin/Lib/STemWin_CM7_wc32.a(GUI_Common.o)
 *fill*         0x20000007        0x1 
 .data          0x20000008       0x10 Middlewares/STemWin/Lib/STemWin_CM7_wc32.a(GUI_Core.o)
                0x20000008                GUI_pfGetpPalConvTable
                0x2000000c                GUI__pFontDefault
                0x20000010                GUI__ColorDefault
                0x20000014                GUI_pContext
 .data          0x20000018        0x8 Middlewares/STemWin/Lib/STemWin_CM7_wc32.a(GUI_OnKey.o)
 .data          0x20000020        0x4 Middlewares/STemWin/Lib/STemWin_CM7_wc32.a(GUI_Time.o)
 .data          0x20000024        0x8 Middlewares/STemWin/Lib/STemWin_CM7_wc32.a(GUI__Private.o)
                0x20000024                GUI__pfMemcpy
                0x20000028                GUI__pfMemset
 .data          0x2000002c        0x8 Middlewares/STemWin/Lib/STemWin_CM7_wc32.a(GUI__Wrap.o)
                0x2000002c                GUI__Wrap_pfGetWordWrap
                0x20000030                GUI__Wrap_pfGetCharWrap
 .data          0x20000034        0x4 Middlewares/STemWin/Lib/STemWin_CM7_wc32.a(LCD.o)
                0x20000034                LCD__pSetColorAPI
 .data          0x20000038        0x4 Middlewares/STemWin/Lib/STemWin_CM7_wc32.a(LCD_Color.o)
 .data          0x2000003c       0x38 Middlewares/STemWin/Lib/STemWin_CM7_wc32.a(BUTTON.o)
                0x20000040                BUTTON__DefaultProps
                0x20000070                BUTTON__pSkinDefault
 .data          0x20000074        0xc Middlewares/STemWin/Lib/STemWin_CM7_wc32.a(BUTTON_Skin.o)
                0x20000074                BUTTON__Skin
 .data          0x20000080       0x80 Middlewares/STemWin/Lib/STemWin_CM7_wc32.a(BUTTON_SkinFlex.o)
 .data          0x20000100       0x2c Middlewares/STemWin/Lib/STemWin_CM7_wc32.a(FRAMEWIN.o)
                0x20000100                FRAMEWIN__DefaultProps
                0x20000128                FRAMEWIN__pSkinDefault
 .data          0x2000012c       0x14 Middlewares/STemWin/Lib/STemWin_CM7_wc32.a(FRAMEWIN_Skin.o)
                0x2000012c                FRAMEWIN__Skin
 .data          0x20000140       0x58 Middlewares/STemWin/Lib/STemWin_CM7_wc32.a(FRAMEWIN_SkinFlex.o)
 .data          0x20000198       0x1a Middlewares/STemWin/Lib/STemWin_CM7_wc32.a(SCROLLBAR.o)
                0x20000198                SCROLLBAR__DefaultWidth
                0x2000019c                SCROLLBAR__DefaultProps
                0x200001ac                SCROLLBAR__pSkinDefault
                0x200001b0                SCROLLBAR__ThumbSizeMin
 *fill*         0x200001b2        0x2 
 .data          0x200001b4        0xc Middlewares/STemWin/Lib/STemWin_CM7_wc32.a(SCROLLBAR_Skin.o)
                0x200001b4                SCROLLBAR__Skin
 .data          0x200001c0       0x58 Middlewares/STemWin/Lib/STemWin_CM7_wc32.a(SCROLLBAR_SkinFlex.o)
 .data          0x20000218       0x10 Middlewares/STemWin/Lib/STemWin_CM7_wc32.a(TEXT.o)
                0x20000218                TEXT__DefaultProps
 .data          0x20000228        0x4 Middlewares/STemWin/Lib/STemWin_CM7_wc32.a(WIDGET.o)
                0x20000228                _pEffectDefault
 .data          0x2000022c        0x4 Middlewares/STemWin/Lib/STemWin_CM7_wc32.a(GUI_CharLine.o)
                0x2000022c                GUI_CharLine_pfLog2Vis
 .data          0x20000230        0x8 Middlewares/STemWin/Lib/STemWin_CM7_wc32.a(GUI__Alpha.o)
                0x20000230                GUI__pfMixColors
                0x20000234                GUI__pfMixColorsBulk
 .data          0x20000238        0xc Middlewares/STemWin/Lib/STemWin_CM7_wc32.a(GUI__GetCursorPos.o)
                0x20000238                GUI__GetCursorPos_pfGetPosX
                0x2000023c                GUI__GetCursorPos_pfGetPosChar
                0x20000240                GUI__GetCursorPos_pfGetCharacter
 .data          0x20000244       0x18 Middlewares/STemWin/Lib/STemWin_CM7_wc32.a(LCD_AA.o)
                0x20000244                LCD_AA_pfMixColors16
 .data          0x2000025c        0x1 Middlewares/STemWin/Lib/STemWin_CM7_wc32.a(GUIDEV_StaticDevices.o)
 *(.data*)
 .data.uwTickFreq
                0x2000025d        0x1 build/stm32f7xx_hal.o
                0x2000025d                uwTickFreq
 *fill*         0x2000025e        0x2 
 .data.uwTickPrio
                0x20000260        0x4 build/stm32f7xx_hal.o
                0x20000260                uwTickPrio
 .data.SystemCoreClock
                0x20000264        0x4 build/system_stm32f7xx.o
                0x20000264                SystemCoreClock
 .data.sdramstatus.8762
                0x20000268        0x1 build/stm32746g_discovery_sdram.o
 *fill*         0x20000269        0x3 
 .data._impure_ptr
                0x2000026c        0x4 c:/vsarm/armcc/bin/../lib/gcc/arm-none-eabi/7.3.1/../../../../arm-none-eabi/lib/thumb/v7e-m/fpv4-sp/hard\libc_nano.a(lib_a-impure.o)
                0x2000026c                _impure_ptr
 .data.impure_data
                0x20000270       0x60 c:/vsarm/armcc/bin/../lib/gcc/arm-none-eabi/7.3.1/../../../../arm-none-eabi/lib/thumb/v7e-m/fpv4-sp/hard\libc_nano.a(lib_a-impure.o)
                0x200002d0                . = ALIGN (0x4)
                0x200002d0                _edata = .

.igot.plt       0x200002d0        0x0 load address 0x080132b0
 .igot.plt      0x200002d0        0x0 c:/vsarm/armcc/bin/../lib/gcc/arm-none-eabi/7.3.1/thumb/v7e-m/fpv4-sp/hard/crtbegin.o
                0x200002d0                . = ALIGN (0x4)

.bss            0x200002d0    0x26018 load address 0x080132b0
                0x200002d0                _sbss = .
                0x200002d0                __bss_start__ = _sbss
 *(.bss)
 .bss           0x200002d0       0x1c c:/vsarm/armcc/bin/../lib/gcc/arm-none-eabi/7.3.1/thumb/v7e-m/fpv4-sp/hard/crtbegin.o
 .bss           0x200002ec        0x8 Middlewares/STemWin/Lib/STemWin_CM7_wc32.a(GUICC_M8888I.o)
 .bss           0x200002f4        0xc Middlewares/STemWin/Lib/STemWin_CM7_wc32.a(GUI_Alloc.o)
 .bss           0x20000300       0xa8 Middlewares/STemWin/Lib/STemWin_CM7_wc32.a(GUI_Core.o)
                0x20000308                GUI__BkColorDefault
 .bss           0x200003a8       0x2c Middlewares/STemWin/Lib/STemWin_CM7_wc32.a(GUI_MULTIBUF.o)
 .bss           0x200003d4       0x60 Middlewares/STemWin/Lib/STemWin_CM7_wc32.a(GUI_OnKey.o)
 .bss           0x20000434        0x8 Middlewares/STemWin/Lib/STemWin_CM7_wc32.a(GUI_WaitEvent.o)
 .bss           0x2000043c        0x8 Middlewares/STemWin/Lib/STemWin_CM7_wc32.a(GUI__Wrap.o)
 .bss           0x20000444        0xc Middlewares/STemWin/Lib/STemWin_CM7_wc32.a(LCD_Color.o)
 .bss           0x20000450        0x8 Middlewares/STemWin/Lib/STemWin_CM7_wc32.a(LCD_GetEx.o)
 .bss           0x20000458       0x30 Middlewares/STemWin/Lib/STemWin_CM7_wc32.a(WM.o)
 .bss           0x20000488        0x4 Middlewares/STemWin/Lib/STemWin_CM7_wc32.a(WM__Private.o)
 .bss           0x2000048c        0x4 Middlewares/STemWin/Lib/STemWin_CM7_wc32.a(BUTTON.o)
 .bss           0x20000490        0x4 Middlewares/STemWin/Lib/STemWin_CM7_wc32.a(WIDGET_Effect_Simple.o)
 .bss           0x20000494       0x14 Middlewares/STemWin/Lib/STemWin_CM7_wc32.a(GUI_Timer.o)
 .bss           0x200004a8       0x20 Middlewares/STemWin/Lib/STemWin_CM7_wc32.a(GUI__Alpha.o)
 .bss           0x200004c8       0x18 Middlewares/STemWin/Lib/STemWin_CM7_wc32.a(GUI__ManageCache.o)
 .bss           0x200004e0        0x4 Middlewares/STemWin/Lib/STemWin_CM7_wc32.a(GUIDEV_Banding.o)
 .bss           0x200004e4        0x4 Middlewares/STemWin/Lib/STemWin_CM7_wc32.a(WM_SetCaptureMove.o)
 *(.bss*)
 .bss.Command   0x200004e8       0x10 build/stm32746g_discovery_sdram.o
 .bss.Timing    0x200004f8       0x1c build/stm32746g_discovery_sdram.o
 .bss.dma_handle.8798
                0x20000514       0x60 build/stm32746g_discovery_sdram.o
 .bss.PeriphClkInitStruct.21018
                0x20000574       0x84 build/LCDConf.o
 .bss.hdma2d    0x200005f8       0x40 build/LCDConf.o
 .bss.layer_prop
                0x20000638       0x1c build/LCDConf.o
 .bss.__malloc_free_list
                0x20000654        0x4 c:/vsarm/armcc/bin/../lib/gcc/arm-none-eabi/7.3.1/../../../../arm-none-eabi/lib/thumb/v7e-m/fpv4-sp/hard\libc_nano.a(lib_a-nano-mallocr.o)
                0x20000654                __malloc_free_list
 .bss.__malloc_sbrk_start
                0x20000658        0x4 c:/vsarm/armcc/bin/../lib/gcc/arm-none-eabi/7.3.1/../../../../arm-none-eabi/lib/thumb/v7e-m/fpv4-sp/hard\libc_nano.a(lib_a-nano-mallocr.o)
                0x20000658                __malloc_sbrk_start
 .bss.heap_end.5377
                0x2000065c        0x4 c:/vsarm/armcc/bin/../lib/gcc/arm-none-eabi/7.3.1/../../../../arm-none-eabi/lib/thumb/v7e-m/fpv4-sp/hard\libnosys.a(sbrk.o)
 *(COMMON)
 COMMON         0x20000660      0x26c build/main.o
                0x20000660                hdma_memtomem_dma2_stream0
                0x200006c0                hcrc
                0x200006e4                hi2c2
                0x20000730                hltdc
                0x200007d8                huart6
                0x20000858                hdma2d
                0x20000898                hsdram1
 COMMON         0x200008cc        0x4 build/stm32f7xx_hal.o
                0x200008cc                uwTick
 COMMON         0x200008d0       0x34 build/stm32746g_discovery_sdram.o
                0x200008d0                sdramHandle
 COMMON         0x20000904    0x25800 build/GUIConf.o
                0x20000904                aMemory
 COMMON         0x20026104        0x4 build/GUI_X.o
                0x20026104                OS_TimeMS
 COMMON         0x20026108       0x10 build/FramewinDLG.o
                0x20026108                textAudioStatus
                0x2002610c                frameMain
                0x20026110                textStatus
                0x20026114                editLog
 COMMON         0x20026118        0x4 c:/vsarm/armcc/bin/../lib/gcc/arm-none-eabi/7.3.1/../../../../arm-none-eabi/lib/thumb/v7e-m/fpv4-sp/hard\libc_nano.a(lib_a-reent.o)
                0x20026118                errno
 COMMON         0x2002611c       0xc0 Middlewares/STemWin/Lib/STemWin_CM7_wc32.a(GUI_Alloc.o)
                0x2002611c                GUI_ALLOC__Context
 COMMON         0x200261dc       0x60 Middlewares/STemWin/Lib/STemWin_CM7_wc32.a(GUI_Core.o)
                0x200261dc                GUI__aNumBuffers
                0x200261de                GUI__NumLayersInUse
                0x200261e0                GUI__LayerMask
                0x200261e4                GUI_DecChar
                0x200261e8                GUI_pLCD_APIList
                0x200261ec                GUI_AA__ClipX0
                0x200261f0                GUI_DCACHE__pfClearCacheHook
                0x200261f4                GUI_OrgY
                0x200261f8                GUI_pfHookMTOUCH
                0x200261fc                GUI_pfDispCharLine
                0x20026200                GUI_pfTimerExec
                0x20026204                GUI_OrgX
                0x20026208                GUI_pfDispCharStyle
                0x2002620c                GUI__IsInitialized
                0x20026210                GUI__pfDrawM565BitmapFunc
                0x20026214                GUI__PreserveTrans
                0x20026218                GUI__pfDrawM565MemdevFunc
                0x2002621c                GUI_MTOUCH__pStoreEvent
                0x20026220                GUI_pfExecAnimations
                0x20026224                GUI_pUC_API
                0x20026228                GUI_pfUpdateSoftLayer
                0x2002622c                GUI__apDevice
                0x20026234                GUI__BufferSize
                0x20026238                WM_pfHandlePID
 COMMON         0x2002623c        0x4 Middlewares/STemWin/Lib/STemWin_CM7_wc32.a(LCD_Color.o)
                0x2002623c                LCD__aConvTable
 COMMON         0x20026240       0x5c Middlewares/STemWin/Lib/STemWin_CM7_wc32.a(WM.o)
                0x20026240                WM__NumWindows
                0x20026244                WM__hATransWindow
                0x20026248                WM__ahDesktopWin
                0x20026250                WM_pfPollPID
                0x20026254                WM__pExecGestures
                0x20026258                WM__ahWinFocus
                0x20026260                WM__NumInvalidWindows
                0x20026264                WM__FirstWin
                0x20026268                WM__TouchedLayer
                0x2002626c                WM__CaptureReleaseAuto
                0x20026270                WM__InvalidLayerMask
                0x20026274                WM__PaintCallbackCnt
                0x20026278                WM__CreateFlags
                0x2002627c                WM__aBkColor
                0x20026284                WM__pFirstCriticalHandle
                0x20026288                WM_MULTIBUF__pAPI
                0x2002628c                WM__ahCapture
                0x20026294                WM__hCreateStatic
                0x20026298                WM__TransWindowCnt
 COMMON         0x2002629c       0x30 Middlewares/STemWin/Lib/STemWin_CM7_wc32.a(WM_Touch.o)
                0x2002629c                WM__aCHWinMouseOver
                0x200262ac                WM__aCHWinLast
                0x200262bc                WM__aCHWinModal
 COMMON         0x200262cc       0x1c Middlewares/STemWin/Lib/STemWin_CM7_wc32.a(GUI__BiDiRouting.o)
                0x200262cc                GUI__BIDI_Enabled
                0x200262d0                _pfGUI__BIDI_GetCursorPosX
                0x200262d4                _pfGUI__BIDI_GetCursorPosChar
                0x200262d8                _pfGUI__BIDI_Log2Vis
                0x200262dc                _pfGUI__BIDI_GetLogChar
                0x200262e0                _pfGUI__BIDI_GetCharDir
                0x200262e4                _pfGUI__BIDI_IsNSM
                0x200262e8                . = ALIGN (0x4)
                0x200262e8                _ebss = .
                0x200262e8                __bss_end__ = _ebss

._user_heap_stack
                0x200262e8      0x660 load address 0x080132b0
                0x200262e8                . = ALIGN (0x8)
                0x200262e8                PROVIDE (end = .)
                [!provide]                PROVIDE (_end = .)
                0x200264e8                . = (. + _Min_Heap_Size)
 *fill*         0x200262e8      0x200 
                0x20026948                . = (. + _Min_Stack_Size)
 *fill*         0x200264e8      0x460 
                0x20026948                . = ALIGN (0x8)

/DISCARD/
 libc.a(*)
 libm.a(*)
 libgcc.a(*)

.ARM.attributes
                0x00000000       0x30
 *(.ARM.attributes)
 .ARM.attributes
                0x00000000       0x22 c:/vsarm/armcc/bin/../lib/gcc/arm-none-eabi/7.3.1/thumb/v7e-m/fpv4-sp/hard/crti.o
 .ARM.attributes
                0x00000022       0x34 c:/vsarm/armcc/bin/../lib/gcc/arm-none-eabi/7.3.1/thumb/v7e-m/fpv4-sp/hard/crtbegin.o
 .ARM.attributes
                0x00000056       0x39 build/main.o
 .ARM.attributes
                0x0000008f       0x39 build/stm32f7xx_it.o
 .ARM.attributes
                0x000000c8       0x39 build/stm32f7xx_hal.o
 .ARM.attributes
                0x00000101       0x39 build/stm32f7xx_hal_uart.o
 .ARM.attributes
                0x0000013a       0x39 build/stm32f7xx_hal_rcc_ex.o
 .ARM.attributes
                0x00000173       0x39 build/stm32f7xx_hal_crc.o
 .ARM.attributes
                0x000001ac       0x39 build/stm32f7xx_hal_ltdc.o
 .ARM.attributes
                0x000001e5       0x39 build/stm32f7xx_hal_pwr_ex.o
 .ARM.attributes
                0x0000021e       0x39 build/stm32f7xx_hal_sdram.o
 .ARM.attributes
                0x00000257       0x39 build/stm32f7xx_hal_rcc.o
 .ARM.attributes
                0x00000290       0x39 build/stm32f7xx_hal_i2c.o
 .ARM.attributes
                0x000002c9       0x39 build/stm32f7xx_hal_pwr.o
 .ARM.attributes
                0x00000302       0x39 build/stm32f7xx_hal_dma.o
 .ARM.attributes
                0x0000033b       0x39 build/stm32f7xx_hal_cortex.o
 .ARM.attributes
                0x00000374       0x39 build/stm32f7xx_ll_fmc.o
 .ARM.attributes
                0x000003ad       0x39 build/stm32f7xx_hal_gpio.o
 .ARM.attributes
                0x000003e6       0x39 build/stm32f7xx_hal_dma2d.o
 .ARM.attributes
                0x0000041f       0x39 build/stm32f7xx_hal_i2c_ex.o
 .ARM.attributes
                0x00000458       0x39 build/stm32f7xx_hal_crc_ex.o
 .ARM.attributes
                0x00000491       0x39 build/system_stm32f7xx.o
 .ARM.attributes
                0x000004ca       0x39 build/stm32746g_discovery.o
 .ARM.attributes
                0x00000503       0x39 build/stm32746g_discovery_sdram.o
 .ARM.attributes
                0x0000053c       0x39 build/GUIConf.o
 .ARM.attributes
                0x00000575       0x39 build/LCDConf.o
 .ARM.attributes
                0x000005ae       0x39 build/GUI_X.o
 .ARM.attributes
                0x000005e7       0x39 build/FramewinDLG.o
 .ARM.attributes
                0x00000620       0x21 build/startup_stm32f746xx.o
 .ARM.attributes
                0x00000641       0x34 c:/vsarm/armcc/bin/../lib/gcc/arm-none-eabi/7.3.1/../../../../arm-none-eabi/lib/thumb/v7e-m/fpv4-sp/hard\libc_nano.a(lib_a-impure.o)
 .ARM.attributes
                0x00000675       0x34 c:/vsarm/armcc/bin/../lib/gcc/arm-none-eabi/7.3.1/../../../../arm-none-eabi/lib/thumb/v7e-m/fpv4-sp/hard\libc_nano.a(lib_a-init.o)
 .ARM.attributes
                0x000006a9       0x34 c:/vsarm/armcc/bin/../lib/gcc/arm-none-eabi/7.3.1/../../../../arm-none-eabi/lib/thumb/v7e-m/fpv4-sp/hard\libc_nano.a(lib_a-memset.o)
 .ARM.attributes
                0x000006dd       0x34 c:/vsarm/armcc/bin/../lib/gcc/arm-none-eabi/7.3.1/../../../../arm-none-eabi/lib/thumb/v7e-m/fpv4-sp/hard\libc_nano.a(lib_a-puts.o)
 .ARM.attributes
                0x00000711       0x34 c:/vsarm/armcc/bin/../lib/gcc/arm-none-eabi/7.3.1/../../../../arm-none-eabi/lib/thumb/v7e-m/fpv4-sp/hard\libc_nano.a(lib_a-wbuf.o)
 .ARM.attributes
                0x00000745       0x34 c:/vsarm/armcc/bin/../lib/gcc/arm-none-eabi/7.3.1/../../../../arm-none-eabi/lib/thumb/v7e-m/fpv4-sp/hard\libc_nano.a(lib_a-wsetup.o)
 .ARM.attributes
                0x00000779       0x34 c:/vsarm/armcc/bin/../lib/gcc/arm-none-eabi/7.3.1/../../../../arm-none-eabi/lib/thumb/v7e-m/fpv4-sp/hard\libc_nano.a(lib_a-fflush.o)
 .ARM.attributes
                0x000007ad       0x34 c:/vsarm/armcc/bin/../lib/gcc/arm-none-eabi/7.3.1/../../../../arm-none-eabi/lib/thumb/v7e-m/fpv4-sp/hard\libc_nano.a(lib_a-findfp.o)
 .ARM.attributes
                0x000007e1       0x34 c:/vsarm/armcc/bin/../lib/gcc/arm-none-eabi/7.3.1/../../../../arm-none-eabi/lib/thumb/v7e-m/fpv4-sp/hard\libc_nano.a(lib_a-fwalk.o)
 .ARM.attributes
                0x00000815       0x34 c:/vsarm/armcc/bin/../lib/gcc/arm-none-eabi/7.3.1/../../../../arm-none-eabi/lib/thumb/v7e-m/fpv4-sp/hard\libc_nano.a(lib_a-makebuf.o)
 .ARM.attributes
                0x00000849       0x34 c:/vsarm/armcc/bin/../lib/gcc/arm-none-eabi/7.3.1/../../../../arm-none-eabi/lib/thumb/v7e-m/fpv4-sp/hard\libc_nano.a(lib_a-nano-freer.o)
 .ARM.attributes
                0x0000087d       0x34 c:/vsarm/armcc/bin/../lib/gcc/arm-none-eabi/7.3.1/../../../../arm-none-eabi/lib/thumb/v7e-m/fpv4-sp/hard\libc_nano.a(lib_a-nano-mallocr.o)
 .ARM.attributes
                0x000008b1       0x34 c:/vsarm/armcc/bin/../lib/gcc/arm-none-eabi/7.3.1/../../../../arm-none-eabi/lib/thumb/v7e-m/fpv4-sp/hard\libc_nano.a(lib_a-sbrkr.o)
 .ARM.attributes
                0x000008e5       0x34 c:/vsarm/armcc/bin/../lib/gcc/arm-none-eabi/7.3.1/../../../../arm-none-eabi/lib/thumb/v7e-m/fpv4-sp/hard\libc_nano.a(lib_a-stdio.o)
 .ARM.attributes
                0x00000919       0x34 c:/vsarm/armcc/bin/../lib/gcc/arm-none-eabi/7.3.1/../../../../arm-none-eabi/lib/thumb/v7e-m/fpv4-sp/hard\libc_nano.a(lib_a-writer.o)
 .ARM.attributes
                0x0000094d       0x34 c:/vsarm/armcc/bin/../lib/gcc/arm-none-eabi/7.3.1/../../../../arm-none-eabi/lib/thumb/v7e-m/fpv4-sp/hard\libc_nano.a(lib_a-closer.o)
 .ARM.attributes
                0x00000981       0x34 c:/vsarm/armcc/bin/../lib/gcc/arm-none-eabi/7.3.1/../../../../arm-none-eabi/lib/thumb/v7e-m/fpv4-sp/hard\libc_nano.a(lib_a-fstatr.o)
 .ARM.attributes
                0x000009b5       0x34 c:/vsarm/armcc/bin/../lib/gcc/arm-none-eabi/7.3.1/../../../../arm-none-eabi/lib/thumb/v7e-m/fpv4-sp/hard\libc_nano.a(lib_a-isattyr.o)
 .ARM.attributes
                0x000009e9       0x34 c:/vsarm/armcc/bin/../lib/gcc/arm-none-eabi/7.3.1/../../../../arm-none-eabi/lib/thumb/v7e-m/fpv4-sp/hard\libc_nano.a(lib_a-lseekr.o)
 .ARM.attributes
                0x00000a1d       0x34 c:/vsarm/armcc/bin/../lib/gcc/arm-none-eabi/7.3.1/../../../../arm-none-eabi/lib/thumb/v7e-m/fpv4-sp/hard\libc_nano.a(lib_a-mlock.o)
 .ARM.attributes
                0x00000a51       0x34 c:/vsarm/armcc/bin/../lib/gcc/arm-none-eabi/7.3.1/../../../../arm-none-eabi/lib/thumb/v7e-m/fpv4-sp/hard\libc_nano.a(lib_a-readr.o)
 .ARM.attributes
                0x00000a85       0x34 c:/vsarm/armcc/bin/../lib/gcc/arm-none-eabi/7.3.1/../../../../arm-none-eabi/lib/thumb/v7e-m/fpv4-sp/hard\libc_nano.a(lib_a-reent.o)
 .ARM.attributes
                0x00000ab9       0x34 c:/vsarm/armcc/bin/../lib/gcc/arm-none-eabi/7.3.1/../../../../arm-none-eabi/lib/thumb/v7e-m/fpv4-sp/hard\libnosys.a(close.o)
 .ARM.attributes
                0x00000aed       0x34 c:/vsarm/armcc/bin/../lib/gcc/arm-none-eabi/7.3.1/../../../../arm-none-eabi/lib/thumb/v7e-m/fpv4-sp/hard\libnosys.a(fstat.o)
 .ARM.attributes
                0x00000b21       0x34 c:/vsarm/armcc/bin/../lib/gcc/arm-none-eabi/7.3.1/../../../../arm-none-eabi/lib/thumb/v7e-m/fpv4-sp/hard\libnosys.a(isatty.o)
 .ARM.attributes
                0x00000b55       0x34 c:/vsarm/armcc/bin/../lib/gcc/arm-none-eabi/7.3.1/../../../../arm-none-eabi/lib/thumb/v7e-m/fpv4-sp/hard\libnosys.a(lseek.o)
 .ARM.attributes
                0x00000b89       0x34 c:/vsarm/armcc/bin/../lib/gcc/arm-none-eabi/7.3.1/../../../../arm-none-eabi/lib/thumb/v7e-m/fpv4-sp/hard\libnosys.a(read.o)
 .ARM.attributes
                0x00000bbd       0x34 c:/vsarm/armcc/bin/../lib/gcc/arm-none-eabi/7.3.1/../../../../arm-none-eabi/lib/thumb/v7e-m/fpv4-sp/hard\libnosys.a(sbrk.o)
 .ARM.attributes
                0x00000bf1       0x39 Middlewares/STemWin/Lib/STemWin_CM7_wc32.a(GUICC_M8888I.o)
 .ARM.attributes
                0x00000c2a       0x39 Middlewares/STemWin/Lib/STemWin_CM7_wc32.a(GUICC_M8888I_Index2Color.o)
 .ARM.attributes
                0x00000c63       0x39 Middlewares/STemWin/Lib/STemWin_CM7_wc32.a(GUI_Alloc.o)
 .ARM.attributes
                0x00000c9c       0x39 Middlewares/STemWin/Lib/STemWin_CM7_wc32.a(GUI_Common.o)
 .ARM.attributes
                0x00000cd5       0x39 Middlewares/STemWin/Lib/STemWin_CM7_wc32.a(GUI_Core.o)
 .ARM.attributes
                0x00000d0e       0x39 Middlewares/STemWin/Lib/STemWin_CM7_wc32.a(GUI_Device.o)
 .ARM.attributes
                0x00000d47       0x39 Middlewares/STemWin/Lib/STemWin_CM7_wc32.a(GUI_DispString.o)
 .ARM.attributes
                0x00000d80       0x39 Middlewares/STemWin/Lib/STemWin_CM7_wc32.a(GUI_MULTIBUF.o)
 .ARM.attributes
                0x00000db9       0x39 Middlewares/STemWin/Lib/STemWin_CM7_wc32.a(GUI_OnKey.o)
 .ARM.attributes
                0x00000df2       0x39 Middlewares/STemWin/Lib/STemWin_CM7_wc32.a(GUI_SelectLayer.o)
 .ARM.attributes
                0x00000e2b       0x39 Middlewares/STemWin/Lib/STemWin_CM7_wc32.a(GUI_Time.o)
 .ARM.attributes
                0x00000e64       0x39 Middlewares/STemWin/Lib/STemWin_CM7_wc32.a(GUI_UC.o)
 .ARM.attributes
                0x00000e9d       0x39 Middlewares/STemWin/Lib/STemWin_CM7_wc32.a(GUI_UC_EncodeNone.o)
 .ARM.attributes
                0x00000ed6       0x39 Middlewares/STemWin/Lib/STemWin_CM7_wc32.a(GUI_WaitEvent.o)
 .ARM.attributes
                0x00000f0f       0x39 Middlewares/STemWin/Lib/STemWin_CM7_wc32.a(GUI__Private.o)
 .ARM.attributes
                0x00000f48       0x39 Middlewares/STemWin/Lib/STemWin_CM7_wc32.a(GUI__Wrap.o)
 .ARM.attributes
                0x00000f81       0x39 Middlewares/STemWin/Lib/STemWin_CM7_wc32.a(LCD.o)
 .ARM.attributes
                0x00000fba       0x39 Middlewares/STemWin/Lib/STemWin_CM7_wc32.a(LCD_Color.o)
 .ARM.attributes
                0x00000ff3       0x39 Middlewares/STemWin/Lib/STemWin_CM7_wc32.a(LCD_GetColorIndex.o)
 .ARM.attributes
                0x0000102c       0x39 Middlewares/STemWin/Lib/STemWin_CM7_wc32.a(LCD_GetEx.o)
 .ARM.attributes
                0x00001065       0x39 Middlewares/STemWin/Lib/STemWin_CM7_wc32.a(LCD_GetNumDisplays.o)
 .ARM.attributes
                0x0000109e       0x39 Middlewares/STemWin/Lib/STemWin_CM7_wc32.a(LCD_GetP.o)
 .ARM.attributes
                0x000010d7       0x39 Middlewares/STemWin/Lib/STemWin_CM7_wc32.a(LCD_SelectLCD.o)
 .ARM.attributes
                0x00001110       0x39 Middlewares/STemWin/Lib/STemWin_CM7_wc32.a(LCD_Set.o)
 .ARM.attributes
                0x00001149       0x39 Middlewares/STemWin/Lib/STemWin_CM7_wc32.a(LCD_UpdateColorIndices.o)
 .ARM.attributes
                0x00001182       0x39 Middlewares/STemWin/Lib/STemWin_CM7_wc32.a(GUIDRV_Lin_32.o)
 .ARM.attributes
                0x000011bb       0x39 Middlewares/STemWin/Lib/STemWin_CM7_wc32.a(F6x8.o)
 .ARM.attributes
                0x000011f4       0x39 Middlewares/STemWin/Lib/STemWin_CM7_wc32.a(GUIDEV_32.o)
 .ARM.attributes
                0x0000122d       0x39 Middlewares/STemWin/Lib/STemWin_CM7_wc32.a(GUIDEV_Usage.o)
 .ARM.attributes
                0x00001266       0x39 Middlewares/STemWin/Lib/STemWin_CM7_wc32.a(GUIDEV_WriteToActiveAlpha.o)
 .ARM.attributes
                0x0000129f       0x39 Middlewares/STemWin/Lib/STemWin_CM7_wc32.a(WM.o)
 .ARM.attributes
                0x000012d8       0x39 Middlewares/STemWin/Lib/STemWin_CM7_wc32.a(WM_Lib.o)
 .ARM.attributes
                0x00001311       0x39 Middlewares/STemWin/Lib/STemWin_CM7_wc32.a(WM_Move.o)
 .ARM.attributes
                0x0000134a       0x39 Middlewares/STemWin/Lib/STemWin_CM7_wc32.a(WM_Timer.o)
 .ARM.attributes
                0x00001383       0x39 Middlewares/STemWin/Lib/STemWin_CM7_wc32.a(WM_Touch.o)
 .ARM.attributes
                0x000013bc       0x39 Middlewares/STemWin/Lib/STemWin_CM7_wc32.a(WM__Private.o)
 .ARM.attributes
                0x000013f5       0x39 Middlewares/STemWin/Lib/STemWin_CM7_wc32.a(BUTTON.o)
 .ARM.attributes
                0x0000142e       0x39 Middlewares/STemWin/Lib/STemWin_CM7_wc32.a(BUTTON_Skin.o)
 .ARM.attributes
                0x00001467       0x39 Middlewares/STemWin/Lib/STemWin_CM7_wc32.a(BUTTON_SkinFlex.o)
 .ARM.attributes
                0x000014a0       0x39 Middlewares/STemWin/Lib/STemWin_CM7_wc32.a(DIALOG.o)
 .ARM.attributes
                0x000014d9       0x39 Middlewares/STemWin/Lib/STemWin_CM7_wc32.a(FRAMEWIN.o)
 .ARM.attributes
                0x00001512       0x39 Middlewares/STemWin/Lib/STemWin_CM7_wc32.a(FRAMEWIN_Skin.o)
 .ARM.attributes
                0x0000154b       0x39 Middlewares/STemWin/Lib/STemWin_CM7_wc32.a(FRAMEWIN_SkinFlex.o)
 .ARM.attributes
                0x00001584       0x39 Middlewares/STemWin/Lib/STemWin_CM7_wc32.a(GUI_DRAW.o)
 .ARM.attributes
                0x000015bd       0x39 Middlewares/STemWin/Lib/STemWin_CM7_wc32.a(MULTIEDIT.o)
 .ARM.attributes
                0x000015f6       0x39 Middlewares/STemWin/Lib/STemWin_CM7_wc32.a(SCROLLBAR.o)
 .ARM.attributes
                0x0000162f       0x39 Middlewares/STemWin/Lib/STemWin_CM7_wc32.a(SCROLLBAR_Skin.o)
 .ARM.attributes
                0x00001668       0x39 Middlewares/STemWin/Lib/STemWin_CM7_wc32.a(SCROLLBAR_SkinFlex.o)
 .ARM.attributes
                0x000016a1       0x39 Middlewares/STemWin/Lib/STemWin_CM7_wc32.a(TEXT.o)
 .ARM.attributes
                0x000016da       0x39 Middlewares/STemWin/Lib/STemWin_CM7_wc32.a(WIDGET.o)
 .ARM.attributes
                0x00001713       0x39 Middlewares/STemWin/Lib/STemWin_CM7_wc32.a(WIDGET_Effect_Simple.o)
 .ARM.attributes
                0x0000174c       0x39 Middlewares/STemWin/Lib/STemWin_CM7_wc32.a(GUICC_0.o)
 .ARM.attributes
                0x00001785       0x39 Middlewares/STemWin/Lib/STemWin_CM7_wc32.a(GUICC_8888_Index2Color.o)
 .ARM.attributes
                0x000017be       0x39 Middlewares/STemWin/Lib/STemWin_CM7_wc32.a(GUI_2DLib.o)
 .ARM.attributes
                0x000017f7       0x39 Middlewares/STemWin/Lib/STemWin_CM7_wc32.a(GUI_Char.o)
 .ARM.attributes
                0x00001830       0x39 Middlewares/STemWin/Lib/STemWin_CM7_wc32.a(GUI_CharLine.o)
 .ARM.attributes
                0x00001869       0x39 Middlewares/STemWin/Lib/STemWin_CM7_wc32.a(GUI_CharM.o)
 .ARM.attributes
                0x000018a2       0x39 Middlewares/STemWin/Lib/STemWin_CM7_wc32.a(GUI_DispChar.o)
 .ARM.attributes
                0x000018db       0x39 Middlewares/STemWin/Lib/STemWin_CM7_wc32.a(GUI_DrawGradient.o)
 .ARM.attributes
                0x00001914       0x39 Middlewares/STemWin/Lib/STemWin_CM7_wc32.a(GUI_DrawLib.o)
 .ARM.attributes
                0x0000194d       0x39 Middlewares/STemWin/Lib/STemWin_CM7_wc32.a(GUI_Timer.o)
 .ARM.attributes
                0x00001986       0x39 Middlewares/STemWin/Lib/STemWin_CM7_wc32.a(GUI__Alpha.o)
 .ARM.attributes
                0x000019bf       0x39 Middlewares/STemWin/Lib/STemWin_CM7_wc32.a(GUI__BiDiRouting.o)
 .ARM.attributes
                0x000019f8       0x39 Middlewares/STemWin/Lib/STemWin_CM7_wc32.a(GUI__CompactPixelIndices.o)
 .ARM.attributes
                0x00001a31       0x39 Middlewares/STemWin/Lib/STemWin_CM7_wc32.a(GUI__DrawTwinArc.o)
 .ARM.attributes
                0x00001a6a       0x39 Middlewares/STemWin/Lib/STemWin_CM7_wc32.a(GUI__ExpandPixelIndices.o)
 .ARM.attributes
                0x00001aa3       0x39 Middlewares/STemWin/Lib/STemWin_CM7_wc32.a(GUI__GetCursorPos.o)
 .ARM.attributes
                0x00001adc       0x39 Middlewares/STemWin/Lib/STemWin_CM7_wc32.a(GUI__ManageCache.o)
 .ARM.attributes
                0x00001b15       0x39 Middlewares/STemWin/Lib/STemWin_CM7_wc32.a(LCD_AA.o)
 .ARM.attributes
                0x00001b4e       0x39 Middlewares/STemWin/Lib/STemWin_CM7_wc32.a(LCD_Mirror.o)
 .ARM.attributes
                0x00001b87       0x39 Middlewares/STemWin/Lib/STemWin_CM7_wc32.a(LCD_ReadRect.o)
 .ARM.attributes
                0x00001bc0       0x39 Middlewares/STemWin/Lib/STemWin_CM7_wc32.a(LCD_SetClipRectEx.o)
 .ARM.attributes
                0x00001bf9       0x39 Middlewares/STemWin/Lib/STemWin_CM7_wc32.a(F13_1.o)
 .ARM.attributes
                0x00001c32       0x39 Middlewares/STemWin/Lib/STemWin_CM7_wc32.a(F13_ASCII.o)
 .ARM.attributes
                0x00001c6b       0x39 Middlewares/STemWin/Lib/STemWin_CM7_wc32.a(GUIDEV.o)
 .ARM.attributes
                0x00001ca4       0x39 Middlewares/STemWin/Lib/STemWin_CM7_wc32.a(GUIDEV_Banding.o)
 .ARM.attributes
                0x00001cdd       0x39 Middlewares/STemWin/Lib/STemWin_CM7_wc32.a(GUIDEV_Clear.o)
 .ARM.attributes
                0x00001d16       0x39 Middlewares/STemWin/Lib/STemWin_CM7_wc32.a(GUIDEV_GetDataPtr.o)
 .ARM.attributes
                0x00001d4f       0x39 Middlewares/STemWin/Lib/STemWin_CM7_wc32.a(GUIDEV_GetYSize.o)
 .ARM.attributes
                0x00001d88       0x39 Middlewares/STemWin/Lib/STemWin_CM7_wc32.a(GUIDEV_ReduceYSize.o)
 .ARM.attributes
                0x00001dc1       0x39 Middlewares/STemWin/Lib/STemWin_CM7_wc32.a(GUIDEV_SetOrg.o)
 .ARM.attributes
                0x00001dfa       0x39 Middlewares/STemWin/Lib/STemWin_CM7_wc32.a(GUIDEV_StaticDevices.o)
 .ARM.attributes
                0x00001e33       0x39 Middlewares/STemWin/Lib/STemWin_CM7_wc32.a(GUIDEV_UsageBM.o)
 .ARM.attributes
                0x00001e6c       0x39 Middlewares/STemWin/Lib/STemWin_CM7_wc32.a(GUIDEV_Write.o)
 .ARM.attributes
                0x00001ea5       0x39 Middlewares/STemWin/Lib/STemWin_CM7_wc32.a(GUIDEV_WriteToActiveOpaque.o)
 .ARM.attributes
                0x00001ede       0x39 Middlewares/STemWin/Lib/STemWin_CM7_wc32.a(WM_BringToTop.o)
 .ARM.attributes
                0x00001f17       0x39 Middlewares/STemWin/Lib/STemWin_CM7_wc32.a(WM_GetWindowSize.o)
 .ARM.attributes
                0x00001f50       0x39 Middlewares/STemWin/Lib/STemWin_CM7_wc32.a(WM_Hide.o)
 .ARM.attributes
                0x00001f89       0x39 Middlewares/STemWin/Lib/STemWin_CM7_wc32.a(WM_MemDev.o)
 .ARM.attributes
                0x00001fc2       0x39 Middlewares/STemWin/Lib/STemWin_CM7_wc32.a(WM_SetCapture.o)
 .ARM.attributes
                0x00001ffb       0x39 Middlewares/STemWin/Lib/STemWin_CM7_wc32.a(WM_SetCaptureMove.o)
 .ARM.attributes
                0x00002034       0x39 Middlewares/STemWin/Lib/STemWin_CM7_wc32.a(WM_SetFocusOnNextChild.o)
 .ARM.attributes
                0x0000206d       0x39 Middlewares/STemWin/Lib/STemWin_CM7_wc32.a(WM_SetFocusOnPrevChild.o)
 .ARM.attributes
                0x000020a6       0x39 Middlewares/STemWin/Lib/STemWin_CM7_wc32.a(WM_SetScrollbar.o)
 .ARM.attributes
                0x000020df       0x39 Middlewares/STemWin/Lib/STemWin_CM7_wc32.a(WM_SetTrans.o)
 .ARM.attributes
                0x00002118       0x39 Middlewares/STemWin/Lib/STemWin_CM7_wc32.a(GUICC_8888.o)
 .ARM.attributes
                0x00002151       0x39 Middlewares/STemWin/Lib/STemWin_CM7_wc32.a(GUICC_888_Index2Color.o)
 .ARM.attributes
                0x0000218a       0x39 Middlewares/STemWin/Lib/STemWin_CM7_wc32.a(GUI_CharP.o)
 .ARM.attributes
                0x000021c3       0x39 Middlewares/STemWin/Lib/STemWin_CM7_wc32.a(GUI_SetAlpha.o)
 .ARM.attributes
                0x000021fc       0x22 c:/vsarm/armcc/bin/../lib/gcc/arm-none-eabi/7.3.1/thumb/v7e-m/fpv4-sp/hard\libgcc.a(_aeabi_uldivmod.o)
 .ARM.attributes
                0x0000221e       0x34 c:/vsarm/armcc/bin/../lib/gcc/arm-none-eabi/7.3.1/thumb/v7e-m/fpv4-sp/hard\libgcc.a(_udivmoddi4.o)
 .ARM.attributes
                0x00002252       0x22 c:/vsarm/armcc/bin/../lib/gcc/arm-none-eabi/7.3.1/thumb/v7e-m/fpv4-sp/hard\libgcc.a(_dvmd_tls.o)
 .ARM.attributes
                0x00002274       0x34 c:/vsarm/armcc/bin/../lib/gcc/arm-none-eabi/7.3.1/../../../../arm-none-eabi/lib/thumb/v7e-m/fpv4-sp/hard\libc_nano.a(lib_a-memcpy-stub.o)
 .ARM.attributes
                0x000022a8       0x34 c:/vsarm/armcc/bin/../lib/gcc/arm-none-eabi/7.3.1/../../../../arm-none-eabi/lib/thumb/v7e-m/fpv4-sp/hard\libc_nano.a(lib_a-memmove.o)
 .ARM.attributes
                0x000022dc       0x34 c:/vsarm/armcc/bin/../lib/gcc/arm-none-eabi/7.3.1/../../../../arm-none-eabi/lib/thumb/v7e-m/fpv4-sp/hard\libc_nano.a(lib_a-strcpy.o)
 .ARM.attributes
                0x00002310       0x1b c:/vsarm/armcc/bin/../lib/gcc/arm-none-eabi/7.3.1/../../../../arm-none-eabi/lib/thumb/v7e-m/fpv4-sp/hard\libc_nano.a(lib_a-strlen.o)
 .ARM.attributes
                0x0000232b       0x22 c:/vsarm/armcc/bin/../lib/gcc/arm-none-eabi/7.3.1/thumb/v7e-m/fpv4-sp/hard/crtn.o

.GUI_NUMBYTES_section
 *(.GUI_NUMBYTES_section)
OUTPUT(build/StemWin.elf elf32-littlearm)

.debug_info     0x00000000    0x2b0ee
 .debug_info    0x00000000     0x6274 build/main.o
 .debug_info    0x00006274     0x3eb3 build/stm32f7xx_it.o
 .debug_info    0x0000a127      0xb6d build/stm32f7xx_hal.o
 .debug_info    0x0000ac94     0x1e6f build/stm32f7xx_hal_uart.o
 .debug_info    0x0000cb03      0x96d build/stm32f7xx_hal_rcc_ex.o
 .debug_info    0x0000d470      0x6c9 build/stm32f7xx_hal_crc.o
 .debug_info    0x0000db39     0x14b6 build/stm32f7xx_hal_ltdc.o
 .debug_info    0x0000efef      0xb49 build/stm32f7xx_hal_pwr_ex.o
 .debug_info    0x0000fb38      0xf4c build/stm32f7xx_hal_sdram.o
 .debug_info    0x00010a84      0xc30 build/stm32f7xx_hal_rcc.o
 .debug_info    0x000116b4     0x3b70 build/stm32f7xx_hal_i2c.o
 .debug_info    0x00015224      0xadf build/stm32f7xx_hal_pwr.o
 .debug_info    0x00015d03      0xb48 build/stm32f7xx_hal_dma.o
 .debug_info    0x0001684b     0x12d1 build/stm32f7xx_hal_cortex.o
 .debug_info    0x00017b1c      0xe03 build/stm32f7xx_ll_fmc.o
 .debug_info    0x0001891f      0x894 build/stm32f7xx_hal_gpio.o
 .debug_info    0x000191b3     0x1234 build/stm32f7xx_hal_dma2d.o
 .debug_info    0x0001a3e7      0x7d9 build/stm32f7xx_hal_i2c_ex.o
 .debug_info    0x0001abc0      0x46f build/stm32f7xx_hal_crc_ex.o
 .debug_info    0x0001b02f      0x807 build/system_stm32f7xx.o
 .debug_info    0x0001b836     0x22a9 build/stm32746g_discovery.o
 .debug_info    0x0001dadf     0x1430 build/stm32746g_discovery_sdram.o
 .debug_info    0x0001ef0f     0x1b7e build/GUIConf.o
 .debug_info    0x00020a8d     0x5b5f build/LCDConf.o
 .debug_info    0x000265ec     0x1c15 build/GUI_X.o
 .debug_info    0x00028201     0x2ecb build/FramewinDLG.o
 .debug_info    0x0002b0cc       0x22 build/startup_stm32f746xx.o

.debug_abbrev   0x00000000     0x3adf
 .debug_abbrev  0x00000000      0x3df build/main.o
 .debug_abbrev  0x000003df      0x21f build/stm32f7xx_it.o
 .debug_abbrev  0x000005fe      0x1ed build/stm32f7xx_hal.o
 .debug_abbrev  0x000007eb      0x282 build/stm32f7xx_hal_uart.o
 .debug_abbrev  0x00000a6d      0x1de build/stm32f7xx_hal_rcc_ex.o
 .debug_abbrev  0x00000c4b      0x215 build/stm32f7xx_hal_crc.o
 .debug_abbrev  0x00000e60      0x24a build/stm32f7xx_hal_ltdc.o
 .debug_abbrev  0x000010aa      0x1b1 build/stm32f7xx_hal_pwr_ex.o
 .debug_abbrev  0x0000125b      0x264 build/stm32f7xx_hal_sdram.o
 .debug_abbrev  0x000014bf      0x25b build/stm32f7xx_hal_rcc.o
 .debug_abbrev  0x0000171a      0x2bd build/stm32f7xx_hal_i2c.o
 .debug_abbrev  0x000019d7      0x1c2 build/stm32f7xx_hal_pwr.o
 .debug_abbrev  0x00001b99      0x2ac build/stm32f7xx_hal_dma.o
 .debug_abbrev  0x00001e45      0x33d build/stm32f7xx_hal_cortex.o
 .debug_abbrev  0x00002182      0x1b9 build/stm32f7xx_ll_fmc.o
 .debug_abbrev  0x0000233b      0x21c build/stm32f7xx_hal_gpio.o
 .debug_abbrev  0x00002557      0x26d build/stm32f7xx_hal_dma2d.o
 .debug_abbrev  0x000027c4      0x177 build/stm32f7xx_hal_i2c_ex.o
 .debug_abbrev  0x0000293b      0x164 build/stm32f7xx_hal_crc_ex.o
 .debug_abbrev  0x00002a9f      0x137 build/system_stm32f7xx.o
 .debug_abbrev  0x00002bd6      0x2ff build/stm32746g_discovery.o
 .debug_abbrev  0x00002ed5      0x23c build/stm32746g_discovery_sdram.o
 .debug_abbrev  0x00003111      0x1bd build/GUIConf.o
 .debug_abbrev  0x000032ce      0x3ce build/LCDConf.o
 .debug_abbrev  0x0000369c      0x1e8 build/GUI_X.o
 .debug_abbrev  0x00003884      0x249 build/FramewinDLG.o
 .debug_abbrev  0x00003acd       0x12 build/startup_stm32f746xx.o

.debug_loc      0x00000000    0x10dff
 .debug_loc     0x00000000      0x355 build/main.o
 .debug_loc     0x00000355       0x60 build/stm32f7xx_it.o
 .debug_loc     0x000003b5      0x1bb build/stm32f7xx_hal.o
 .debug_loc     0x00000570     0x1d60 build/stm32f7xx_hal_uart.o
 .debug_loc     0x000022d0      0x6e2 build/stm32f7xx_hal_rcc_ex.o
 .debug_loc     0x000029b2      0x5f8 build/stm32f7xx_hal_crc.o
 .debug_loc     0x00002faa     0x19a9 build/stm32f7xx_hal_ltdc.o
 .debug_loc     0x00004953      0x2dc build/stm32f7xx_hal_pwr_ex.o
 .debug_loc     0x00004c2f      0xee3 build/stm32f7xx_hal_sdram.o
 .debug_loc     0x00005b12      0x666 build/stm32f7xx_hal_rcc.o
 .debug_loc     0x00006178     0x50c0 build/stm32f7xx_hal_i2c.o
 .debug_loc     0x0000b238       0xd9 build/stm32f7xx_hal_pwr.o
 .debug_loc     0x0000b311      0xd0e build/stm32f7xx_hal_dma.o
 .debug_loc     0x0000c01f      0x650 build/stm32f7xx_hal_cortex.o
 .debug_loc     0x0000c66f      0xa45 build/stm32f7xx_ll_fmc.o
 .debug_loc     0x0000d0b4      0x549 build/stm32f7xx_hal_gpio.o
 .debug_loc     0x0000d5fd     0x1278 build/stm32f7xx_hal_dma2d.o
 .debug_loc     0x0000e875      0x11c build/stm32f7xx_hal_i2c_ex.o
 .debug_loc     0x0000e991      0x1da build/stm32f7xx_hal_crc_ex.o
 .debug_loc     0x0000eb6b      0x13e build/system_stm32f7xx.o
 .debug_loc     0x0000eca9      0xe44 build/stm32746g_discovery.o
 .debug_loc     0x0000faed      0x468 build/stm32746g_discovery_sdram.o
 .debug_loc     0x0000ff55       0x20 build/GUIConf.o
 .debug_loc     0x0000ff75      0xd9f build/LCDConf.o
 .debug_loc     0x00010d14       0x21 build/GUI_X.o
 .debug_loc     0x00010d35       0xca build/FramewinDLG.o

.debug_aranges  0x00000000     0x11c0
 .debug_aranges
                0x00000000       0x80 build/main.o
 .debug_aranges
                0x00000080       0x60 build/stm32f7xx_it.o
 .debug_aranges
                0x000000e0      0x100 build/stm32f7xx_hal.o
 .debug_aranges
                0x000001e0      0x210 build/stm32f7xx_hal_uart.o
 .debug_aranges
                0x000003f0       0x50 build/stm32f7xx_hal_rcc_ex.o
 .debug_aranges
                0x00000440       0x60 build/stm32f7xx_hal_crc.o
 .debug_aranges
                0x000004a0      0x158 build/stm32f7xx_hal_ltdc.o
 .debug_aranges
                0x000005f8       0x80 build/stm32f7xx_hal_pwr_ex.o
 .debug_aranges
                0x00000678       0xd0 build/stm32f7xx_hal_sdram.o
 .debug_aranges
                0x00000748       0x88 build/stm32f7xx_hal_rcc.o
 .debug_aranges
                0x000007d0      0x288 build/stm32f7xx_hal_i2c.o
 .debug_aranges
                0x00000a58       0xa0 build/stm32f7xx_hal_pwr.o
 .debug_aranges
                0x00000af8       0x90 build/stm32f7xx_hal_dma.o
 .debug_aranges
                0x00000b88       0xa8 build/stm32f7xx_hal_cortex.o
 .debug_aranges
                0x00000c30       0xc8 build/stm32f7xx_ll_fmc.o
 .debug_aranges
                0x00000cf8       0x58 build/stm32f7xx_hal_gpio.o
 .debug_aranges
                0x00000d50      0x108 build/stm32f7xx_hal_dma2d.o
 .debug_aranges
                0x00000e58       0x28 build/stm32f7xx_hal_i2c_ex.o
 .debug_aranges
                0x00000e80       0x30 build/stm32f7xx_hal_crc_ex.o
 .debug_aranges
                0x00000eb0       0x28 build/system_stm32f7xx.o
 .debug_aranges
                0x00000ed8      0x128 build/stm32746g_discovery.o
 .debug_aranges
                0x00001000       0x68 build/stm32746g_discovery_sdram.o
 .debug_aranges
                0x00001068       0x20 build/GUIConf.o
 .debug_aranges
                0x00001088       0x98 build/LCDConf.o
 .debug_aranges
                0x00001120       0x50 build/GUI_X.o
 .debug_aranges
                0x00001170       0x28 build/FramewinDLG.o
 .debug_aranges
                0x00001198       0x28 build/startup_stm32f746xx.o

.debug_ranges   0x00000000     0x1090
 .debug_ranges  0x00000000       0x88 build/main.o
 .debug_ranges  0x00000088       0x50 build/stm32f7xx_it.o
 .debug_ranges  0x000000d8       0xf0 build/stm32f7xx_hal.o
 .debug_ranges  0x000001c8      0x200 build/stm32f7xx_hal_uart.o
 .debug_ranges  0x000003c8       0x40 build/stm32f7xx_hal_rcc_ex.o
 .debug_ranges  0x00000408       0x50 build/stm32f7xx_hal_crc.o
 .debug_ranges  0x00000458      0x148 build/stm32f7xx_hal_ltdc.o
 .debug_ranges  0x000005a0       0x70 build/stm32f7xx_hal_pwr_ex.o
 .debug_ranges  0x00000610       0xc0 build/stm32f7xx_hal_sdram.o
 .debug_ranges  0x000006d0       0x78 build/stm32f7xx_hal_rcc.o
 .debug_ranges  0x00000748      0x278 build/stm32f7xx_hal_i2c.o
 .debug_ranges  0x000009c0       0x90 build/stm32f7xx_hal_pwr.o
 .debug_ranges  0x00000a50       0x80 build/stm32f7xx_hal_dma.o
 .debug_ranges  0x00000ad0       0xf8 build/stm32f7xx_hal_cortex.o
 .debug_ranges  0x00000bc8       0xb8 build/stm32f7xx_ll_fmc.o
 .debug_ranges  0x00000c80       0x48 build/stm32f7xx_hal_gpio.o
 .debug_ranges  0x00000cc8       0xf8 build/stm32f7xx_hal_dma2d.o
 .debug_ranges  0x00000dc0       0x18 build/stm32f7xx_hal_i2c_ex.o
 .debug_ranges  0x00000dd8       0x20 build/stm32f7xx_hal_crc_ex.o
 .debug_ranges  0x00000df8       0x18 build/system_stm32f7xx.o
 .debug_ranges  0x00000e10      0x118 build/stm32746g_discovery.o
 .debug_ranges  0x00000f28       0x58 build/stm32746g_discovery_sdram.o
 .debug_ranges  0x00000f80       0x10 build/GUIConf.o
 .debug_ranges  0x00000f90       0x88 build/LCDConf.o
 .debug_ranges  0x00001018       0x40 build/GUI_X.o
 .debug_ranges  0x00001058       0x18 build/FramewinDLG.o
 .debug_ranges  0x00001070       0x20 build/startup_stm32f746xx.o

.debug_line     0x00000000     0x8428
 .debug_line    0x00000000      0x794 build/main.o
 .debug_line    0x00000794      0x469 build/stm32f7xx_it.o
 .debug_line    0x00000bfd      0x3cc build/stm32f7xx_hal.o
 .debug_line    0x00000fc9      0xdbd build/stm32f7xx_hal_uart.o
 .debug_line    0x00001d86      0x3e4 build/stm32f7xx_hal_rcc_ex.o
 .debug_line    0x0000216a      0x33e build/stm32f7xx_hal_crc.o
 .debug_line    0x000024a8      0xa65 build/stm32f7xx_hal_ltdc.o
 .debug_line    0x00002f0d      0x2d8 build/stm32f7xx_hal_pwr_ex.o
 .debug_line    0x000031e5      0x4e5 build/stm32f7xx_hal_sdram.o
 .debug_line    0x000036ca      0x4bb build/stm32f7xx_hal_rcc.o
 .debug_line    0x00003b85     0x158a build/stm32f7xx_hal_i2c.o
 .debug_line    0x0000510f      0x31d build/stm32f7xx_hal_pwr.o
 .debug_line    0x0000542c      0x4de build/stm32f7xx_hal_dma.o
 .debug_line    0x0000590a      0x402 build/stm32f7xx_hal_cortex.o
 .debug_line    0x00005d0c      0x451 build/stm32f7xx_ll_fmc.o
 .debug_line    0x0000615d      0x346 build/stm32f7xx_hal_gpio.o
 .debug_line    0x000064a3      0x723 build/stm32f7xx_hal_dma2d.o
 .debug_line    0x00006bc6      0x257 build/stm32f7xx_hal_i2c_ex.o
 .debug_line    0x00006e1d      0x1ff build/stm32f7xx_hal_crc_ex.o
 .debug_line    0x0000701c      0x199 build/system_stm32f7xx.o
 .debug_line    0x000071b5      0x52e build/stm32746g_discovery.o
 .debug_line    0x000076e3      0x333 build/stm32746g_discovery_sdram.o
 .debug_line    0x00007a16       0x8f build/GUIConf.o
 .debug_line    0x00007aa5      0x6ac build/LCDConf.o
 .debug_line    0x00008151       0xf5 build/GUI_X.o
 .debug_line    0x00008246      0x16f build/FramewinDLG.o
 .debug_line    0x000083b5       0x73 build/startup_stm32f746xx.o

.debug_str      0x00000000     0x8879
 .debug_str     0x00000000     0x4081 build/main.o
                               0x4286 (size before relaxing)
 .debug_str     0x00004081       0xd9 build/stm32f7xx_it.o
                               0x2e88 (size before relaxing)
 .debug_str     0x0000415a      0x8b9 build/stm32f7xx_hal.o
                                0xc9c (size before relaxing)
 .debug_str     0x00004a13      0x7a7 build/stm32f7xx_hal_uart.o
                                0xffa (size before relaxing)
 .debug_str     0x000051ba      0x14c build/stm32f7xx_hal_rcc_ex.o
                                0x7b6 (size before relaxing)
 .debug_str     0x00005306       0xe5 build/stm32f7xx_hal_crc.o
                                0x557 (size before relaxing)
 .debug_str     0x000053eb      0x49b build/stm32f7xx_hal_ltdc.o
                                0xa73 (size before relaxing)
 .debug_str     0x00005886      0x1d3 build/stm32f7xx_hal_pwr_ex.o
                                0x70d (size before relaxing)
 .debug_str     0x00005a59      0x39c build/stm32f7xx_hal_sdram.o
                                0xb07 (size before relaxing)
 .debug_str     0x00005df5      0x177 build/stm32f7xx_hal_rcc.o
                                0x797 (size before relaxing)
 .debug_str     0x00005f6c      0x848 build/stm32f7xx_hal_i2c.o
                               0x109d (size before relaxing)
 .debug_str     0x000067b4      0x205 build/stm32f7xx_hal_pwr.o
                                0x6fe (size before relaxing)
 .debug_str     0x000069b9      0x2b1 build/stm32f7xx_hal_dma.o
                                0x827 (size before relaxing)
 .debug_str     0x00006c6a      0x40d build/stm32f7xx_hal_cortex.o
                                0xe5e (size before relaxing)
 .debug_str     0x00007077      0x3c8 build/stm32f7xx_ll_fmc.o
                                0x96f (size before relaxing)
 .debug_str     0x0000743f       0xd4 build/stm32f7xx_hal_gpio.o
                                0x5be (size before relaxing)
 .debug_str     0x00007513      0x31c build/stm32f7xx_hal_dma2d.o
                                0x9c2 (size before relaxing)
 .debug_str     0x0000782f       0x38 build/stm32f7xx_hal_i2c_ex.o
                                0x82f (size before relaxing)
 .debug_str     0x00007867       0xa1 build/stm32f7xx_hal_crc_ex.o
                                0x511 (size before relaxing)
 .debug_str     0x00007908       0x47 build/system_stm32f7xx.o
                                0x4f0 (size before relaxing)
 .debug_str     0x0000794f      0x38b build/stm32746g_discovery.o
                               0x15c0 (size before relaxing)
 .debug_str     0x00007cda      0x15e build/stm32746g_discovery_sdram.o
                               0x111e (size before relaxing)
 .debug_str     0x00007e38       0x51 build/GUIConf.o
                               0x17fb (size before relaxing)
 .debug_str     0x00007e89      0x807 build/LCDConf.o
                               0x42bf (size before relaxing)
 .debug_str     0x00008690       0x7c build/GUI_X.o
                               0x1830 (size before relaxing)
 .debug_str     0x0000870c      0x149 build/FramewinDLG.o
                               0x24b9 (size before relaxing)
 .debug_str     0x00008855       0x24 build/startup_stm32f746xx.o
                                 0x4b (size before relaxing)

.comment        0x00000000       0xed
 .comment       0x00000000       0x7f build/main.o
                                 0x80 (size before relaxing)
 .comment       0x0000007f       0x80 build/stm32f7xx_it.o
 .comment       0x0000007f       0x80 build/stm32f7xx_hal.o
 .comment       0x0000007f       0x80 build/stm32f7xx_hal_uart.o
 .comment       0x0000007f       0x80 build/stm32f7xx_hal_rcc_ex.o
 .comment       0x0000007f       0x80 build/stm32f7xx_hal_crc.o
 .comment       0x0000007f       0x80 build/stm32f7xx_hal_ltdc.o
 .comment       0x0000007f       0x80 build/stm32f7xx_hal_pwr_ex.o
 .comment       0x0000007f       0x80 build/stm32f7xx_hal_sdram.o
 .comment       0x0000007f       0x80 build/stm32f7xx_hal_rcc.o
 .comment       0x0000007f       0x80 build/stm32f7xx_hal_i2c.o
 .comment       0x0000007f       0x80 build/stm32f7xx_hal_pwr.o
 .comment       0x0000007f       0x80 build/stm32f7xx_hal_dma.o
 .comment       0x0000007f       0x80 build/stm32f7xx_hal_cortex.o
 .comment       0x0000007f       0x80 build/stm32f7xx_ll_fmc.o
 .comment       0x0000007f       0x80 build/stm32f7xx_hal_gpio.o
 .comment       0x0000007f       0x80 build/stm32f7xx_hal_dma2d.o
 .comment       0x0000007f       0x80 build/stm32f7xx_hal_i2c_ex.o
 .comment       0x0000007f       0x80 build/stm32f7xx_hal_crc_ex.o
 .comment       0x0000007f       0x80 build/system_stm32f7xx.o
 .comment       0x0000007f       0x80 build/stm32746g_discovery.o
 .comment       0x0000007f       0x80 build/stm32746g_discovery_sdram.o
 .comment       0x0000007f       0x80 build/GUIConf.o
 .comment       0x0000007f       0x80 build/LCDConf.o
 .comment       0x0000007f       0x80 build/GUI_X.o
 .comment       0x0000007f       0x80 build/FramewinDLG.o
 .comment       0x0000007f       0x6e Middlewares/STemWin/Lib/STemWin_CM7_wc32.a(GUICC_M8888I.o)
                                 0x6f (size before relaxing)
 .comment       0x000000ed       0x6f Middlewares/STemWin/Lib/STemWin_CM7_wc32.a(GUICC_M8888I_Index2Color.o)
 .comment       0x000000ed       0x6f Middlewares/STemWin/Lib/STemWin_CM7_wc32.a(GUI_Alloc.o)
 .comment       0x000000ed       0x6f Middlewares/STemWin/Lib/STemWin_CM7_wc32.a(GUI_Common.o)
 .comment       0x000000ed       0x6f Middlewares/STemWin/Lib/STemWin_CM7_wc32.a(GUI_Core.o)
 .comment       0x000000ed       0x6f Middlewares/STemWin/Lib/STemWin_CM7_wc32.a(GUI_Device.o)
 .comment       0x000000ed       0x6f Middlewares/STemWin/Lib/STemWin_CM7_wc32.a(GUI_DispString.o)
 .comment       0x000000ed       0x6f Middlewares/STemWin/Lib/STemWin_CM7_wc32.a(GUI_MULTIBUF.o)
 .comment       0x000000ed       0x6f Middlewares/STemWin/Lib/STemWin_CM7_wc32.a(GUI_OnKey.o)
 .comment       0x000000ed       0x6f Middlewares/STemWin/Lib/STemWin_CM7_wc32.a(GUI_SelectLayer.o)
 .comment       0x000000ed       0x6f Middlewares/STemWin/Lib/STemWin_CM7_wc32.a(GUI_Time.o)
 .comment       0x000000ed       0x6f Middlewares/STemWin/Lib/STemWin_CM7_wc32.a(GUI_UC.o)
 .comment       0x000000ed       0x6f Middlewares/STemWin/Lib/STemWin_CM7_wc32.a(GUI_UC_EncodeNone.o)
 .comment       0x000000ed       0x6f Middlewares/STemWin/Lib/STemWin_CM7_wc32.a(GUI_WaitEvent.o)
 .comment       0x000000ed       0x6f Middlewares/STemWin/Lib/STemWin_CM7_wc32.a(GUI__Private.o)
 .comment       0x000000ed       0x6f Middlewares/STemWin/Lib/STemWin_CM7_wc32.a(GUI__Wrap.o)
 .comment       0x000000ed       0x6f Middlewares/STemWin/Lib/STemWin_CM7_wc32.a(LCD.o)
 .comment       0x000000ed       0x6f Middlewares/STemWin/Lib/STemWin_CM7_wc32.a(LCD_Color.o)
 .comment       0x000000ed       0x6f Middlewares/STemWin/Lib/STemWin_CM7_wc32.a(LCD_GetColorIndex.o)
 .comment       0x000000ed       0x6f Middlewares/STemWin/Lib/STemWin_CM7_wc32.a(LCD_GetEx.o)
 .comment       0x000000ed       0x6f Middlewares/STemWin/Lib/STemWin_CM7_wc32.a(LCD_GetNumDisplays.o)
 .comment       0x000000ed       0x6f Middlewares/STemWin/Lib/STemWin_CM7_wc32.a(LCD_GetP.o)
 .comment       0x000000ed       0x6f Middlewares/STemWin/Lib/STemWin_CM7_wc32.a(LCD_SelectLCD.o)
 .comment       0x000000ed       0x6f Middlewares/STemWin/Lib/STemWin_CM7_wc32.a(LCD_Set.o)
 .comment       0x000000ed       0x6f Middlewares/STemWin/Lib/STemWin_CM7_wc32.a(LCD_UpdateColorIndices.o)
 .comment       0x000000ed       0x6f Middlewares/STemWin/Lib/STemWin_CM7_wc32.a(GUIDRV_Lin_32.o)
 .comment       0x000000ed       0x6f Middlewares/STemWin/Lib/STemWin_CM7_wc32.a(F6x8.o)
 .comment       0x000000ed       0x6f Middlewares/STemWin/Lib/STemWin_CM7_wc32.a(GUIDEV_32.o)
 .comment       0x000000ed       0x6f Middlewares/STemWin/Lib/STemWin_CM7_wc32.a(GUIDEV_Usage.o)
 .comment       0x000000ed       0x6f Middlewares/STemWin/Lib/STemWin_CM7_wc32.a(GUIDEV_WriteToActiveAlpha.o)
 .comment       0x000000ed       0x6f Middlewares/STemWin/Lib/STemWin_CM7_wc32.a(WM.o)
 .comment       0x000000ed       0x6f Middlewares/STemWin/Lib/STemWin_CM7_wc32.a(WM_Lib.o)
 .comment       0x000000ed       0x6f Middlewares/STemWin/Lib/STemWin_CM7_wc32.a(WM_Move.o)
 .comment       0x000000ed       0x6f Middlewares/STemWin/Lib/STemWin_CM7_wc32.a(WM_Timer.o)
 .comment       0x000000ed       0x6f Middlewares/STemWin/Lib/STemWin_CM7_wc32.a(WM_Touch.o)
 .comment       0x000000ed       0x6f Middlewares/STemWin/Lib/STemWin_CM7_wc32.a(WM__Private.o)
 .comment       0x000000ed       0x6f Middlewares/STemWin/Lib/STemWin_CM7_wc32.a(BUTTON.o)
 .comment       0x000000ed       0x6f Middlewares/STemWin/Lib/STemWin_CM7_wc32.a(BUTTON_Skin.o)
 .comment       0x000000ed       0x6f Middlewares/STemWin/Lib/STemWin_CM7_wc32.a(BUTTON_SkinFlex.o)
 .comment       0x000000ed       0x6f Middlewares/STemWin/Lib/STemWin_CM7_wc32.a(DIALOG.o)
 .comment       0x000000ed       0x6f Middlewares/STemWin/Lib/STemWin_CM7_wc32.a(FRAMEWIN.o)
 .comment       0x000000ed       0x6f Middlewares/STemWin/Lib/STemWin_CM7_wc32.a(FRAMEWIN_Skin.o)
 .comment       0x000000ed       0x6f Middlewares/STemWin/Lib/STemWin_CM7_wc32.a(FRAMEWIN_SkinFlex.o)
 .comment       0x000000ed       0x6f Middlewares/STemWin/Lib/STemWin_CM7_wc32.a(GUI_DRAW.o)
 .comment       0x000000ed       0x6f Middlewares/STemWin/Lib/STemWin_CM7_wc32.a(MULTIEDIT.o)
 .comment       0x000000ed       0x6f Middlewares/STemWin/Lib/STemWin_CM7_wc32.a(SCROLLBAR.o)
 .comment       0x000000ed       0x6f Middlewares/STemWin/Lib/STemWin_CM7_wc32.a(SCROLLBAR_Skin.o)
 .comment       0x000000ed       0x6f Middlewares/STemWin/Lib/STemWin_CM7_wc32.a(SCROLLBAR_SkinFlex.o)
 .comment       0x000000ed       0x6f Middlewares/STemWin/Lib/STemWin_CM7_wc32.a(TEXT.o)
 .comment       0x000000ed       0x6f Middlewares/STemWin/Lib/STemWin_CM7_wc32.a(WIDGET.o)
 .comment       0x000000ed       0x6f Middlewares/STemWin/Lib/STemWin_CM7_wc32.a(WIDGET_Effect_Simple.o)
 .comment       0x000000ed       0x6f Middlewares/STemWin/Lib/STemWin_CM7_wc32.a(GUICC_0.o)
 .comment       0x000000ed       0x6f Middlewares/STemWin/Lib/STemWin_CM7_wc32.a(GUICC_8888_Index2Color.o)
 .comment       0x000000ed       0x6f Middlewares/STemWin/Lib/STemWin_CM7_wc32.a(GUI_2DLib.o)
 .comment       0x000000ed       0x6f Middlewares/STemWin/Lib/STemWin_CM7_wc32.a(GUI_Char.o)
 .comment       0x000000ed       0x6f Middlewares/STemWin/Lib/STemWin_CM7_wc32.a(GUI_CharLine.o)
 .comment       0x000000ed       0x6f Middlewares/STemWin/Lib/STemWin_CM7_wc32.a(GUI_CharM.o)
 .comment       0x000000ed       0x6f Middlewares/STemWin/Lib/STemWin_CM7_wc32.a(GUI_DispChar.o)
 .comment       0x000000ed       0x6f Middlewares/STemWin/Lib/STemWin_CM7_wc32.a(GUI_DrawGradient.o)
 .comment       0x000000ed       0x6f Middlewares/STemWin/Lib/STemWin_CM7_wc32.a(GUI_DrawLib.o)
 .comment       0x000000ed       0x6f Middlewares/STemWin/Lib/STemWin_CM7_wc32.a(GUI_Timer.o)
 .comment       0x000000ed       0x6f Middlewares/STemWin/Lib/STemWin_CM7_wc32.a(GUI__Alpha.o)
 .comment       0x000000ed       0x6f Middlewares/STemWin/Lib/STemWin_CM7_wc32.a(GUI__BiDiRouting.o)
 .comment       0x000000ed       0x6f Middlewares/STemWin/Lib/STemWin_CM7_wc32.a(GUI__CompactPixelIndices.o)
 .comment       0x000000ed       0x6f Middlewares/STemWin/Lib/STemWin_CM7_wc32.a(GUI__DrawTwinArc.o)
 .comment       0x000000ed       0x6f Middlewares/STemWin/Lib/STemWin_CM7_wc32.a(GUI__ExpandPixelIndices.o)
 .comment       0x000000ed       0x6f Middlewares/STemWin/Lib/STemWin_CM7_wc32.a(GUI__GetCursorPos.o)
 .comment       0x000000ed       0x6f Middlewares/STemWin/Lib/STemWin_CM7_wc32.a(GUI__ManageCache.o)
 .comment       0x000000ed       0x6f Middlewares/STemWin/Lib/STemWin_CM7_wc32.a(LCD_AA.o)
 .comment       0x000000ed       0x6f Middlewares/STemWin/Lib/STemWin_CM7_wc32.a(LCD_Mirror.o)
 .comment       0x000000ed       0x6f Middlewares/STemWin/Lib/STemWin_CM7_wc32.a(LCD_ReadRect.o)
 .comment       0x000000ed       0x6f Middlewares/STemWin/Lib/STemWin_CM7_wc32.a(LCD_SetClipRectEx.o)
 .comment       0x000000ed       0x6f Middlewares/STemWin/Lib/STemWin_CM7_wc32.a(F13_1.o)
 .comment       0x000000ed       0x6f Middlewares/STemWin/Lib/STemWin_CM7_wc32.a(F13_ASCII.o)
 .comment       0x000000ed       0x6f Middlewares/STemWin/Lib/STemWin_CM7_wc32.a(GUIDEV.o)
 .comment       0x000000ed       0x6f Middlewares/STemWin/Lib/STemWin_CM7_wc32.a(GUIDEV_Banding.o)
 .comment       0x000000ed       0x6f Middlewares/STemWin/Lib/STemWin_CM7_wc32.a(GUIDEV_Clear.o)
 .comment       0x000000ed       0x6f Middlewares/STemWin/Lib/STemWin_CM7_wc32.a(GUIDEV_GetDataPtr.o)
 .comment       0x000000ed       0x6f Middlewares/STemWin/Lib/STemWin_CM7_wc32.a(GUIDEV_GetYSize.o)
 .comment       0x000000ed       0x6f Middlewares/STemWin/Lib/STemWin_CM7_wc32.a(GUIDEV_ReduceYSize.o)
 .comment       0x000000ed       0x6f Middlewares/STemWin/Lib/STemWin_CM7_wc32.a(GUIDEV_SetOrg.o)
 .comment       0x000000ed       0x6f Middlewares/STemWin/Lib/STemWin_CM7_wc32.a(GUIDEV_StaticDevices.o)
 .comment       0x000000ed       0x6f Middlewares/STemWin/Lib/STemWin_CM7_wc32.a(GUIDEV_UsageBM.o)
 .comment       0x000000ed       0x6f Middlewares/STemWin/Lib/STemWin_CM7_wc32.a(GUIDEV_Write.o)
 .comment       0x000000ed       0x6f Middlewares/STemWin/Lib/STemWin_CM7_wc32.a(GUIDEV_WriteToActiveOpaque.o)
 .comment       0x000000ed       0x6f Middlewares/STemWin/Lib/STemWin_CM7_wc32.a(WM_BringToTop.o)
 .comment       0x000000ed       0x6f Middlewares/STemWin/Lib/STemWin_CM7_wc32.a(WM_GetWindowSize.o)
 .comment       0x000000ed       0x6f Middlewares/STemWin/Lib/STemWin_CM7_wc32.a(WM_Hide.o)
 .comment       0x000000ed       0x6f Middlewares/STemWin/Lib/STemWin_CM7_wc32.a(WM_MemDev.o)
 .comment       0x000000ed       0x6f Middlewares/STemWin/Lib/STemWin_CM7_wc32.a(WM_SetCapture.o)
 .comment       0x000000ed       0x6f Middlewares/STemWin/Lib/STemWin_CM7_wc32.a(WM_SetCaptureMove.o)
 .comment       0x000000ed       0x6f Middlewares/STemWin/Lib/STemWin_CM7_wc32.a(WM_SetFocusOnNextChild.o)
 .comment       0x000000ed       0x6f Middlewares/STemWin/Lib/STemWin_CM7_wc32.a(WM_SetFocusOnPrevChild.o)
 .comment       0x000000ed       0x6f Middlewares/STemWin/Lib/STemWin_CM7_wc32.a(WM_SetScrollbar.o)
 .comment       0x000000ed       0x6f Middlewares/STemWin/Lib/STemWin_CM7_wc32.a(WM_SetTrans.o)
 .comment       0x000000ed       0x6f Middlewares/STemWin/Lib/STemWin_CM7_wc32.a(GUICC_8888.o)
 .comment       0x000000ed       0x6f Middlewares/STemWin/Lib/STemWin_CM7_wc32.a(GUICC_888_Index2Color.o)
 .comment       0x000000ed       0x6f Middlewares/STemWin/Lib/STemWin_CM7_wc32.a(GUI_CharP.o)
 .comment       0x000000ed       0x6f Middlewares/STemWin/Lib/STemWin_CM7_wc32.a(GUI_SetAlpha.o)

.debug_frame    0x00000000     0x3ce0
 .debug_frame   0x00000000      0x184 build/main.o
 .debug_frame   0x00000184       0xc4 build/stm32f7xx_it.o
 .debug_frame   0x00000248      0x220 build/stm32f7xx_hal.o
 .debug_frame   0x00000468      0x650 build/stm32f7xx_hal_uart.o
 .debug_frame   0x00000ab8       0xe8 build/stm32f7xx_hal_rcc_ex.o
 .debug_frame   0x00000ba0      0x130 build/stm32f7xx_hal_crc.o
 .debug_frame   0x00000cd0      0x480 build/stm32f7xx_hal_ltdc.o
 .debug_frame   0x00001150      0x150 build/stm32f7xx_hal_pwr_ex.o
 .debug_frame   0x000012a0      0x290 build/stm32f7xx_hal_sdram.o
 .debug_frame   0x00001530      0x1d4 build/stm32f7xx_hal_rcc.o
 .debug_frame   0x00001704      0xa54 build/stm32f7xx_hal_i2c.o
 .debug_frame   0x00002158      0x138 build/stm32f7xx_hal_pwr.o
 .debug_frame   0x00002290      0x1b8 build/stm32f7xx_hal_dma.o
 .debug_frame   0x00002448      0x16c build/stm32f7xx_hal_cortex.o
 .debug_frame   0x000025b4      0x21c build/stm32f7xx_ll_fmc.o
 .debug_frame   0x000027d0       0xf0 build/stm32f7xx_hal_gpio.o
 .debug_frame   0x000028c0      0x36c build/stm32f7xx_hal_dma2d.o
 .debug_frame   0x00002c2c       0x30 build/stm32f7xx_hal_i2c_ex.o
 .debug_frame   0x00002c5c       0x54 build/stm32f7xx_hal_crc_ex.o
 .debug_frame   0x00002cb0       0x30 build/system_stm32f7xx.o
 .debug_frame   0x00002ce0      0x414 build/stm32746g_discovery.o
 .debug_frame   0x000030f4      0x14c build/stm32746g_discovery_sdram.o
 .debug_frame   0x00003240       0x2c build/GUIConf.o
 .debug_frame   0x0000326c      0x23c build/LCDConf.o
 .debug_frame   0x000034a8       0x80 build/GUI_X.o
 .debug_frame   0x00003528       0x58 build/FramewinDLG.o
 .debug_frame   0x00003580       0x2c c:/vsarm/armcc/bin/../lib/gcc/arm-none-eabi/7.3.1/../../../../arm-none-eabi/lib/thumb/v7e-m/fpv4-sp/hard\libc_nano.a(lib_a-init.o)
 .debug_frame   0x000035ac       0x20 c:/vsarm/armcc/bin/../lib/gcc/arm-none-eabi/7.3.1/../../../../arm-none-eabi/lib/thumb/v7e-m/fpv4-sp/hard\libc_nano.a(lib_a-memset.o)
 .debug_frame   0x000035cc       0x3c c:/vsarm/armcc/bin/../lib/gcc/arm-none-eabi/7.3.1/../../../../arm-none-eabi/lib/thumb/v7e-m/fpv4-sp/hard\libc_nano.a(lib_a-puts.o)
 .debug_frame   0x00003608       0x40 c:/vsarm/armcc/bin/../lib/gcc/arm-none-eabi/7.3.1/../../../../arm-none-eabi/lib/thumb/v7e-m/fpv4-sp/hard\libc_nano.a(lib_a-wbuf.o)
 .debug_frame   0x00003648       0x2c c:/vsarm/armcc/bin/../lib/gcc/arm-none-eabi/7.3.1/../../../../arm-none-eabi/lib/thumb/v7e-m/fpv4-sp/hard\libc_nano.a(lib_a-wsetup.o)
 .debug_frame   0x00003674       0x68 c:/vsarm/armcc/bin/../lib/gcc/arm-none-eabi/7.3.1/../../../../arm-none-eabi/lib/thumb/v7e-m/fpv4-sp/hard\libc_nano.a(lib_a-fflush.o)
 .debug_frame   0x000036dc      0x11c c:/vsarm/armcc/bin/../lib/gcc/arm-none-eabi/7.3.1/../../../../arm-none-eabi/lib/thumb/v7e-m/fpv4-sp/hard\libc_nano.a(lib_a-findfp.o)
 .debug_frame   0x000037f8       0x54 c:/vsarm/armcc/bin/../lib/gcc/arm-none-eabi/7.3.1/../../../../arm-none-eabi/lib/thumb/v7e-m/fpv4-sp/hard\libc_nano.a(lib_a-fwalk.o)
 .debug_frame   0x0000384c       0x58 c:/vsarm/armcc/bin/../lib/gcc/arm-none-eabi/7.3.1/../../../../arm-none-eabi/lib/thumb/v7e-m/fpv4-sp/hard\libc_nano.a(lib_a-makebuf.o)
 .debug_frame   0x000038a4       0x38 c:/vsarm/armcc/bin/../lib/gcc/arm-none-eabi/7.3.1/../../../../arm-none-eabi/lib/thumb/v7e-m/fpv4-sp/hard\libc_nano.a(lib_a-nano-freer.o)
 .debug_frame   0x000038dc       0x2c c:/vsarm/armcc/bin/../lib/gcc/arm-none-eabi/7.3.1/../../../../arm-none-eabi/lib/thumb/v7e-m/fpv4-sp/hard\libc_nano.a(lib_a-nano-mallocr.o)
 .debug_frame   0x00003908       0x2c c:/vsarm/armcc/bin/../lib/gcc/arm-none-eabi/7.3.1/../../../../arm-none-eabi/lib/thumb/v7e-m/fpv4-sp/hard\libc_nano.a(lib_a-sbrkr.o)
 .debug_frame   0x00003934       0x88 c:/vsarm/armcc/bin/../lib/gcc/arm-none-eabi/7.3.1/../../../../arm-none-eabi/lib/thumb/v7e-m/fpv4-sp/hard\libc_nano.a(lib_a-stdio.o)
 .debug_frame   0x000039bc       0x2c c:/vsarm/armcc/bin/../lib/gcc/arm-none-eabi/7.3.1/../../../../arm-none-eabi/lib/thumb/v7e-m/fpv4-sp/hard\libc_nano.a(lib_a-writer.o)
 .debug_frame   0x000039e8       0x2c c:/vsarm/armcc/bin/../lib/gcc/arm-none-eabi/7.3.1/../../../../arm-none-eabi/lib/thumb/v7e-m/fpv4-sp/hard\libc_nano.a(lib_a-closer.o)
 .debug_frame   0x00003a14       0x2c c:/vsarm/armcc/bin/../lib/gcc/arm-none-eabi/7.3.1/../../../../arm-none-eabi/lib/thumb/v7e-m/fpv4-sp/hard\libc_nano.a(lib_a-fstatr.o)
 .debug_frame   0x00003a40       0x2c c:/vsarm/armcc/bin/../lib/gcc/arm-none-eabi/7.3.1/../../../../arm-none-eabi/lib/thumb/v7e-m/fpv4-sp/hard\libc_nano.a(lib_a-isattyr.o)
 .debug_frame   0x00003a6c       0x2c c:/vsarm/armcc/bin/../lib/gcc/arm-none-eabi/7.3.1/../../../../arm-none-eabi/lib/thumb/v7e-m/fpv4-sp/hard\libc_nano.a(lib_a-lseekr.o)
 .debug_frame   0x00003a98       0x30 c:/vsarm/armcc/bin/../lib/gcc/arm-none-eabi/7.3.1/../../../../arm-none-eabi/lib/thumb/v7e-m/fpv4-sp/hard\libc_nano.a(lib_a-mlock.o)
 .debug_frame   0x00003ac8       0x2c c:/vsarm/armcc/bin/../lib/gcc/arm-none-eabi/7.3.1/../../../../arm-none-eabi/lib/thumb/v7e-m/fpv4-sp/hard\libc_nano.a(lib_a-readr.o)
 .debug_frame   0x00003af4       0x5c c:/vsarm/armcc/bin/../lib/gcc/arm-none-eabi/7.3.1/../../../../arm-none-eabi/lib/thumb/v7e-m/fpv4-sp/hard\libc_nano.a(lib_a-reent.o)
 .debug_frame   0x00003b50       0x20 c:/vsarm/armcc/bin/../lib/gcc/arm-none-eabi/7.3.1/../../../../arm-none-eabi/lib/thumb/v7e-m/fpv4-sp/hard\libnosys.a(close.o)
 .debug_frame   0x00003b70       0x20 c:/vsarm/armcc/bin/../lib/gcc/arm-none-eabi/7.3.1/../../../../arm-none-eabi/lib/thumb/v7e-m/fpv4-sp/hard\libnosys.a(fstat.o)
 .debug_frame   0x00003b90       0x20 c:/vsarm/armcc/bin/../lib/gcc/arm-none-eabi/7.3.1/../../../../arm-none-eabi/lib/thumb/v7e-m/fpv4-sp/hard\libnosys.a(isatty.o)
 .debug_frame   0x00003bb0       0x20 c:/vsarm/armcc/bin/../lib/gcc/arm-none-eabi/7.3.1/../../../../arm-none-eabi/lib/thumb/v7e-m/fpv4-sp/hard\libnosys.a(lseek.o)
 .debug_frame   0x00003bd0       0x20 c:/vsarm/armcc/bin/../lib/gcc/arm-none-eabi/7.3.1/../../../../arm-none-eabi/lib/thumb/v7e-m/fpv4-sp/hard\libnosys.a(read.o)
 .debug_frame   0x00003bf0       0x20 c:/vsarm/armcc/bin/../lib/gcc/arm-none-eabi/7.3.1/../../../../arm-none-eabi/lib/thumb/v7e-m/fpv4-sp/hard\libnosys.a(sbrk.o)
 .debug_frame   0x00003c10       0x2c c:/vsarm/armcc/bin/../lib/gcc/arm-none-eabi/7.3.1/thumb/v7e-m/fpv4-sp/hard\libgcc.a(_aeabi_uldivmod.o)
 .debug_frame   0x00003c3c       0x34 c:/vsarm/armcc/bin/../lib/gcc/arm-none-eabi/7.3.1/thumb/v7e-m/fpv4-sp/hard\libgcc.a(_udivmoddi4.o)
 .debug_frame   0x00003c70       0x28 c:/vsarm/armcc/bin/../lib/gcc/arm-none-eabi/7.3.1/../../../../arm-none-eabi/lib/thumb/v7e-m/fpv4-sp/hard\libc_nano.a(lib_a-memcpy-stub.o)
 .debug_frame   0x00003c98       0x28 c:/vsarm/armcc/bin/../lib/gcc/arm-none-eabi/7.3.1/../../../../arm-none-eabi/lib/thumb/v7e-m/fpv4-sp/hard\libc_nano.a(lib_a-memmove.o)
 .debug_frame   0x00003cc0       0x20 c:/vsarm/armcc/bin/../lib/gcc/arm-none-eabi/7.3.1/../../../../arm-none-eabi/lib/thumb/v7e-m/fpv4-sp/hard\libc_nano.a(lib_a-strcpy.o)

.stab           0x00000000       0x84
 .stab          0x00000000       0x24 c:/vsarm/armcc/bin/../lib/gcc/arm-none-eabi/7.3.1/../../../../arm-none-eabi/lib/thumb/v7e-m/fpv4-sp/hard\libnosys.a(close.o)
 .stab          0x00000024       0x18 c:/vsarm/armcc/bin/../lib/gcc/arm-none-eabi/7.3.1/../../../../arm-none-eabi/lib/thumb/v7e-m/fpv4-sp/hard\libnosys.a(fstat.o)
                                 0x24 (size before relaxing)
 .stab          0x0000003c       0x18 c:/vsarm/armcc/bin/../lib/gcc/arm-none-eabi/7.3.1/../../../../arm-none-eabi/lib/thumb/v7e-m/fpv4-sp/hard\libnosys.a(isatty.o)
                                 0x24 (size before relaxing)
 .stab          0x00000054       0x18 c:/vsarm/armcc/bin/../lib/gcc/arm-none-eabi/7.3.1/../../../../arm-none-eabi/lib/thumb/v7e-m/fpv4-sp/hard\libnosys.a(lseek.o)
                                 0x24 (size before relaxing)
 .stab          0x0000006c       0x18 c:/vsarm/armcc/bin/../lib/gcc/arm-none-eabi/7.3.1/../../../../arm-none-eabi/lib/thumb/v7e-m/fpv4-sp/hard\libnosys.a(read.o)
                                 0x24 (size before relaxing)

.stabstr        0x00000000      0x117
 .stabstr       0x00000000      0x117 c:/vsarm/armcc/bin/../lib/gcc/arm-none-eabi/7.3.1/../../../../arm-none-eabi/lib/thumb/v7e-m/fpv4-sp/hard\libnosys.a(close.o)

Cross Reference Table

Symbol                                            File
ADC_IRQHandler                                    build/startup_stm32f746xx.o
AHBPrescTable                                     build/system_stm32f7xx.o
                                                  build/stm32f7xx_hal_rcc.o
APBPrescTable                                     build/system_stm32f7xx.o
                                                  build/stm32f7xx_hal_rcc.o
AUDIO_IO_DeInit                                   build/stm32746g_discovery.o
                                                  build/wm8994.o
AUDIO_IO_Delay                                    build/stm32746g_discovery.o
                                                  build/wm8994.o
AUDIO_IO_Init                                     build/stm32746g_discovery.o
                                                  build/wm8994.o
AUDIO_IO_Read                                     build/stm32746g_discovery.o
                                                  build/wm8994.o
AUDIO_IO_Write                                    build/stm32746g_discovery.o
                                                  build/wm8994.o
BSP_COM_DeInit                                    build/stm32746g_discovery.o
BSP_COM_Init                                      build/stm32746g_discovery.o
BSP_EEPROM_DeInit                                 build/stm32746g_discovery_eeprom.o
BSP_EEPROM_Init                                   build/stm32746g_discovery_eeprom.o
BSP_EEPROM_ReadBuffer                             build/stm32746g_discovery_eeprom.o
BSP_EEPROM_TIMEOUT_UserCallback                   build/stm32746g_discovery_eeprom.o
BSP_EEPROM_WaitEepromStandbyState                 build/stm32746g_discovery_eeprom.o
BSP_EEPROM_WriteBuffer                            build/stm32746g_discovery_eeprom.o
BSP_EEPROM_WritePage                              build/stm32746g_discovery_eeprom.o
BSP_GetVersion                                    build/stm32746g_discovery.o
BSP_LCD_Clear                                     build/stm32746g_discovery_lcd.o
BSP_LCD_ClearStringLine                           build/stm32746g_discovery_lcd.o
BSP_LCD_ClockConfig                               build/stm32746g_discovery_lcd.o
BSP_LCD_DeInit                                    build/stm32746g_discovery_lcd.o
BSP_LCD_DisplayChar                               build/stm32746g_discovery_lcd.o
BSP_LCD_DisplayOff                                build/stm32746g_discovery_lcd.o
BSP_LCD_DisplayOn                                 build/stm32746g_discovery_lcd.o
BSP_LCD_DisplayStringAt                           build/stm32746g_discovery_lcd.o
BSP_LCD_DisplayStringAtLine                       build/stm32746g_discovery_lcd.o
BSP_LCD_DrawBitmap                                build/stm32746g_discovery_lcd.o
BSP_LCD_DrawCircle                                build/stm32746g_discovery_lcd.o
BSP_LCD_DrawEllipse                               build/stm32746g_discovery_lcd.o
BSP_LCD_DrawHLine                                 build/stm32746g_discovery_lcd.o
BSP_LCD_DrawLine                                  build/stm32746g_discovery_lcd.o
BSP_LCD_DrawPixel                                 build/stm32746g_discovery_lcd.o
BSP_LCD_DrawPolygon                               build/stm32746g_discovery_lcd.o
BSP_LCD_DrawRect                                  build/stm32746g_discovery_lcd.o
BSP_LCD_DrawVLine                                 build/stm32746g_discovery_lcd.o
BSP_LCD_FillCircle                                build/stm32746g_discovery_lcd.o
BSP_LCD_FillEllipse                               build/stm32746g_discovery_lcd.o
BSP_LCD_FillPolygon                               build/stm32746g_discovery_lcd.o
BSP_LCD_FillRect                                  build/stm32746g_discovery_lcd.o
BSP_LCD_GetBackColor                              build/stm32746g_discovery_lcd.o
BSP_LCD_GetFont                                   build/stm32746g_discovery_lcd.o
BSP_LCD_GetTextColor                              build/stm32746g_discovery_lcd.o
BSP_LCD_GetXSize                                  build/stm32746g_discovery_lcd.o
BSP_LCD_GetYSize                                  build/stm32746g_discovery_lcd.o
BSP_LCD_Init                                      build/stm32746g_discovery_lcd.o
BSP_LCD_LayerDefaultInit                          build/stm32746g_discovery_lcd.o
BSP_LCD_LayerRgb565Init                           build/stm32746g_discovery_lcd.o
BSP_LCD_MspDeInit                                 build/stm32746g_discovery_lcd.o
BSP_LCD_MspInit                                   build/stm32746g_discovery_lcd.o
BSP_LCD_ReadPixel                                 build/stm32746g_discovery_lcd.o
BSP_LCD_Reload                                    build/stm32746g_discovery_lcd.o
BSP_LCD_ResetColorKeying                          build/stm32746g_discovery_lcd.o
BSP_LCD_ResetColorKeying_NoReload                 build/stm32746g_discovery_lcd.o
BSP_LCD_SelectLayer                               build/stm32746g_discovery_lcd.o
BSP_LCD_SetBackColor                              build/stm32746g_discovery_lcd.o
BSP_LCD_SetColorKeying                            build/stm32746g_discovery_lcd.o
BSP_LCD_SetColorKeying_NoReload                   build/stm32746g_discovery_lcd.o
BSP_LCD_SetFont                                   build/stm32746g_discovery_lcd.o
BSP_LCD_SetLayerAddress                           build/stm32746g_discovery_lcd.o
BSP_LCD_SetLayerAddress_NoReload                  build/stm32746g_discovery_lcd.o
BSP_LCD_SetLayerVisible                           build/stm32746g_discovery_lcd.o
BSP_LCD_SetLayerVisible_NoReload                  build/stm32746g_discovery_lcd.o
BSP_LCD_SetLayerWindow                            build/stm32746g_discovery_lcd.o
BSP_LCD_SetLayerWindow_NoReload                   build/stm32746g_discovery_lcd.o
BSP_LCD_SetTextColor                              build/stm32746g_discovery_lcd.o
BSP_LCD_SetTransparency                           build/stm32746g_discovery_lcd.o
BSP_LCD_SetTransparency_NoReload                  build/stm32746g_discovery_lcd.o
BSP_LCD_SetXSize                                  build/stm32746g_discovery_lcd.o
BSP_LCD_SetYSize                                  build/stm32746g_discovery_lcd.o
BSP_LED_DeInit                                    build/stm32746g_discovery.o
BSP_LED_Init                                      build/stm32746g_discovery.o
                                                  build/main.o
BSP_LED_Off                                       build/stm32746g_discovery.o
BSP_LED_On                                        build/stm32746g_discovery.o
BSP_LED_Toggle                                    build/stm32746g_discovery.o
BSP_PB_DeInit                                     build/stm32746g_discovery.o
BSP_PB_GetState                                   build/stm32746g_discovery.o
BSP_PB_Init                                       build/stm32746g_discovery.o
BSP_SDRAM_DeInit                                  build/stm32746g_discovery_sdram.o
BSP_SDRAM_Init                                    build/stm32746g_discovery_sdram.o
                                                  build/stm32746g_discovery_lcd.o
                                                  build/main.o
BSP_SDRAM_Initialization_sequence                 build/stm32746g_discovery_sdram.o
BSP_SDRAM_MspDeInit                               build/stm32746g_discovery_sdram.o
BSP_SDRAM_MspInit                                 build/stm32746g_discovery_sdram.o
BSP_SDRAM_ReadData                                build/stm32746g_discovery_sdram.o
BSP_SDRAM_ReadData_DMA                            build/stm32746g_discovery_sdram.o
BSP_SDRAM_Sendcmd                                 build/stm32746g_discovery_sdram.o
BSP_SDRAM_WriteData                               build/stm32746g_discovery_sdram.o
BSP_SDRAM_WriteData_DMA                           build/stm32746g_discovery_sdram.o
BSP_TS_DeInit                                     build/stm32746g_discovery_ts.o
BSP_TS_GetState                                   build/stm32746g_discovery_ts.o
BSP_TS_Get_GestureId                              build/stm32746g_discovery_ts.o
BSP_TS_ITClear                                    build/stm32746g_discovery_ts.o
BSP_TS_ITConfig                                   build/stm32746g_discovery_ts.o
BSP_TS_ITGetStatus                                build/stm32746g_discovery_ts.o
BSP_TS_Init                                       build/stm32746g_discovery_ts.o
BSP_TS_ResetTouchData                             build/stm32746g_discovery_ts.o
BUTTON_Callback                                   Middlewares/STemWin/Lib/STemWin_CM7_wc32.a(BUTTON.o)
BUTTON_Create                                     Middlewares/STemWin/Lib/STemWin_CM7_wc32.a(BUTTON.o)
BUTTON_CreateAsChild                              Middlewares/STemWin/Lib/STemWin_CM7_wc32.a(BUTTON.o)
BUTTON_CreateEx                                   Middlewares/STemWin/Lib/STemWin_CM7_wc32.a(BUTTON.o)
BUTTON_CreateIndirect                             Middlewares/STemWin/Lib/STemWin_CM7_wc32.a(BUTTON.o)
                                                  build/FramewinDLG.o
BUTTON_CreateUser                                 Middlewares/STemWin/Lib/STemWin_CM7_wc32.a(BUTTON.o)
BUTTON_DrawSkinFlex                               Middlewares/STemWin/Lib/STemWin_CM7_wc32.a(BUTTON_SkinFlex.o)
                                                  Middlewares/STemWin/Lib/STemWin_CM7_wc32.a(BUTTON.o)
BUTTON_GetBkColor                                 Middlewares/STemWin/Lib/STemWin_CM7_wc32.a(BUTTON.o)
BUTTON_GetFont                                    Middlewares/STemWin/Lib/STemWin_CM7_wc32.a(BUTTON.o)
BUTTON_GetFrameColor                              Middlewares/STemWin/Lib/STemWin_CM7_wc32.a(BUTTON.o)
BUTTON_GetSkinFlexProps                           Middlewares/STemWin/Lib/STemWin_CM7_wc32.a(BUTTON_SkinFlex.o)
BUTTON_GetText                                    Middlewares/STemWin/Lib/STemWin_CM7_wc32.a(BUTTON.o)
BUTTON_GetTextAlign                               Middlewares/STemWin/Lib/STemWin_CM7_wc32.a(BUTTON.o)
BUTTON_GetTextColor                               Middlewares/STemWin/Lib/STemWin_CM7_wc32.a(BUTTON.o)
BUTTON_GetUserData                                Middlewares/STemWin/Lib/STemWin_CM7_wc32.a(BUTTON.o)
BUTTON_GetpWidget                                 Middlewares/STemWin/Lib/STemWin_CM7_wc32.a(BUTTON.o)
BUTTON_IRQn                                       build/stm32746g_discovery.o
BUTTON_IsPressed                                  Middlewares/STemWin/Lib/STemWin_CM7_wc32.a(BUTTON.o)
BUTTON_PIN                                        build/stm32746g_discovery.o
BUTTON_PORT                                       build/stm32746g_discovery.o
BUTTON_SetBkColor                                 Middlewares/STemWin/Lib/STemWin_CM7_wc32.a(BUTTON.o)
BUTTON_SetDefaultSkin                             Middlewares/STemWin/Lib/STemWin_CM7_wc32.a(BUTTON_Skin.o)
BUTTON_SetFocusColor                              Middlewares/STemWin/Lib/STemWin_CM7_wc32.a(BUTTON.o)
BUTTON_SetFont                                    Middlewares/STemWin/Lib/STemWin_CM7_wc32.a(BUTTON.o)
BUTTON_SetFrameColor                              Middlewares/STemWin/Lib/STemWin_CM7_wc32.a(BUTTON.o)
BUTTON_SetPressed                                 Middlewares/STemWin/Lib/STemWin_CM7_wc32.a(BUTTON.o)
BUTTON_SetReactOnLevel                            Middlewares/STemWin/Lib/STemWin_CM7_wc32.a(BUTTON.o)
BUTTON_SetReactOnTouch                            Middlewares/STemWin/Lib/STemWin_CM7_wc32.a(BUTTON.o)
BUTTON_SetSkin                                    Middlewares/STemWin/Lib/STemWin_CM7_wc32.a(BUTTON_Skin.o)
BUTTON_SetSkinFlexProps                           Middlewares/STemWin/Lib/STemWin_CM7_wc32.a(BUTTON_SkinFlex.o)
BUTTON_SetState                                   Middlewares/STemWin/Lib/STemWin_CM7_wc32.a(BUTTON.o)
BUTTON_SetText                                    Middlewares/STemWin/Lib/STemWin_CM7_wc32.a(BUTTON.o)
BUTTON_SetTextAlign                               Middlewares/STemWin/Lib/STemWin_CM7_wc32.a(BUTTON.o)
BUTTON_SetTextColor                               Middlewares/STemWin/Lib/STemWin_CM7_wc32.a(BUTTON.o)
BUTTON_SetTextOffset                              Middlewares/STemWin/Lib/STemWin_CM7_wc32.a(BUTTON.o)
BUTTON_SetUserData                                Middlewares/STemWin/Lib/STemWin_CM7_wc32.a(BUTTON.o)
BUTTON__DefaultProps                              Middlewares/STemWin/Lib/STemWin_CM7_wc32.a(BUTTON.o)
                                                  Middlewares/STemWin/Lib/STemWin_CM7_wc32.a(BUTTON_Skin.o)
BUTTON__Skin                                      Middlewares/STemWin/Lib/STemWin_CM7_wc32.a(BUTTON_Skin.o)
                                                  Middlewares/STemWin/Lib/STemWin_CM7_wc32.a(BUTTON.o)
BUTTON__pSkinDefault                              Middlewares/STemWin/Lib/STemWin_CM7_wc32.a(BUTTON.o)
                                                  Middlewares/STemWin/Lib/STemWin_CM7_wc32.a(BUTTON_Skin.o)
BusFault_Handler                                  build/stm32f7xx_it.o
CAMERA_Delay                                      build/stm32746g_discovery.o
CAMERA_IO_Init                                    build/stm32746g_discovery.o
CAMERA_IO_Read                                    build/stm32746g_discovery.o
CAMERA_IO_Write                                   build/stm32746g_discovery.o
CAN1_RX0_IRQHandler                               build/startup_stm32f746xx.o
CAN1_RX1_IRQHandler                               build/startup_stm32f746xx.o
CAN1_SCE_IRQHandler                               build/startup_stm32f746xx.o
CAN1_TX_IRQHandler                                build/startup_stm32f746xx.o
CAN2_RX0_IRQHandler                               build/startup_stm32f746xx.o
CAN2_RX1_IRQHandler                               build/startup_stm32f746xx.o
CAN2_SCE_IRQHandler                               build/startup_stm32f746xx.o
CAN2_TX_IRQHandler                                build/startup_stm32f746xx.o
CEC_IRQHandler                                    build/startup_stm32f746xx.o
COM_RX_AF                                         build/stm32746g_discovery.o
COM_RX_PIN                                        build/stm32746g_discovery.o
COM_RX_PORT                                       build/stm32746g_discovery.o
COM_TX_AF                                         build/stm32746g_discovery.o
COM_TX_PIN                                        build/stm32746g_discovery.o
COM_TX_PORT                                       build/stm32746g_discovery.o
COM_USART                                         build/stm32746g_discovery.o
CreateFramewin                                    build/FramewinDLG.o
                                                  build/main.o
DCMI_IRQHandler                                   build/startup_stm32f746xx.o
DIALOG_GetBkColor                                 Middlewares/STemWin/Lib/STemWin_CM7_wc32.a(DIALOG.o)
                                                  Middlewares/STemWin/Lib/STemWin_CM7_wc32.a(WIDGET.o)
DIALOG_SetBkColor                                 Middlewares/STemWin/Lib/STemWin_CM7_wc32.a(DIALOG.o)
DMA1_Stream0_IRQHandler                           build/startup_stm32f746xx.o
DMA1_Stream1_IRQHandler                           build/startup_stm32f746xx.o
DMA1_Stream2_IRQHandler                           build/startup_stm32f746xx.o
DMA1_Stream3_IRQHandler                           build/startup_stm32f746xx.o
DMA1_Stream4_IRQHandler                           build/startup_stm32f746xx.o
DMA1_Stream5_IRQHandler                           build/startup_stm32f746xx.o
DMA1_Stream6_IRQHandler                           build/startup_stm32f746xx.o
DMA1_Stream7_IRQHandler                           build/startup_stm32f746xx.o
DMA2D_IRQHandler                                  build/stm32f7xx_it.o
DMA2_Stream0_IRQHandler                           build/startup_stm32f746xx.o
DMA2_Stream1_IRQHandler                           build/startup_stm32f746xx.o
DMA2_Stream2_IRQHandler                           build/startup_stm32f746xx.o
DMA2_Stream3_IRQHandler                           build/startup_stm32f746xx.o
DMA2_Stream4_IRQHandler                           build/startup_stm32f746xx.o
DMA2_Stream5_IRQHandler                           build/startup_stm32f746xx.o
DMA2_Stream6_IRQHandler                           build/startup_stm32f746xx.o
DMA2_Stream7_IRQHandler                           build/startup_stm32f746xx.o
DebugMon_Handler                                  build/stm32f7xx_it.o
Default_Handler                                   build/startup_stm32f746xx.o
EEPROMAddress                                     build/stm32746g_discovery_eeprom.o
EEPROMDataRead                                    build/stm32746g_discovery_eeprom.o
EEPROMDataWrite                                   build/stm32746g_discovery_eeprom.o
EEPROM_IO_Init                                    build/stm32746g_discovery.o
                                                  build/stm32746g_discovery_eeprom.o
EEPROM_IO_IsDeviceReady                           build/stm32746g_discovery.o
                                                  build/stm32746g_discovery_eeprom.o
EEPROM_IO_ReadData                                build/stm32746g_discovery.o
                                                  build/stm32746g_discovery_eeprom.o
EEPROM_IO_WriteData                               build/stm32746g_discovery.o
                                                  build/stm32746g_discovery_eeprom.o
ETH_IRQHandler                                    build/startup_stm32f746xx.o
ETH_WKUP_IRQHandler                               build/startup_stm32f746xx.o
EXTI0_IRQHandler                                  build/startup_stm32f746xx.o
EXTI15_10_IRQHandler                              build/startup_stm32f746xx.o
EXTI1_IRQHandler                                  build/startup_stm32f746xx.o
EXTI2_IRQHandler                                  build/startup_stm32f746xx.o
EXTI3_IRQHandler                                  build/startup_stm32f746xx.o
EXTI4_IRQHandler                                  build/startup_stm32f746xx.o
EXTI9_5_IRQHandler                                build/startup_stm32f746xx.o
Error_Handler                                     build/main.o
FLASH_Erase_Sector                                build/stm32f7xx_hal_flash_ex.o
                                                  build/stm32f7xx_hal_flash.o
FLASH_IRQHandler                                  build/startup_stm32f746xx.o
FLASH_WaitForLastOperation                        build/stm32f7xx_hal_flash.o
                                                  build/stm32f7xx_hal_flash_ex.o
FMC_IRQHandler                                    build/startup_stm32f746xx.o
FMC_NAND_AttributeSpace_Timing_Init               build/stm32f7xx_ll_fmc.o
FMC_NAND_CommonSpace_Timing_Init                  build/stm32f7xx_ll_fmc.o
FMC_NAND_DeInit                                   build/stm32f7xx_ll_fmc.o
FMC_NAND_ECC_Disable                              build/stm32f7xx_ll_fmc.o
FMC_NAND_ECC_Enable                               build/stm32f7xx_ll_fmc.o
FMC_NAND_GetECC                                   build/stm32f7xx_ll_fmc.o
FMC_NAND_Init                                     build/stm32f7xx_ll_fmc.o
FMC_NORSRAM_DeInit                                build/stm32f7xx_ll_fmc.o
FMC_NORSRAM_Extended_Timing_Init                  build/stm32f7xx_ll_fmc.o
FMC_NORSRAM_Init                                  build/stm32f7xx_ll_fmc.o
FMC_NORSRAM_Timing_Init                           build/stm32f7xx_ll_fmc.o
FMC_NORSRAM_WriteOperation_Disable                build/stm32f7xx_ll_fmc.o
FMC_NORSRAM_WriteOperation_Enable                 build/stm32f7xx_ll_fmc.o
FMC_SDRAM_DeInit                                  build/stm32f7xx_ll_fmc.o
                                                  build/stm32f7xx_hal_sdram.o
FMC_SDRAM_GetModeStatus                           build/stm32f7xx_ll_fmc.o
                                                  build/stm32f7xx_hal_sdram.o
FMC_SDRAM_Init                                    build/stm32f7xx_ll_fmc.o
                                                  build/stm32f7xx_hal_sdram.o
FMC_SDRAM_ProgramRefreshRate                      build/stm32f7xx_ll_fmc.o
                                                  build/stm32f7xx_hal_sdram.o
FMC_SDRAM_SendCommand                             build/stm32f7xx_ll_fmc.o
                                                  build/stm32f7xx_hal_sdram.o
FMC_SDRAM_SetAutoRefreshNumber                    build/stm32f7xx_ll_fmc.o
                                                  build/stm32f7xx_hal_sdram.o
FMC_SDRAM_Timing_Init                             build/stm32f7xx_ll_fmc.o
                                                  build/stm32f7xx_hal_sdram.o
FMC_SDRAM_WriteProtection_Disable                 build/stm32f7xx_ll_fmc.o
                                                  build/stm32f7xx_hal_sdram.o
FMC_SDRAM_WriteProtection_Enable                  build/stm32f7xx_ll_fmc.o
                                                  build/stm32f7xx_hal_sdram.o
FPU_IRQHandler                                    build/startup_stm32f746xx.o
FRAMEWIN_Callback                                 Middlewares/STemWin/Lib/STemWin_CM7_wc32.a(FRAMEWIN.o)
FRAMEWIN_Create                                   Middlewares/STemWin/Lib/STemWin_CM7_wc32.a(FRAMEWIN.o)
FRAMEWIN_CreateAsChild                            Middlewares/STemWin/Lib/STemWin_CM7_wc32.a(FRAMEWIN.o)
FRAMEWIN_CreateEx                                 Middlewares/STemWin/Lib/STemWin_CM7_wc32.a(FRAMEWIN.o)
FRAMEWIN_CreateIndirect                           Middlewares/STemWin/Lib/STemWin_CM7_wc32.a(FRAMEWIN.o)
                                                  build/FramewinDLG.o
FRAMEWIN_CreateUser                               Middlewares/STemWin/Lib/STemWin_CM7_wc32.a(FRAMEWIN.o)
FRAMEWIN_DrawSkinFlex                             Middlewares/STemWin/Lib/STemWin_CM7_wc32.a(FRAMEWIN_SkinFlex.o)
                                                  Middlewares/STemWin/Lib/STemWin_CM7_wc32.a(FRAMEWIN_Skin.o)
                                                  Middlewares/STemWin/Lib/STemWin_CM7_wc32.a(FRAMEWIN.o)
FRAMEWIN_GetActive                                Middlewares/STemWin/Lib/STemWin_CM7_wc32.a(FRAMEWIN.o)
                                                  Middlewares/STemWin/Lib/STemWin_CM7_wc32.a(FRAMEWIN_SkinFlex.o)
FRAMEWIN_GetBarColor                              Middlewares/STemWin/Lib/STemWin_CM7_wc32.a(FRAMEWIN.o)
FRAMEWIN_GetBorderSize                            Middlewares/STemWin/Lib/STemWin_CM7_wc32.a(FRAMEWIN.o)
FRAMEWIN_GetBorderSizeEx                          Middlewares/STemWin/Lib/STemWin_CM7_wc32.a(FRAMEWIN.o)
FRAMEWIN_GetFont                                  Middlewares/STemWin/Lib/STemWin_CM7_wc32.a(FRAMEWIN.o)
FRAMEWIN_GetSkinFlexProps                         Middlewares/STemWin/Lib/STemWin_CM7_wc32.a(FRAMEWIN_SkinFlex.o)
FRAMEWIN_GetText                                  Middlewares/STemWin/Lib/STemWin_CM7_wc32.a(FRAMEWIN.o)
FRAMEWIN_GetTextAlign                             Middlewares/STemWin/Lib/STemWin_CM7_wc32.a(FRAMEWIN.o)
FRAMEWIN_GetTitleHeight                           Middlewares/STemWin/Lib/STemWin_CM7_wc32.a(FRAMEWIN.o)
FRAMEWIN_GetUserData                              Middlewares/STemWin/Lib/STemWin_CM7_wc32.a(FRAMEWIN.o)
FRAMEWIN_IsMaximized                              Middlewares/STemWin/Lib/STemWin_CM7_wc32.a(FRAMEWIN.o)
FRAMEWIN_IsMinimized                              Middlewares/STemWin/Lib/STemWin_CM7_wc32.a(FRAMEWIN.o)
FRAMEWIN_SetActive                                Middlewares/STemWin/Lib/STemWin_CM7_wc32.a(FRAMEWIN.o)
FRAMEWIN_SetBarColor                              Middlewares/STemWin/Lib/STemWin_CM7_wc32.a(FRAMEWIN.o)
FRAMEWIN_SetBorderSize                            Middlewares/STemWin/Lib/STemWin_CM7_wc32.a(FRAMEWIN.o)
FRAMEWIN_SetClientColor                           Middlewares/STemWin/Lib/STemWin_CM7_wc32.a(FRAMEWIN.o)
FRAMEWIN_SetDefaultSkin                           Middlewares/STemWin/Lib/STemWin_CM7_wc32.a(FRAMEWIN_Skin.o)
FRAMEWIN_SetFont                                  Middlewares/STemWin/Lib/STemWin_CM7_wc32.a(FRAMEWIN.o)
FRAMEWIN_SetMoveable                              Middlewares/STemWin/Lib/STemWin_CM7_wc32.a(FRAMEWIN.o)
FRAMEWIN_SetOwnerDraw                             Middlewares/STemWin/Lib/STemWin_CM7_wc32.a(FRAMEWIN.o)
FRAMEWIN_SetSkin                                  Middlewares/STemWin/Lib/STemWin_CM7_wc32.a(FRAMEWIN_Skin.o)
FRAMEWIN_SetSkinFlexProps                         Middlewares/STemWin/Lib/STemWin_CM7_wc32.a(FRAMEWIN_SkinFlex.o)
FRAMEWIN_SetText                                  Middlewares/STemWin/Lib/STemWin_CM7_wc32.a(FRAMEWIN.o)
                                                  build/FramewinDLG.o
FRAMEWIN_SetTextAlign                             Middlewares/STemWin/Lib/STemWin_CM7_wc32.a(FRAMEWIN.o)
FRAMEWIN_SetTextColor                             Middlewares/STemWin/Lib/STemWin_CM7_wc32.a(FRAMEWIN.o)
FRAMEWIN_SetTextColorEx                           Middlewares/STemWin/Lib/STemWin_CM7_wc32.a(FRAMEWIN.o)
FRAMEWIN_SetTitleHeight                           Middlewares/STemWin/Lib/STemWin_CM7_wc32.a(FRAMEWIN.o)
FRAMEWIN_SetTitleVis                              Middlewares/STemWin/Lib/STemWin_CM7_wc32.a(FRAMEWIN.o)
FRAMEWIN_SetUserData                              Middlewares/STemWin/Lib/STemWin_CM7_wc32.a(FRAMEWIN.o)
FRAMEWIN__CalcPositions                           Middlewares/STemWin/Lib/STemWin_CM7_wc32.a(FRAMEWIN.o)
FRAMEWIN__CalcTitleHeight                         Middlewares/STemWin/Lib/STemWin_CM7_wc32.a(FRAMEWIN.o)
                                                  Middlewares/STemWin/Lib/STemWin_CM7_wc32.a(FRAMEWIN__UpdateButtons.o)
                                                  Middlewares/STemWin/Lib/STemWin_CM7_wc32.a(FRAMEWIN_Skin.o)
FRAMEWIN__DefaultProps                            Middlewares/STemWin/Lib/STemWin_CM7_wc32.a(FRAMEWIN.o)
                                                  Middlewares/STemWin/Lib/STemWin_CM7_wc32.a(FRAMEWIN_Skin.o)
FRAMEWIN__GetBorderSize                           Middlewares/STemWin/Lib/STemWin_CM7_wc32.a(FRAMEWIN.o)
FRAMEWIN__GetTitleLimits                          Middlewares/STemWin/Lib/STemWin_CM7_wc32.a(FRAMEWIN.o)
                                                  Middlewares/STemWin/Lib/STemWin_CM7_wc32.a(FRAMEWIN_Skin.o)
FRAMEWIN__Skin                                    Middlewares/STemWin/Lib/STemWin_CM7_wc32.a(FRAMEWIN_Skin.o)
                                                  Middlewares/STemWin/Lib/STemWin_CM7_wc32.a(FRAMEWIN.o)
FRAMEWIN__UpdateButtons                           Middlewares/STemWin/Lib/STemWin_CM7_wc32.a(FRAMEWIN__UpdateButtons.o)
                                                  Middlewares/STemWin/Lib/STemWin_CM7_wc32.a(FRAMEWIN_Skin.o)
                                                  Middlewares/STemWin/Lib/STemWin_CM7_wc32.a(FRAMEWIN.o)
FRAMEWIN__UpdatePositions                         Middlewares/STemWin/Lib/STemWin_CM7_wc32.a(FRAMEWIN.o)
                                                  Middlewares/STemWin/Lib/STemWin_CM7_wc32.a(FRAMEWIN_Skin.o)
FRAMEWIN__pSkinDefault                            Middlewares/STemWin/Lib/STemWin_CM7_wc32.a(FRAMEWIN.o)
                                                  Middlewares/STemWin/Lib/STemWin_CM7_wc32.a(FRAMEWIN_Skin.o)
Font12                                            build/stm32746g_discovery_lcd.o
Font12_Table                                      build/stm32746g_discovery_lcd.o
Font16                                            build/stm32746g_discovery_lcd.o
Font16_Table                                      build/stm32746g_discovery_lcd.o
Font20                                            build/stm32746g_discovery_lcd.o
Font20_Table                                      build/stm32746g_discovery_lcd.o
Font24                                            build/stm32746g_discovery_lcd.o
Font24_Table                                      build/stm32746g_discovery_lcd.o
Font8                                             build/stm32746g_discovery_lcd.o
Font8_Table                                       build/stm32746g_discovery_lcd.o
GL_DispChar                                       Middlewares/STemWin/Lib/STemWin_CM7_wc32.a(GUI_Char.o)
                                                  Middlewares/STemWin/Lib/STemWin_CM7_wc32.a(GUI_DispChar.o)
GL_DrawArc                                        Middlewares/STemWin/Lib/STemWin_CM7_wc32.a(GUI_Arc.o)
                                                  Middlewares/STemWin/Lib/STemWin_CM7_wc32.a(GUI_DrawLib.o)
GL_DrawBitmap                                     Middlewares/STemWin/Lib/STemWin_CM7_wc32.a(GUI_DrawBitmap.o)
GL_DrawCircle                                     Middlewares/STemWin/Lib/STemWin_CM7_wc32.a(GUI_Circ.o)
GL_DrawEllipse                                    Middlewares/STemWin/Lib/STemWin_CM7_wc32.a(GUI_Circ.o)
GL_DrawLine                                       Middlewares/STemWin/Lib/STemWin_CM7_wc32.a(GUI_DrawLine.o)
GL_DrawLine1                                      Middlewares/STemWin/Lib/STemWin_CM7_wc32.a(GUI_DrawLine.o)
GL_DrawLine1Ex                                    Middlewares/STemWin/Lib/STemWin_CM7_wc32.a(GUI_DrawLine.o)
GL_DrawLineEx                                     Middlewares/STemWin/Lib/STemWin_CM7_wc32.a(GUI_DrawLine.o)
GL_DrawLineTo                                     Middlewares/STemWin/Lib/STemWin_CM7_wc32.a(GUI_DrawLine.o)
                                                  Middlewares/STemWin/Lib/STemWin_CM7_wc32.a(GUI_DrawLib.o)
GL_DrawLineToEx                                   Middlewares/STemWin/Lib/STemWin_CM7_wc32.a(GUI_DrawLine.o)
                                                  Middlewares/STemWin/Lib/STemWin_CM7_wc32.a(GUI_DrawLib.o)
GL_DrawPoint                                      Middlewares/STemWin/Lib/STemWin_CM7_wc32.a(GUI_DrawLib.o)
                                                  Middlewares/STemWin/Lib/STemWin_CM7_wc32.a(GUI_DrawLine.o)
GL_DrawPolygon                                    Middlewares/STemWin/Lib/STemWin_CM7_wc32.a(GUI_DrawLib.o)
GL_FillCircle                                     Middlewares/STemWin/Lib/STemWin_CM7_wc32.a(GUI_Circ.o)
                                                  Middlewares/STemWin/Lib/STemWin_CM7_wc32.a(GUI_DrawLib.o)
GL_FillEllipse                                    Middlewares/STemWin/Lib/STemWin_CM7_wc32.a(GUI_Circ.o)
GL_FillPolygon                                    Middlewares/STemWin/Lib/STemWin_CM7_wc32.a(GUI_FillPolygon.o)
                                                  Middlewares/STemWin/Lib/STemWin_CM7_wc32.a(GUI_DrawLine.o)
GL_MoveTo                                         Middlewares/STemWin/Lib/STemWin_CM7_wc32.a(GUI_2DLib.o)
                                                  Middlewares/STemWin/Lib/STemWin_CM7_wc32.a(GUI_DrawLine.o)
                                                  Middlewares/STemWin/Lib/STemWin_CM7_wc32.a(GUI_DrawLib.o)
GL_SetDefault                                     Middlewares/STemWin/Lib/STemWin_CM7_wc32.a(GUI_Common.o)
                                                  Middlewares/STemWin/Lib/STemWin_CM7_wc32.a(WM.o)
GPIO_PIN                                          build/stm32746g_discovery.o
GUICC_M8888I_SetCustColorConv                     Middlewares/STemWin/Lib/STemWin_CM7_wc32.a(GUICC_M8888I.o)
GUIDRV_Lin_32_API                                 Middlewares/STemWin/Lib/STemWin_CM7_wc32.a(GUIDRV_Lin_32.o)
                                                  build/LCDConf.o
GUIMONO_DispChar                                  Middlewares/STemWin/Lib/STemWin_CM7_wc32.a(GUI_CharM.o)
                                                  Middlewares/STemWin/Lib/STemWin_CM7_wc32.a(F6x8.o)
GUIMONO_GetCharDistX                              Middlewares/STemWin/Lib/STemWin_CM7_wc32.a(GUI_CharM.o)
                                                  Middlewares/STemWin/Lib/STemWin_CM7_wc32.a(F6x8.o)
GUIMONO_GetFontInfo                               Middlewares/STemWin/Lib/STemWin_CM7_wc32.a(GUI_CharM.o)
                                                  Middlewares/STemWin/Lib/STemWin_CM7_wc32.a(F6x8.o)
GUIMONO_IsInFont                                  Middlewares/STemWin/Lib/STemWin_CM7_wc32.a(GUI_CharM.o)
                                                  Middlewares/STemWin/Lib/STemWin_CM7_wc32.a(F6x8.o)
GUIPROP_DispChar                                  Middlewares/STemWin/Lib/STemWin_CM7_wc32.a(GUI_CharP.o)
                                                  Middlewares/STemWin/Lib/STemWin_CM7_wc32.a(F13_ASCII.o)
                                                  Middlewares/STemWin/Lib/STemWin_CM7_wc32.a(F13_1.o)
GUIPROP_GetCharDistX                              Middlewares/STemWin/Lib/STemWin_CM7_wc32.a(GUI_CharP.o)
                                                  Middlewares/STemWin/Lib/STemWin_CM7_wc32.a(F13_ASCII.o)
                                                  Middlewares/STemWin/Lib/STemWin_CM7_wc32.a(F13_1.o)
GUIPROP_GetFontInfo                               Middlewares/STemWin/Lib/STemWin_CM7_wc32.a(GUI_CharP.o)
                                                  Middlewares/STemWin/Lib/STemWin_CM7_wc32.a(F13_ASCII.o)
                                                  Middlewares/STemWin/Lib/STemWin_CM7_wc32.a(F13_1.o)
GUIPROP_IsInFont                                  Middlewares/STemWin/Lib/STemWin_CM7_wc32.a(GUI_CharP.o)
                                                  Middlewares/STemWin/Lib/STemWin_CM7_wc32.a(F13_ASCII.o)
                                                  Middlewares/STemWin/Lib/STemWin_CM7_wc32.a(F13_1.o)
GUIPROP__FindChar                                 Middlewares/STemWin/Lib/STemWin_CM7_wc32.a(GUI_CharP.o)
GUI_AA__ClipX0                                    Middlewares/STemWin/Lib/STemWin_CM7_wc32.a(GUI_Core.o)
                                                  Middlewares/STemWin/Lib/STemWin_CM7_wc32.a(GUIDEV_StaticDevices.o)
GUI_ALLOC_AllocInit                               Middlewares/STemWin/Lib/STemWin_CM7_wc32.a(GUI_Alloc.o)
GUI_ALLOC_AllocNoInit                             Middlewares/STemWin/Lib/STemWin_CM7_wc32.a(GUI_Alloc.o)
                                                  Middlewares/STemWin/Lib/STemWin_CM7_wc32.a(GUIDEV_WriteToActiveOpaque.o)
                                                  Middlewares/STemWin/Lib/STemWin_CM7_wc32.a(GUIDEV.o)
                                                  Middlewares/STemWin/Lib/STemWin_CM7_wc32.a(GUI_SPRITE.o)
                                                  Middlewares/STemWin/Lib/STemWin_CM7_wc32.a(GUI__Private.o)
GUI_ALLOC_AllocZero                               Middlewares/STemWin/Lib/STemWin_CM7_wc32.a(GUI_Alloc.o)
                                                  Middlewares/STemWin/Lib/STemWin_CM7_wc32.a(GUIDEV_UsageBM.o)
                                                  Middlewares/STemWin/Lib/STemWin_CM7_wc32.a(GUIDEV.o)
                                                  Middlewares/STemWin/Lib/STemWin_CM7_wc32.a(GUI_Timer.o)
                                                  Middlewares/STemWin/Lib/STemWin_CM7_wc32.a(GUI_SPRITE_Anim.o)
                                                  Middlewares/STemWin/Lib/STemWin_CM7_wc32.a(GUI_SPRITE.o)
                                                  Middlewares/STemWin/Lib/STemWin_CM7_wc32.a(TEXT.o)
                                                  Middlewares/STemWin/Lib/STemWin_CM7_wc32.a(MULTIEDIT.o)
                                                  Middlewares/STemWin/Lib/STemWin_CM7_wc32.a(WM_Timer.o)
                                                  Middlewares/STemWin/Lib/STemWin_CM7_wc32.a(WM.o)
GUI_ALLOC_AssignMemory                            Middlewares/STemWin/Lib/STemWin_CM7_wc32.a(GUI_Alloc.o)
                                                  build/GUIConf.o
GUI_ALLOC_Exit                                    Middlewares/STemWin/Lib/STemWin_CM7_wc32.a(GUI_Alloc.o)
                                                  Middlewares/STemWin/Lib/STemWin_CM7_wc32.a(GUI_Core.o)
GUI_ALLOC_Free                                    Middlewares/STemWin/Lib/STemWin_CM7_wc32.a(GUI_Alloc.o)
                                                  Middlewares/STemWin/Lib/STemWin_CM7_wc32.a(GUIDEV_WriteToActiveOpaque.o)
                                                  Middlewares/STemWin/Lib/STemWin_CM7_wc32.a(GUIDEV_UsageBM.o)
                                                  Middlewares/STemWin/Lib/STemWin_CM7_wc32.a(GUIDEV.o)
                                                  Middlewares/STemWin/Lib/STemWin_CM7_wc32.a(GUI_Timer.o)
                                                  Middlewares/STemWin/Lib/STemWin_CM7_wc32.a(GUI_SPRITE.o)
                                                  Middlewares/STemWin/Lib/STemWin_CM7_wc32.a(WM_Timer.o)
                                                  Middlewares/STemWin/Lib/STemWin_CM7_wc32.a(WM.o)
                                                  Middlewares/STemWin/Lib/STemWin_CM7_wc32.a(GUIDEV_Usage.o)
GUI_ALLOC_FreeFixedBlock                          Middlewares/STemWin/Lib/STemWin_CM7_wc32.a(GUI_Alloc.o)
                                                  Middlewares/STemWin/Lib/STemWin_CM7_wc32.a(GUI_SetAlpha.o)
                                                  Middlewares/STemWin/Lib/STemWin_CM7_wc32.a(GUI__Alpha.o)
                                                  Middlewares/STemWin/Lib/STemWin_CM7_wc32.a(GUI_SPRITE.o)
                                                  Middlewares/STemWin/Lib/STemWin_CM7_wc32.a(LCD_Color.o)
                                                  Middlewares/STemWin/Lib/STemWin_CM7_wc32.a(GUI_Device.o)
GUI_ALLOC_FreePtr                                 Middlewares/STemWin/Lib/STemWin_CM7_wc32.a(GUI_Alloc.o)
                                                  Middlewares/STemWin/Lib/STemWin_CM7_wc32.a(TEXT.o)
                                                  Middlewares/STemWin/Lib/STemWin_CM7_wc32.a(MULTIEDIT.o)
                                                  Middlewares/STemWin/Lib/STemWin_CM7_wc32.a(FRAMEWIN.o)
                                                  Middlewares/STemWin/Lib/STemWin_CM7_wc32.a(BUTTON.o)
                                                  Middlewares/STemWin/Lib/STemWin_CM7_wc32.a(GUI__Private.o)
GUI_ALLOC_FreePtrArray                            Middlewares/STemWin/Lib/STemWin_CM7_wc32.a(GUI_Alloc.o)
                                                  Middlewares/STemWin/Lib/STemWin_CM7_wc32.a(BUTTON.o)
GUI_ALLOC_GetFixedBlock                           Middlewares/STemWin/Lib/STemWin_CM7_wc32.a(GUI_Alloc.o)
                                                  Middlewares/STemWin/Lib/STemWin_CM7_wc32.a(GUI_SetAlpha.o)
                                                  Middlewares/STemWin/Lib/STemWin_CM7_wc32.a(GUI__Alpha.o)
                                                  Middlewares/STemWin/Lib/STemWin_CM7_wc32.a(GUIDRV_Lin_32.o)
                                                  Middlewares/STemWin/Lib/STemWin_CM7_wc32.a(LCD_Color.o)
                                                  Middlewares/STemWin/Lib/STemWin_CM7_wc32.a(GUI_Device.o)
GUI_ALLOC_GetMaxSize                              Middlewares/STemWin/Lib/STemWin_CM7_wc32.a(GUI_Alloc.o)
                                                  Middlewares/STemWin/Lib/STemWin_CM7_wc32.a(GUI_SPRITE.o)
GUI_ALLOC_GetMaxUsedBytes                         Middlewares/STemWin/Lib/STemWin_CM7_wc32.a(GUI_Alloc.o)
GUI_ALLOC_GetMemInfo                              Middlewares/STemWin/Lib/STemWin_CM7_wc32.a(GUI_Alloc.o)
GUI_ALLOC_GetNumFreeBlocks                        Middlewares/STemWin/Lib/STemWin_CM7_wc32.a(GUI_Alloc.o)
GUI_ALLOC_GetNumFreeBytes                         Middlewares/STemWin/Lib/STemWin_CM7_wc32.a(GUI_Alloc.o)
GUI_ALLOC_GetNumUsedBlocks                        Middlewares/STemWin/Lib/STemWin_CM7_wc32.a(GUI_Alloc.o)
GUI_ALLOC_GetNumUsedBytes                         Middlewares/STemWin/Lib/STemWin_CM7_wc32.a(GUI_Alloc.o)
GUI_ALLOC_GetSize                                 Middlewares/STemWin/Lib/STemWin_CM7_wc32.a(GUI_Alloc.o)
                                                  Middlewares/STemWin/Lib/STemWin_CM7_wc32.a(WM_UserData.o)
                                                  Middlewares/STemWin/Lib/STemWin_CM7_wc32.a(GUI__Private.o)
GUI_ALLOC_Lock                                    Middlewares/STemWin/Lib/STemWin_CM7_wc32.a(GUI_Alloc.o)
GUI_ALLOC_LockH                                   Middlewares/STemWin/Lib/STemWin_CM7_wc32.a(GUI_Alloc.o)
                                                  Middlewares/STemWin/Lib/STemWin_CM7_wc32.a(GUIDEV_GetXSize.o)
                                                  Middlewares/STemWin/Lib/STemWin_CM7_wc32.a(GUIDEV_GetPos.o)
                                                  Middlewares/STemWin/Lib/STemWin_CM7_wc32.a(WM_UserData.o)
                                                  Middlewares/STemWin/Lib/STemWin_CM7_wc32.a(WM_SetTrans.o)
                                                  Middlewares/STemWin/Lib/STemWin_CM7_wc32.a(WM_SetScrollbar.o)
                                                  Middlewares/STemWin/Lib/STemWin_CM7_wc32.a(WM_Screen2Win.o)
                                                  Middlewares/STemWin/Lib/STemWin_CM7_wc32.a(WM_Hide.o)
                                                  Middlewares/STemWin/Lib/STemWin_CM7_wc32.a(WM_GetWindowSize.o)
                                                  Middlewares/STemWin/Lib/STemWin_CM7_wc32.a(WM_BringToTop.o)
                                                  Middlewares/STemWin/Lib/STemWin_CM7_wc32.a(GUIDEV_WriteToActiveOpaque.o)
                                                  Middlewares/STemWin/Lib/STemWin_CM7_wc32.a(GUIDEV_Write.o)
                                                  Middlewares/STemWin/Lib/STemWin_CM7_wc32.a(GUIDEV_UsageBM.o)
                                                  Middlewares/STemWin/Lib/STemWin_CM7_wc32.a(GUIDEV_StaticDevices.o)
                                                  Middlewares/STemWin/Lib/STemWin_CM7_wc32.a(GUIDEV_SetOrg.o)
                                                  Middlewares/STemWin/Lib/STemWin_CM7_wc32.a(GUIDEV_ReduceYSize.o)
                                                  Middlewares/STemWin/Lib/STemWin_CM7_wc32.a(GUIDEV_GetYSize.o)
                                                  Middlewares/STemWin/Lib/STemWin_CM7_wc32.a(GUIDEV_GetDataPtr.o)
                                                  Middlewares/STemWin/Lib/STemWin_CM7_wc32.a(GUIDEV_Clear.o)
                                                  Middlewares/STemWin/Lib/STemWin_CM7_wc32.a(GUIDEV.o)
                                                  Middlewares/STemWin/Lib/STemWin_CM7_wc32.a(GUI_Timer.o)
                                                  Middlewares/STemWin/Lib/STemWin_CM7_wc32.a(GUI_SPRITE_Anim.o)
                                                  Middlewares/STemWin/Lib/STemWin_CM7_wc32.a(GUI_SPRITE.o)
                                                  Middlewares/STemWin/Lib/STemWin_CM7_wc32.a(WIDGET.o)
                                                  Middlewares/STemWin/Lib/STemWin_CM7_wc32.a(TEXT.o)
                                                  Middlewares/STemWin/Lib/STemWin_CM7_wc32.a(SCROLLBAR_SkinFlex.o)
                                                  Middlewares/STemWin/Lib/STemWin_CM7_wc32.a(SCROLLBAR_Skin.o)
                                                  Middlewares/STemWin/Lib/STemWin_CM7_wc32.a(SCROLLBAR.o)
                                                  Middlewares/STemWin/Lib/STemWin_CM7_wc32.a(MULTIEDIT.o)
                                                  Middlewares/STemWin/Lib/STemWin_CM7_wc32.a(GUI_DRAW.o)
                                                  Middlewares/STemWin/Lib/STemWin_CM7_wc32.a(FRAMEWIN__UpdateButtons.o)
                                                  Middlewares/STemWin/Lib/STemWin_CM7_wc32.a(FRAMEWIN_SkinFlex.o)
                                                  Middlewares/STemWin/Lib/STemWin_CM7_wc32.a(FRAMEWIN_Skin.o)
                                                  Middlewares/STemWin/Lib/STemWin_CM7_wc32.a(FRAMEWIN.o)
                                                  Middlewares/STemWin/Lib/STemWin_CM7_wc32.a(BUTTON_SkinFlex.o)
                                                  Middlewares/STemWin/Lib/STemWin_CM7_wc32.a(BUTTON_Skin.o)
                                                  Middlewares/STemWin/Lib/STemWin_CM7_wc32.a(BUTTON.o)
                                                  Middlewares/STemWin/Lib/STemWin_CM7_wc32.a(WM__Private.o)
                                                  Middlewares/STemWin/Lib/STemWin_CM7_wc32.a(WM_Touch.o)
                                                  Middlewares/STemWin/Lib/STemWin_CM7_wc32.a(WM_Timer.o)
                                                  Middlewares/STemWin/Lib/STemWin_CM7_wc32.a(WM_Move.o)
                                                  Middlewares/STemWin/Lib/STemWin_CM7_wc32.a(WM_Lib.o)
                                                  Middlewares/STemWin/Lib/STemWin_CM7_wc32.a(WM.o)
                                                  Middlewares/STemWin/Lib/STemWin_CM7_wc32.a(GUIDEV_WriteToActiveAlpha.o)
                                                  Middlewares/STemWin/Lib/STemWin_CM7_wc32.a(GUIDEV_Usage.o)
                                                  Middlewares/STemWin/Lib/STemWin_CM7_wc32.a(GUIDEV_32.o)
                                                  Middlewares/STemWin/Lib/STemWin_CM7_wc32.a(GUI__Private.o)
GUI_ALLOC_Realloc                                 Middlewares/STemWin/Lib/STemWin_CM7_wc32.a(GUI_Alloc.o)
                                                  Middlewares/STemWin/Lib/STemWin_CM7_wc32.a(MULTIEDIT.o)
GUI_ALLOC_RequestSize                             Middlewares/STemWin/Lib/STemWin_CM7_wc32.a(GUI_Alloc.o)
                                                  Middlewares/STemWin/Lib/STemWin_CM7_wc32.a(GUIDEV.o)
GUI_ALLOC_SetAvBlockSize                          Middlewares/STemWin/Lib/STemWin_CM7_wc32.a(GUI_Alloc.o)
GUI_ALLOC_SetMaxPercentage                        Middlewares/STemWin/Lib/STemWin_CM7_wc32.a(GUI_Alloc.o)
GUI_ALLOC_SuppressPeak                            Middlewares/STemWin/Lib/STemWin_CM7_wc32.a(GUI_Alloc.o)
GUI_ALLOC_Unlock                                  Middlewares/STemWin/Lib/STemWin_CM7_wc32.a(GUI_Alloc.o)
GUI_ALLOC_UnlockH                                 Middlewares/STemWin/Lib/STemWin_CM7_wc32.a(GUI_Alloc.o)
                                                  Middlewares/STemWin/Lib/STemWin_CM7_wc32.a(GUIDEV_GetXSize.o)
                                                  Middlewares/STemWin/Lib/STemWin_CM7_wc32.a(GUIDEV_GetPos.o)
                                                  Middlewares/STemWin/Lib/STemWin_CM7_wc32.a(WM_UserData.o)
                                                  Middlewares/STemWin/Lib/STemWin_CM7_wc32.a(WM_SetTrans.o)
                                                  Middlewares/STemWin/Lib/STemWin_CM7_wc32.a(WM_SetScrollbar.o)
                                                  Middlewares/STemWin/Lib/STemWin_CM7_wc32.a(WM_Screen2Win.o)
                                                  Middlewares/STemWin/Lib/STemWin_CM7_wc32.a(WM_Hide.o)
                                                  Middlewares/STemWin/Lib/STemWin_CM7_wc32.a(WM_GetWindowSize.o)
                                                  Middlewares/STemWin/Lib/STemWin_CM7_wc32.a(WM_BringToTop.o)
                                                  Middlewares/STemWin/Lib/STemWin_CM7_wc32.a(GUIDEV_WriteToActiveOpaque.o)
                                                  Middlewares/STemWin/Lib/STemWin_CM7_wc32.a(GUIDEV_Write.o)
                                                  Middlewares/STemWin/Lib/STemWin_CM7_wc32.a(GUIDEV_UsageBM.o)
                                                  Middlewares/STemWin/Lib/STemWin_CM7_wc32.a(GUIDEV_StaticDevices.o)
                                                  Middlewares/STemWin/Lib/STemWin_CM7_wc32.a(GUIDEV_SetOrg.o)
                                                  Middlewares/STemWin/Lib/STemWin_CM7_wc32.a(GUIDEV_ReduceYSize.o)
                                                  Middlewares/STemWin/Lib/STemWin_CM7_wc32.a(GUIDEV_GetYSize.o)
                                                  Middlewares/STemWin/Lib/STemWin_CM7_wc32.a(GUIDEV_GetDataPtr.o)
                                                  Middlewares/STemWin/Lib/STemWin_CM7_wc32.a(GUIDEV_Clear.o)
                                                  Middlewares/STemWin/Lib/STemWin_CM7_wc32.a(GUIDEV.o)
                                                  Middlewares/STemWin/Lib/STemWin_CM7_wc32.a(GUI_Timer.o)
                                                  Middlewares/STemWin/Lib/STemWin_CM7_wc32.a(GUI_SPRITE_Anim.o)
                                                  Middlewares/STemWin/Lib/STemWin_CM7_wc32.a(GUI_SPRITE.o)
                                                  Middlewares/STemWin/Lib/STemWin_CM7_wc32.a(WIDGET.o)
                                                  Middlewares/STemWin/Lib/STemWin_CM7_wc32.a(TEXT.o)
                                                  Middlewares/STemWin/Lib/STemWin_CM7_wc32.a(SCROLLBAR_SkinFlex.o)
                                                  Middlewares/STemWin/Lib/STemWin_CM7_wc32.a(SCROLLBAR_Skin.o)
                                                  Middlewares/STemWin/Lib/STemWin_CM7_wc32.a(SCROLLBAR.o)
                                                  Middlewares/STemWin/Lib/STemWin_CM7_wc32.a(MULTIEDIT.o)
                                                  Middlewares/STemWin/Lib/STemWin_CM7_wc32.a(GUI_DRAW.o)
                                                  Middlewares/STemWin/Lib/STemWin_CM7_wc32.a(FRAMEWIN__UpdateButtons.o)
                                                  Middlewares/STemWin/Lib/STemWin_CM7_wc32.a(FRAMEWIN_SkinFlex.o)
                                                  Middlewares/STemWin/Lib/STemWin_CM7_wc32.a(FRAMEWIN_Skin.o)
                                                  Middlewares/STemWin/Lib/STemWin_CM7_wc32.a(FRAMEWIN.o)
                                                  Middlewares/STemWin/Lib/STemWin_CM7_wc32.a(BUTTON_SkinFlex.o)
                                                  Middlewares/STemWin/Lib/STemWin_CM7_wc32.a(BUTTON_Skin.o)
                                                  Middlewares/STemWin/Lib/STemWin_CM7_wc32.a(BUTTON.o)
                                                  Middlewares/STemWin/Lib/STemWin_CM7_wc32.a(WM__Private.o)
                                                  Middlewares/STemWin/Lib/STemWin_CM7_wc32.a(WM_Touch.o)
                                                  Middlewares/STemWin/Lib/STemWin_CM7_wc32.a(WM_Timer.o)
                                                  Middlewares/STemWin/Lib/STemWin_CM7_wc32.a(WM_Move.o)
                                                  Middlewares/STemWin/Lib/STemWin_CM7_wc32.a(WM_Lib.o)
                                                  Middlewares/STemWin/Lib/STemWin_CM7_wc32.a(WM.o)
                                                  Middlewares/STemWin/Lib/STemWin_CM7_wc32.a(GUIDEV_WriteToActiveAlpha.o)
                                                  Middlewares/STemWin/Lib/STemWin_CM7_wc32.a(GUIDEV_Usage.o)
                                                  Middlewares/STemWin/Lib/STemWin_CM7_wc32.a(GUIDEV_32.o)
                                                  Middlewares/STemWin/Lib/STemWin_CM7_wc32.a(GUI__Private.o)
GUI_ALLOC__Context                                Middlewares/STemWin/Lib/STemWin_CM7_wc32.a(GUI_Alloc.o)
GUI_ALLOC_h2p                                     Middlewares/STemWin/Lib/STemWin_CM7_wc32.a(GUI_Alloc.o)
                                                  Middlewares/STemWin/Lib/STemWin_CM7_wc32.a(WM_SetTrans.o)
                                                  Middlewares/STemWin/Lib/STemWin_CM7_wc32.a(WM_SetFocusOnNextChild.o)
                                                  Middlewares/STemWin/Lib/STemWin_CM7_wc32.a(WM_Screen2Win.o)
                                                  Middlewares/STemWin/Lib/STemWin_CM7_wc32.a(WM_MemDev.o)
                                                  Middlewares/STemWin/Lib/STemWin_CM7_wc32.a(GUIDEV_StaticDevices.o)
                                                  Middlewares/STemWin/Lib/STemWin_CM7_wc32.a(DIALOG.o)
                                                  Middlewares/STemWin/Lib/STemWin_CM7_wc32.a(WM__Private.o)
                                                  Middlewares/STemWin/Lib/STemWin_CM7_wc32.a(WM_Timer.o)
                                                  Middlewares/STemWin/Lib/STemWin_CM7_wc32.a(WM_Lib.o)
                                                  Middlewares/STemWin/Lib/STemWin_CM7_wc32.a(WM.o)
GUI_ALLOC_p2h                                     Middlewares/STemWin/Lib/STemWin_CM7_wc32.a(GUI_Alloc.o)
GUI_AddBin                                        Middlewares/STemWin/Lib/STemWin_CM7_wc32.a(GUI_Common.o)
GUI_AddDecShift                                   Middlewares/STemWin/Lib/STemWin_CM7_wc32.a(GUI_Common.o)
                                                  Middlewares/STemWin/Lib/STemWin_CM7_wc32.a(TEXT.o)
GUI_AddHex                                        Middlewares/STemWin/Lib/STemWin_CM7_wc32.a(GUI_Common.o)
                                                  Middlewares/STemWin/Lib/STemWin_CM7_wc32.a(GUI__Private.o)
GUI_AddRect                                       Middlewares/STemWin/Lib/STemWin_CM7_wc32.a(GUI_Common.o)
GUI_AddSign                                       Middlewares/STemWin/Lib/STemWin_CM7_wc32.a(GUI_Common.o)
                                                  Middlewares/STemWin/Lib/STemWin_CM7_wc32.a(TEXT.o)
GUI_AssignCursorLayer                             Middlewares/STemWin/Lib/STemWin_CM7_wc32.a(GUI_SelectLayer.o)
GUI_CURSOR_GetState                               Middlewares/STemWin/Lib/STemWin_CM7_wc32.a(GUI_Cursor.o)
GUI_CURSOR_GetStateEx                             Middlewares/STemWin/Lib/STemWin_CM7_wc32.a(GUI_Cursor.o)
GUI_CURSOR_Hide                                   Middlewares/STemWin/Lib/STemWin_CM7_wc32.a(GUI_Cursor.o)
GUI_CURSOR_HideEx                                 Middlewares/STemWin/Lib/STemWin_CM7_wc32.a(GUI_Cursor.o)
GUI_CURSOR_Select                                 Middlewares/STemWin/Lib/STemWin_CM7_wc32.a(GUI_Cursor.o)
GUI_CURSOR_SelectAnim                             Middlewares/STemWin/Lib/STemWin_CM7_wc32.a(GUI_Cursor.o)
GUI_CURSOR_SelectAnimEx                           Middlewares/STemWin/Lib/STemWin_CM7_wc32.a(GUI_Cursor.o)
GUI_CURSOR_SelectEx                               Middlewares/STemWin/Lib/STemWin_CM7_wc32.a(GUI_Cursor.o)
GUI_CURSOR_SetBitmap                              Middlewares/STemWin/Lib/STemWin_CM7_wc32.a(GUI_Cursor.o)
GUI_CURSOR_SetBitmapEx                            Middlewares/STemWin/Lib/STemWin_CM7_wc32.a(GUI_Cursor.o)
GUI_CURSOR_SetPosition                            Middlewares/STemWin/Lib/STemWin_CM7_wc32.a(GUI_Cursor.o)
GUI_CURSOR_SetPositionEx                          Middlewares/STemWin/Lib/STemWin_CM7_wc32.a(GUI_Cursor.o)
                                                  Middlewares/STemWin/Lib/STemWin_CM7_wc32.a(WM_Touch.o)
GUI_CURSOR_Show                                   Middlewares/STemWin/Lib/STemWin_CM7_wc32.a(GUI_Cursor.o)
GUI_CURSOR_ShowEx                                 Middlewares/STemWin/Lib/STemWin_CM7_wc32.a(GUI_Cursor.o)
GUI_CURSOR__GetSpriteEx                           Middlewares/STemWin/Lib/STemWin_CM7_wc32.a(GUI_Cursor.o)
GUI_CURSOR__SetSpriteEx                           Middlewares/STemWin/Lib/STemWin_CM7_wc32.a(GUI_Cursor.o)
GUI_CalcColorDist                                 Middlewares/STemWin/Lib/STemWin_CM7_wc32.a(GUI_Common.o)
                                                  Middlewares/STemWin/Lib/STemWin_CM7_wc32.a(GUICC_0.o)
GUI_CalcVisColorError                             Middlewares/STemWin/Lib/STemWin_CM7_wc32.a(GUI_Common.o)
GUI_CharLine_pfLog2Vis                            Middlewares/STemWin/Lib/STemWin_CM7_wc32.a(GUI_CharLine.o)
GUI_Clear                                         Middlewares/STemWin/Lib/STemWin_CM7_wc32.a(GUI_Core.o)
                                                  Middlewares/STemWin/Lib/STemWin_CM7_wc32.a(GUI_Cursor.o)
                                                  Middlewares/STemWin/Lib/STemWin_CM7_wc32.a(TEXT.o)
                                                  Middlewares/STemWin/Lib/STemWin_CM7_wc32.a(MULTIEDIT.o)
                                                  Middlewares/STemWin/Lib/STemWin_CM7_wc32.a(FRAMEWIN.o)
                                                  Middlewares/STemWin/Lib/STemWin_CM7_wc32.a(WM.o)
GUI_ClearKeyBuffer                                Middlewares/STemWin/Lib/STemWin_CM7_wc32.a(GUI_OnKey.o)
GUI_ClearRect                                     Middlewares/STemWin/Lib/STemWin_CM7_wc32.a(GUI_Core.o)
                                                  Middlewares/STemWin/Lib/STemWin_CM7_wc32.a(WIDGET.o)
                                                  Middlewares/STemWin/Lib/STemWin_CM7_wc32.a(GUI_Common.o)
GUI_ClearRectEx                                   Middlewares/STemWin/Lib/STemWin_CM7_wc32.a(GUI_Core.o)
                                                  Middlewares/STemWin/Lib/STemWin_CM7_wc32.a(WIDGET.o)
GUI_Color2Index                                   Middlewares/STemWin/Lib/STemWin_CM7_wc32.a(GUI_Common.o)
GUI_Color2VisColor                                Middlewares/STemWin/Lib/STemWin_CM7_wc32.a(GUI_Common.o)
GUI_ColorIsAvailable                              Middlewares/STemWin/Lib/STemWin_CM7_wc32.a(GUI_Common.o)
GUI_CreateDialogBox                               Middlewares/STemWin/Lib/STemWin_CM7_wc32.a(DIALOG.o)
                                                  build/FramewinDLG.o
GUI_CursorAnimHourglassM                          Middlewares/STemWin/Lib/STemWin_CM7_wc32.a(GUI_CursorResource.o)
GUI_CursorArrowL                                  Middlewares/STemWin/Lib/STemWin_CM7_wc32.a(GUI_CursorResource.o)
GUI_CursorArrowLI                                 Middlewares/STemWin/Lib/STemWin_CM7_wc32.a(GUI_CursorResource.o)
GUI_CursorArrowM                                  Middlewares/STemWin/Lib/STemWin_CM7_wc32.a(GUI_CursorResource.o)
                                                  Middlewares/STemWin/Lib/STemWin_CM7_wc32.a(GUI_Cursor.o)
GUI_CursorArrowMI                                 Middlewares/STemWin/Lib/STemWin_CM7_wc32.a(GUI_CursorResource.o)
GUI_CursorArrowS                                  Middlewares/STemWin/Lib/STemWin_CM7_wc32.a(GUI_CursorResource.o)
GUI_CursorArrowSI                                 Middlewares/STemWin/Lib/STemWin_CM7_wc32.a(GUI_CursorResource.o)
GUI_CursorCrossL                                  Middlewares/STemWin/Lib/STemWin_CM7_wc32.a(GUI_CursorResource.o)
GUI_CursorCrossLI                                 Middlewares/STemWin/Lib/STemWin_CM7_wc32.a(GUI_CursorResource.o)
GUI_CursorCrossM                                  Middlewares/STemWin/Lib/STemWin_CM7_wc32.a(GUI_CursorResource.o)
GUI_CursorCrossMI                                 Middlewares/STemWin/Lib/STemWin_CM7_wc32.a(GUI_CursorResource.o)
GUI_CursorCrossS                                  Middlewares/STemWin/Lib/STemWin_CM7_wc32.a(GUI_CursorResource.o)
GUI_CursorCrossSI                                 Middlewares/STemWin/Lib/STemWin_CM7_wc32.a(GUI_CursorResource.o)
GUI_CursorHeaderM                                 Middlewares/STemWin/Lib/STemWin_CM7_wc32.a(GUI_CursorResource.o)
GUI_CursorHeaderMI                                Middlewares/STemWin/Lib/STemWin_CM7_wc32.a(GUI_CursorResource.o)
GUI_DCACHE_Clear                                  Middlewares/STemWin/Lib/STemWin_CM7_wc32.a(GUI_Core.o)
                                                  Middlewares/STemWin/Lib/STemWin_CM7_wc32.a(GUI_MULTIBUF.o)
GUI_DCACHE_SetClearCacheHook                      Middlewares/STemWin/Lib/STemWin_CM7_wc32.a(GUI_Core.o)
GUI_DCACHE__pfClearCacheHook                      Middlewares/STemWin/Lib/STemWin_CM7_wc32.a(GUI_Core.o)
GUI_DEVICE_Create                                 Middlewares/STemWin/Lib/STemWin_CM7_wc32.a(GUI_Device.o)
                                                  Middlewares/STemWin/Lib/STemWin_CM7_wc32.a(GUI_SetAlpha.o)
                                                  Middlewares/STemWin/Lib/STemWin_CM7_wc32.a(GUIDEV.o)
                                                  Middlewares/STemWin/Lib/STemWin_CM7_wc32.a(GUI_SPRITE.o)
GUI_DEVICE_CreateAndLink                          Middlewares/STemWin/Lib/STemWin_CM7_wc32.a(GUI_Device.o)
                                                  build/LCDConf.o
GUI_DEVICE_Delete                                 Middlewares/STemWin/Lib/STemWin_CM7_wc32.a(GUI_Device.o)
                                                  Middlewares/STemWin/Lib/STemWin_CM7_wc32.a(GUI_SetAlpha.o)
                                                  Middlewares/STemWin/Lib/STemWin_CM7_wc32.a(GUIDEV.o)
                                                  Middlewares/STemWin/Lib/STemWin_CM7_wc32.a(GUI_SPRITE.o)
GUI_DEVICE_Link                                   Middlewares/STemWin/Lib/STemWin_CM7_wc32.a(GUI_Device.o)
                                                  Middlewares/STemWin/Lib/STemWin_CM7_wc32.a(GUI_SetAlpha.o)
                                                  Middlewares/STemWin/Lib/STemWin_CM7_wc32.a(GUIDEV.o)
                                                  Middlewares/STemWin/Lib/STemWin_CM7_wc32.a(GUI_SPRITE.o)
GUI_DEVICE_LinkDevices                            Middlewares/STemWin/Lib/STemWin_CM7_wc32.a(GUI_Device.o)
GUI_DEVICE_Unlink                                 Middlewares/STemWin/Lib/STemWin_CM7_wc32.a(GUI_Device.o)
                                                  Middlewares/STemWin/Lib/STemWin_CM7_wc32.a(GUI_SetAlpha.o)
                                                  Middlewares/STemWin/Lib/STemWin_CM7_wc32.a(GUI_SPRITE.o)
                                                  Middlewares/STemWin/Lib/STemWin_CM7_wc32.a(LCD_SelectLCD.o)
GUI_DEVICE_UnlinkTaskDevices                      Middlewares/STemWin/Lib/STemWin_CM7_wc32.a(GUI_Device.o)
GUI_DEVICE__GetpDevice                            Middlewares/STemWin/Lib/STemWin_CM7_wc32.a(GUI_Device.o)
                                                  Middlewares/STemWin/Lib/STemWin_CM7_wc32.a(GUI_SetAlpha.o)
GUI_DEVICE__GetpDriver                            Middlewares/STemWin/Lib/STemWin_CM7_wc32.a(GUI_Device.o)
                                                  Middlewares/STemWin/Lib/STemWin_CM7_wc32.a(GUIDEV.o)
                                                  Middlewares/STemWin/Lib/STemWin_CM7_wc32.a(GUI__ManageCache.o)
                                                  Middlewares/STemWin/Lib/STemWin_CM7_wc32.a(GUI_SPRITE.o)
                                                  Middlewares/STemWin/Lib/STemWin_CM7_wc32.a(WM_Touch.o)
                                                  Middlewares/STemWin/Lib/STemWin_CM7_wc32.a(WM.o)
                                                  Middlewares/STemWin/Lib/STemWin_CM7_wc32.a(LCD_Set.o)
                                                  Middlewares/STemWin/Lib/STemWin_CM7_wc32.a(LCD_GetNumDisplays.o)
                                                  Middlewares/STemWin/Lib/STemWin_CM7_wc32.a(LCD_GetEx.o)
                                                  Middlewares/STemWin/Lib/STemWin_CM7_wc32.a(LCD_Color.o)
                                                  Middlewares/STemWin/Lib/STemWin_CM7_wc32.a(LCD.o)
                                                  Middlewares/STemWin/Lib/STemWin_CM7_wc32.a(GUI_SelectLayer.o)
                                                  Middlewares/STemWin/Lib/STemWin_CM7_wc32.a(GUI_MULTIBUF.o)
GUI_DRAW__Draw                                    Middlewares/STemWin/Lib/STemWin_CM7_wc32.a(GUI_DRAW.o)
                                                  Middlewares/STemWin/Lib/STemWin_CM7_wc32.a(BUTTON_SkinFlex.o)
GUI_DRAW__GetXSize                                Middlewares/STemWin/Lib/STemWin_CM7_wc32.a(GUI_DRAW.o)
GUI_DRAW__GetYSize                                Middlewares/STemWin/Lib/STemWin_CM7_wc32.a(GUI_DRAW.o)
GUI_DecChar                                       Middlewares/STemWin/Lib/STemWin_CM7_wc32.a(GUI_Core.o)
                                                  Middlewares/STemWin/Lib/STemWin_CM7_wc32.a(GUI_Common.o)
GUI_Delay                                         Middlewares/STemWin/Lib/STemWin_CM7_wc32.a(GUI_Time.o)
                                                  build/main.o
GUI_DispBin                                       Middlewares/STemWin/Lib/STemWin_CM7_wc32.a(GUI_Common.o)
GUI_DispBinAt                                     Middlewares/STemWin/Lib/STemWin_CM7_wc32.a(GUI_Common.o)
GUI_DispCEOL                                      Middlewares/STemWin/Lib/STemWin_CM7_wc32.a(GUI_Common.o)
                                                  Middlewares/STemWin/Lib/STemWin_CM7_wc32.a(GUI_DispString.o)
GUI_DispChar                                      Middlewares/STemWin/Lib/STemWin_CM7_wc32.a(GUI_DispChar.o)
                                                  Middlewares/STemWin/Lib/STemWin_CM7_wc32.a(GUI_DispString.o)
GUI_DispCharAt                                    Middlewares/STemWin/Lib/STemWin_CM7_wc32.a(GUI_DispChar.o)
                                                  Middlewares/STemWin/Lib/STemWin_CM7_wc32.a(MULTIEDIT.o)
GUI_DispChars                                     Middlewares/STemWin/Lib/STemWin_CM7_wc32.a(GUI_DispChar.o)
                                                  Middlewares/STemWin/Lib/STemWin_CM7_wc32.a(MULTIEDIT.o)
GUI_DispHex                                       Middlewares/STemWin/Lib/STemWin_CM7_wc32.a(GUI_Common.o)
GUI_DispHexAt                                     Middlewares/STemWin/Lib/STemWin_CM7_wc32.a(GUI_Common.o)
GUI_DispNextLine                                  Middlewares/STemWin/Lib/STemWin_CM7_wc32.a(GUI_Char.o)
GUI_DispString                                    Middlewares/STemWin/Lib/STemWin_CM7_wc32.a(GUI_DispString.o)
                                                  Middlewares/STemWin/Lib/STemWin_CM7_wc32.a(GUI_Common.o)
GUI_DispStringAt                                  Middlewares/STemWin/Lib/STemWin_CM7_wc32.a(GUI_DispString.o)
                                                  Middlewares/STemWin/Lib/STemWin_CM7_wc32.a(WIDGET.o)
                                                  Middlewares/STemWin/Lib/STemWin_CM7_wc32.a(GUI_Common.o)
                                                  build/main.o
GUI_DispStringAtCEOL                              Middlewares/STemWin/Lib/STemWin_CM7_wc32.a(GUI_DispString.o)
GUI_DispStringHCenterAt                           Middlewares/STemWin/Lib/STemWin_CM7_wc32.a(GUI_DispString.o)
GUI_DispStringInRect                              Middlewares/STemWin/Lib/STemWin_CM7_wc32.a(GUI_DispString.o)
                                                  Middlewares/STemWin/Lib/STemWin_CM7_wc32.a(FRAMEWIN_SkinFlex.o)
                                                  Middlewares/STemWin/Lib/STemWin_CM7_wc32.a(BUTTON_SkinFlex.o)
GUI_DispStringInRectEx                            Middlewares/STemWin/Lib/STemWin_CM7_wc32.a(GUI_DispStringInRectEx.o)
                                                  Middlewares/STemWin/Lib/STemWin_CM7_wc32.a(GUI_DispString.o)
GUI_DispStringInRectMax                           Middlewares/STemWin/Lib/STemWin_CM7_wc32.a(GUI_DispString.o)
                                                  Middlewares/STemWin/Lib/STemWin_CM7_wc32.a(MULTIEDIT.o)
                                                  Middlewares/STemWin/Lib/STemWin_CM7_wc32.a(GUI_DispStringInRectEx.o)
GUI_DispStringInRectWrap                          Middlewares/STemWin/Lib/STemWin_CM7_wc32.a(GUI_DispString.o)
                                                  Middlewares/STemWin/Lib/STemWin_CM7_wc32.a(TEXT.o)
GUI_DispStringInRectWrapEx                        Middlewares/STemWin/Lib/STemWin_CM7_wc32.a(GUI_DispString.o)
GUI_DispStringLen                                 Middlewares/STemWin/Lib/STemWin_CM7_wc32.a(GUI_DispString.o)
GUI_DrawArc                                       Middlewares/STemWin/Lib/STemWin_CM7_wc32.a(GUI_Arc.o)
GUI_DrawBitmap                                    Middlewares/STemWin/Lib/STemWin_CM7_wc32.a(GUI_DrawBitmap.o)
                                                  Middlewares/STemWin/Lib/STemWin_CM7_wc32.a(GUI_Cursor.o)
GUI_DrawBitmapExp                                 Middlewares/STemWin/Lib/STemWin_CM7_wc32.a(GUI_DrawLib.o)
GUI_DrawBitmapHWAlpha                             Middlewares/STemWin/Lib/STemWin_CM7_wc32.a(GUI_DrawLib.o)
GUI_DrawBitmapMag                                 Middlewares/STemWin/Lib/STemWin_CM7_wc32.a(GUI_DrawLib.o)
GUI_DrawCircle                                    Middlewares/STemWin/Lib/STemWin_CM7_wc32.a(GUI_Circ.o)
GUI_DrawEllipse                                   Middlewares/STemWin/Lib/STemWin_CM7_wc32.a(GUI_Circ.o)
GUI_DrawFocusRect                                 Middlewares/STemWin/Lib/STemWin_CM7_wc32.a(GUI_DrawLib.o)
                                                  Middlewares/STemWin/Lib/STemWin_CM7_wc32.a(WIDGET.o)
GUI_DrawGradientH                                 Middlewares/STemWin/Lib/STemWin_CM7_wc32.a(GUI_DrawGradient.o)
                                                  Middlewares/STemWin/Lib/STemWin_CM7_wc32.a(SCROLLBAR_SkinFlex.o)
GUI_DrawGradientV                                 Middlewares/STemWin/Lib/STemWin_CM7_wc32.a(GUI_DrawGradient.o)
                                                  Middlewares/STemWin/Lib/STemWin_CM7_wc32.a(SCROLLBAR_SkinFlex.o)
                                                  Middlewares/STemWin/Lib/STemWin_CM7_wc32.a(FRAMEWIN_SkinFlex.o)
                                                  Middlewares/STemWin/Lib/STemWin_CM7_wc32.a(BUTTON_SkinFlex.o)
GUI_DrawHLine                                     Middlewares/STemWin/Lib/STemWin_CM7_wc32.a(GUI_DrawLib.o)
                                                  Middlewares/STemWin/Lib/STemWin_CM7_wc32.a(WIDGET.o)
                                                  Middlewares/STemWin/Lib/STemWin_CM7_wc32.a(SCROLLBAR_SkinFlex.o)
                                                  Middlewares/STemWin/Lib/STemWin_CM7_wc32.a(FRAMEWIN_SkinFlex.o)
                                                  Middlewares/STemWin/Lib/STemWin_CM7_wc32.a(BUTTON_SkinFlex.o)
GUI_DrawLine                                      Middlewares/STemWin/Lib/STemWin_CM7_wc32.a(GUI_DrawLine.o)
GUI_DrawLineRel                                   Middlewares/STemWin/Lib/STemWin_CM7_wc32.a(GUI_DrawLine.o)
GUI_DrawLineTo                                    Middlewares/STemWin/Lib/STemWin_CM7_wc32.a(GUI_DrawLine.o)
GUI_DrawPie                                       Middlewares/STemWin/Lib/STemWin_CM7_wc32.a(GUI_DrawLib.o)
GUI_DrawPixel                                     Middlewares/STemWin/Lib/STemWin_CM7_wc32.a(GUI_DrawLib.o)
                                                  Middlewares/STemWin/Lib/STemWin_CM7_wc32.a(SCROLLBAR_SkinFlex.o)
                                                  Middlewares/STemWin/Lib/STemWin_CM7_wc32.a(FRAMEWIN_SkinFlex.o)
GUI_DrawPoint                                     Middlewares/STemWin/Lib/STemWin_CM7_wc32.a(GUI_DrawLib.o)
GUI_DrawPolyLine                                  Middlewares/STemWin/Lib/STemWin_CM7_wc32.a(GUI_DrawLib.o)
GUI_DrawPolygon                                   Middlewares/STemWin/Lib/STemWin_CM7_wc32.a(GUI_DrawLib.o)
GUI_DrawRect                                      Middlewares/STemWin/Lib/STemWin_CM7_wc32.a(GUI_2DLib.o)
                                                  Middlewares/STemWin/Lib/STemWin_CM7_wc32.a(WIDGET_Effect_Simple.o)
                                                  Middlewares/STemWin/Lib/STemWin_CM7_wc32.a(BUTTON_SkinFlex.o)
GUI_DrawRectEx                                    Middlewares/STemWin/Lib/STemWin_CM7_wc32.a(GUI_2DLib.o)
GUI_DrawVLine                                     Middlewares/STemWin/Lib/STemWin_CM7_wc32.a(GUI_DrawLib.o)
                                                  Middlewares/STemWin/Lib/STemWin_CM7_wc32.a(WIDGET.o)
                                                  Middlewares/STemWin/Lib/STemWin_CM7_wc32.a(SCROLLBAR_SkinFlex.o)
                                                  Middlewares/STemWin/Lib/STemWin_CM7_wc32.a(FRAMEWIN_SkinFlex.o)
                                                  Middlewares/STemWin/Lib/STemWin_CM7_wc32.a(BUTTON_SkinFlex.o)
GUI_EndDialog                                     Middlewares/STemWin/Lib/STemWin_CM7_wc32.a(DIALOG.o)
GUI_Exec                                          Middlewares/STemWin/Lib/STemWin_CM7_wc32.a(GUI_Common.o)
                                                  Middlewares/STemWin/Lib/STemWin_CM7_wc32.a(DIALOG.o)
                                                  Middlewares/STemWin/Lib/STemWin_CM7_wc32.a(GUI_Time.o)
                                                  build/main.o
GUI_Exec1                                         Middlewares/STemWin/Lib/STemWin_CM7_wc32.a(GUI_Common.o)
GUI_ExecCreatedDialog                             Middlewares/STemWin/Lib/STemWin_CM7_wc32.a(DIALOG.o)
GUI_ExecDialogBox                                 Middlewares/STemWin/Lib/STemWin_CM7_wc32.a(DIALOG.o)
GUI_Exit                                          Middlewares/STemWin/Lib/STemWin_CM7_wc32.a(GUI_Core.o)
GUI_FillCircle                                    Middlewares/STemWin/Lib/STemWin_CM7_wc32.a(GUI_Circ.o)
GUI_FillEllipse                                   Middlewares/STemWin/Lib/STemWin_CM7_wc32.a(GUI_Circ.o)
GUI_FillPolygon                                   Middlewares/STemWin/Lib/STemWin_CM7_wc32.a(GUI_FillPolygon.o)
GUI_FillRect                                      Middlewares/STemWin/Lib/STemWin_CM7_wc32.a(GUI_DrawLib.o)
                                                  Middlewares/STemWin/Lib/STemWin_CM7_wc32.a(FRAMEWIN_SkinFlex.o)
                                                  Middlewares/STemWin/Lib/STemWin_CM7_wc32.a(BUTTON_SkinFlex.o)
GUI_FillRectEx                                    Middlewares/STemWin/Lib/STemWin_CM7_wc32.a(GUI_DrawLib.o)
                                                  Middlewares/STemWin/Lib/STemWin_CM7_wc32.a(WIDGET.o)
                                                  Middlewares/STemWin/Lib/STemWin_CM7_wc32.a(FRAMEWIN_SkinFlex.o)
GUI_Font13ASCII_Prop1                             Middlewares/STemWin/Lib/STemWin_CM7_wc32.a(F13_ASCII.o)
                                                  Middlewares/STemWin/Lib/STemWin_CM7_wc32.a(F13_1.o)
GUI_Font13_1                                      Middlewares/STemWin/Lib/STemWin_CM7_wc32.a(F13_1.o)
                                                  Middlewares/STemWin/Lib/STemWin_CM7_wc32.a(TEXT.o)
                                                  Middlewares/STemWin/Lib/STemWin_CM7_wc32.a(MULTIEDIT.o)
                                                  Middlewares/STemWin/Lib/STemWin_CM7_wc32.a(FRAMEWIN.o)
                                                  Middlewares/STemWin/Lib/STemWin_CM7_wc32.a(BUTTON.o)
GUI_Font13_ASCII                                  Middlewares/STemWin/Lib/STemWin_CM7_wc32.a(F13_ASCII.o)
GUI_Font6x8                                       Middlewares/STemWin/Lib/STemWin_CM7_wc32.a(F6x8.o)
                                                  Middlewares/STemWin/Lib/STemWin_CM7_wc32.a(GUI_Core.o)
GUI_Font6x9                                       Middlewares/STemWin/Lib/STemWin_CM7_wc32.a(F6x8.o)
GUI_GetBitmapPixelColor                           Middlewares/STemWin/Lib/STemWin_CM7_wc32.a(GUI_Common.o)
GUI_GetBitmapPixelIndex                           Middlewares/STemWin/Lib/STemWin_CM7_wc32.a(GUI_Common.o)
                                                  Middlewares/STemWin/Lib/STemWin_CM7_wc32.a(GUI_SPRITE.o)
GUI_GetBitmapPixelIndexEx                         Middlewares/STemWin/Lib/STemWin_CM7_wc32.a(GUI_Common.o)
                                                  Middlewares/STemWin/Lib/STemWin_CM7_wc32.a(GUI_SPRITE.o)
GUI_GetBitsPerPixelEx                             Middlewares/STemWin/Lib/STemWin_CM7_wc32.a(LCD_GetEx.o)
                                                  Middlewares/STemWin/Lib/STemWin_CM7_wc32.a(GUIDEV_WriteToActiveOpaque.o)
                                                  Middlewares/STemWin/Lib/STemWin_CM7_wc32.a(LCD_ReadRect.o)
                                                  Middlewares/STemWin/Lib/STemWin_CM7_wc32.a(GUI__Alpha.o)
GUI_GetBkColor                                    Middlewares/STemWin/Lib/STemWin_CM7_wc32.a(GUI_Common.o)
                                                  Middlewares/STemWin/Lib/STemWin_CM7_wc32.a(GUI_CharP.o)
                                                  Middlewares/STemWin/Lib/STemWin_CM7_wc32.a(WIDGET.o)
                                                  Middlewares/STemWin/Lib/STemWin_CM7_wc32.a(GUI_DispStringInRectEx.o)
GUI_GetBkColorIndex                               Middlewares/STemWin/Lib/STemWin_CM7_wc32.a(GUI_Common.o)
GUI_GetCharDistX                                  Middlewares/STemWin/Lib/STemWin_CM7_wc32.a(GUI_Char.o)
                                                  Middlewares/STemWin/Lib/STemWin_CM7_wc32.a(GUI__GetCursorPos.o)
                                                  Middlewares/STemWin/Lib/STemWin_CM7_wc32.a(GUI_DispChar.o)
                                                  Middlewares/STemWin/Lib/STemWin_CM7_wc32.a(GUI_CharLine.o)
                                                  Middlewares/STemWin/Lib/STemWin_CM7_wc32.a(MULTIEDIT.o)
                                                  Middlewares/STemWin/Lib/STemWin_CM7_wc32.a(GUI__Wrap.o)
GUI_GetCharDistXEx                                Middlewares/STemWin/Lib/STemWin_CM7_wc32.a(GUI_Char.o)
                                                  Middlewares/STemWin/Lib/STemWin_CM7_wc32.a(GUI_CharLine.o)
GUI_GetClientRect                                 Middlewares/STemWin/Lib/STemWin_CM7_wc32.a(GUI_Common.o)
                                                  Middlewares/STemWin/Lib/STemWin_CM7_wc32.a(BUTTON_SkinFlex.o)
                                                  Middlewares/STemWin/Lib/STemWin_CM7_wc32.a(GUI_DispString.o)
GUI_GetColor                                      Middlewares/STemWin/Lib/STemWin_CM7_wc32.a(GUI_Common.o)
                                                  Middlewares/STemWin/Lib/STemWin_CM7_wc32.a(GUI_CharP.o)
                                                  Middlewares/STemWin/Lib/STemWin_CM7_wc32.a(GUI_DrawGradient.o)
                                                  Middlewares/STemWin/Lib/STemWin_CM7_wc32.a(GUI_DispStringInRectEx.o)
GUI_GetColorIndex                                 Middlewares/STemWin/Lib/STemWin_CM7_wc32.a(GUI_Common.o)
GUI_GetCursorLayer                                Middlewares/STemWin/Lib/STemWin_CM7_wc32.a(GUI_SelectLayer.o)
                                                  Middlewares/STemWin/Lib/STemWin_CM7_wc32.a(GUI_Cursor.o)
GUI_GetDecChar                                    Middlewares/STemWin/Lib/STemWin_CM7_wc32.a(GUI_Common.o)
GUI_GetDefaultBkColor                             Middlewares/STemWin/Lib/STemWin_CM7_wc32.a(GUI_Core.o)
GUI_GetDefaultColor                               Middlewares/STemWin/Lib/STemWin_CM7_wc32.a(GUI_Core.o)
GUI_GetDefaultFont                                Middlewares/STemWin/Lib/STemWin_CM7_wc32.a(GUI_Core.o)
GUI_GetDialogStatusPtr                            Middlewares/STemWin/Lib/STemWin_CM7_wc32.a(DIALOG.o)
GUI_GetDispPosX                                   Middlewares/STemWin/Lib/STemWin_CM7_wc32.a(GUI_Common.o)
GUI_GetDispPosY                                   Middlewares/STemWin/Lib/STemWin_CM7_wc32.a(GUI_Common.o)
GUI_GetDrawMode                                   Middlewares/STemWin/Lib/STemWin_CM7_wc32.a(GUI_Common.o)
                                                  build/LCDConf.o
GUI_GetFont                                       Middlewares/STemWin/Lib/STemWin_CM7_wc32.a(GUI_Common.o)
GUI_GetFontDistY                                  Middlewares/STemWin/Lib/STemWin_CM7_wc32.a(GUI_Char.o)
                                                  Middlewares/STemWin/Lib/STemWin_CM7_wc32.a(MULTIEDIT.o)
                                                  Middlewares/STemWin/Lib/STemWin_CM7_wc32.a(GUI__Private.o)
                                                  Middlewares/STemWin/Lib/STemWin_CM7_wc32.a(GUI_DispString.o)
GUI_GetFontInfo                                   Middlewares/STemWin/Lib/STemWin_CM7_wc32.a(GUI_Common.o)
GUI_GetFontSizeY                                  Middlewares/STemWin/Lib/STemWin_CM7_wc32.a(GUI_Common.o)
                                                  Middlewares/STemWin/Lib/STemWin_CM7_wc32.a(GUI_DispChar.o)
GUI_GetKey                                        Middlewares/STemWin/Lib/STemWin_CM7_wc32.a(GUI_OnKey.o)
                                                  Middlewares/STemWin/Lib/STemWin_CM7_wc32.a(GUI_Common.o)
GUI_GetKeyState                                   Middlewares/STemWin/Lib/STemWin_CM7_wc32.a(GUI_OnKey.o)
GUI_GetLayerPosEx                                 Middlewares/STemWin/Lib/STemWin_CM7_wc32.a(GUI_SelectLayer.o)
                                                  Middlewares/STemWin/Lib/STemWin_CM7_wc32.a(WM_Touch.o)
                                                  build/LCDConf.o
GUI_GetLineStyle                                  Middlewares/STemWin/Lib/STemWin_CM7_wc32.a(GUI_Common.o)
GUI_GetOrg                                        Middlewares/STemWin/Lib/STemWin_CM7_wc32.a(GUI_Common.o)
                                                  Middlewares/STemWin/Lib/STemWin_CM7_wc32.a(GUIDEV_Banding.o)
GUI_GetPenShape                                   Middlewares/STemWin/Lib/STemWin_CM7_wc32.a(GUI_Common.o)
GUI_GetPenSize                                    Middlewares/STemWin/Lib/STemWin_CM7_wc32.a(GUI_Common.o)
                                                  Middlewares/STemWin/Lib/STemWin_CM7_wc32.a(GUI_Circ.o)
                                                  Middlewares/STemWin/Lib/STemWin_CM7_wc32.a(GUI_DrawLib.o)
GUI_GetPixelIndex                                 Middlewares/STemWin/Lib/STemWin_CM7_wc32.a(LCD_GetP.o)
GUI_GetScreenSizeX                                Middlewares/STemWin/Lib/STemWin_CM7_wc32.a(GUI_Common.o)
GUI_GetScreenSizeY                                Middlewares/STemWin/Lib/STemWin_CM7_wc32.a(GUI_Common.o)
GUI_GetSelLayer                                   Middlewares/STemWin/Lib/STemWin_CM7_wc32.a(GUI_SelectLayer.o)
GUI_GetStringDistX                                Middlewares/STemWin/Lib/STemWin_CM7_wc32.a(GUI_DispString.o)
                                                  Middlewares/STemWin/Lib/STemWin_CM7_wc32.a(GUI__Private.o)
GUI_GetTextAlign                                  Middlewares/STemWin/Lib/STemWin_CM7_wc32.a(GUI_Common.o)
GUI_GetTextExtend                                 Middlewares/STemWin/Lib/STemWin_CM7_wc32.a(GUI_Common.o)
GUI_GetTextMode                                   Middlewares/STemWin/Lib/STemWin_CM7_wc32.a(GUI_Common.o)
GUI_GetTime                                       Middlewares/STemWin/Lib/STemWin_CM7_wc32.a(GUI_Time.o)
                                                  Middlewares/STemWin/Lib/STemWin_CM7_wc32.a(GUI_Timer.o)
                                                  Middlewares/STemWin/Lib/STemWin_CM7_wc32.a(WM_Timer.o)
GUI_GetTimeSlice                                  Middlewares/STemWin/Lib/STemWin_CM7_wc32.a(GUI_Time.o)
GUI_GetVersionString                              Middlewares/STemWin/Lib/STemWin_CM7_wc32.a(GUI_Common.o)
                                                  Middlewares/STemWin/Lib/STemWin_CM7_wc32.a(GUI_Core.o)
GUI_GetYAdjust                                    Middlewares/STemWin/Lib/STemWin_CM7_wc32.a(GUI_Char.o)
                                                  Middlewares/STemWin/Lib/STemWin_CM7_wc32.a(GUI_DispString.o)
                                                  Middlewares/STemWin/Lib/STemWin_CM7_wc32.a(GUI_Common.o)
GUI_GetYDistOfFont                                Middlewares/STemWin/Lib/STemWin_CM7_wc32.a(GUI_Common.o)
                                                  Middlewares/STemWin/Lib/STemWin_CM7_wc32.a(MULTIEDIT.o)
GUI_GetYSizeOfFont                                Middlewares/STemWin/Lib/STemWin_CM7_wc32.a(GUI_Common.o)
                                                  Middlewares/STemWin/Lib/STemWin_CM7_wc32.a(MULTIEDIT.o)
                                                  Middlewares/STemWin/Lib/STemWin_CM7_wc32.a(FRAMEWIN.o)
GUI_GetpfColor2IndexEx                            Middlewares/STemWin/Lib/STemWin_CM7_wc32.a(LCD_GetEx.o)
                                                  Middlewares/STemWin/Lib/STemWin_CM7_wc32.a(GUIDEV_WriteToActiveOpaque.o)
GUI_GetpfIndex2ColorEx                            Middlewares/STemWin/Lib/STemWin_CM7_wc32.a(LCD_GetEx.o)
                                                  Middlewares/STemWin/Lib/STemWin_CM7_wc32.a(GUIDEV_WriteToActiveOpaque.o)
                                                  Middlewares/STemWin/Lib/STemWin_CM7_wc32.a(GUI__Alpha.o)
GUI_GotoX                                         Middlewares/STemWin/Lib/STemWin_CM7_wc32.a(GUI_Common.o)
GUI_GotoXY                                        Middlewares/STemWin/Lib/STemWin_CM7_wc32.a(GUI_Common.o)
                                                  Middlewares/STemWin/Lib/STemWin_CM7_wc32.a(GUIDEV_StaticDevices.o)
                                                  Middlewares/STemWin/Lib/STemWin_CM7_wc32.a(GUI_Core.o)
GUI_GotoY                                         Middlewares/STemWin/Lib/STemWin_CM7_wc32.a(GUI_Common.o)
GUI_Index2Color                                   Middlewares/STemWin/Lib/STemWin_CM7_wc32.a(GUI_Common.o)
GUI_Init                                          Middlewares/STemWin/Lib/STemWin_CM7_wc32.a(GUI_Core.o)
                                                  build/main.o
GUI_InvertRect                                    Middlewares/STemWin/Lib/STemWin_CM7_wc32.a(GUI_DrawLib.o)
GUI_IsInFont                                      Middlewares/STemWin/Lib/STemWin_CM7_wc32.a(GUI_Common.o)
GUI_IsInitialized                                 Middlewares/STemWin/Lib/STemWin_CM7_wc32.a(GUI_Core.o)
GUI_KEY__SetHook                                  Middlewares/STemWin/Lib/STemWin_CM7_wc32.a(GUI_OnKey.o)
GUI_Long2Len                                      Middlewares/STemWin/Lib/STemWin_CM7_wc32.a(GUI_Common.o)
                                                  Middlewares/STemWin/Lib/STemWin_CM7_wc32.a(TEXT.o)
GUI_MEMDEV_Clear                                  Middlewares/STemWin/Lib/STemWin_CM7_wc32.a(GUIDEV_Clear.o)
                                                  Middlewares/STemWin/Lib/STemWin_CM7_wc32.a(GUIDEV_Banding.o)
GUI_MEMDEV_CopyToLCD                              Middlewares/STemWin/Lib/STemWin_CM7_wc32.a(GUIDEV.o)
                                                  Middlewares/STemWin/Lib/STemWin_CM7_wc32.a(GUIDEV_Banding.o)
GUI_MEMDEV_CopyToLCDAt                            Middlewares/STemWin/Lib/STemWin_CM7_wc32.a(GUIDEV.o)
GUI_MEMDEV_Create                                 Middlewares/STemWin/Lib/STemWin_CM7_wc32.a(GUIDEV.o)
GUI_MEMDEV_CreateEx                               Middlewares/STemWin/Lib/STemWin_CM7_wc32.a(GUIDEV.o)
                                                  Middlewares/STemWin/Lib/STemWin_CM7_wc32.a(GUIDEV_Banding.o)
GUI_MEMDEV_CreateFixed                            Middlewares/STemWin/Lib/STemWin_CM7_wc32.a(GUIDEV_CreateFixed.o)
                                                  Middlewares/STemWin/Lib/STemWin_CM7_wc32.a(GUIDEV_StaticDevices.o)
GUI_MEMDEV_CreateFixed32                          Middlewares/STemWin/Lib/STemWin_CM7_wc32.a(GUIDEV_CreateFixed.o)
GUI_MEMDEV_CreateStatic                           Middlewares/STemWin/Lib/STemWin_CM7_wc32.a(GUIDEV_StaticDevices.o)
GUI_MEMDEV_CreateWindowDevice                     Middlewares/STemWin/Lib/STemWin_CM7_wc32.a(GUIDEV_StaticDevices.o)
GUI_MEMDEV_DEVICE_32                              Middlewares/STemWin/Lib/STemWin_CM7_wc32.a(GUIDEV_32.o)
                                                  Middlewares/STemWin/Lib/STemWin_CM7_wc32.a(GUIDEV_CreateFixed.o)
                                                  Middlewares/STemWin/Lib/STemWin_CM7_wc32.a(GUIDEV_StaticDevices.o)
                                                  Middlewares/STemWin/Lib/STemWin_CM7_wc32.a(GUIDRV_Lin_32.o)
GUI_MEMDEV_Delete                                 Middlewares/STemWin/Lib/STemWin_CM7_wc32.a(GUIDEV.o)
                                                  Middlewares/STemWin/Lib/STemWin_CM7_wc32.a(GUIDEV_StaticDevices.o)
                                                  Middlewares/STemWin/Lib/STemWin_CM7_wc32.a(GUIDEV_Banding.o)
                                                  Middlewares/STemWin/Lib/STemWin_CM7_wc32.a(WM.o)
GUI_MEMDEV_Draw                                   Middlewares/STemWin/Lib/STemWin_CM7_wc32.a(GUIDEV_Banding.o)
                                                  Middlewares/STemWin/Lib/STemWin_CM7_wc32.a(WM.o)
GUI_MEMDEV_GetBitsPerPixel                        Middlewares/STemWin/Lib/STemWin_CM7_wc32.a(GUIDEV.o)
                                                  Middlewares/STemWin/Lib/STemWin_CM7_wc32.a(GUI_SetAlpha.o)
                                                  Middlewares/STemWin/Lib/STemWin_CM7_wc32.a(GUIDEV_WriteToActiveOpaque.o)
GUI_MEMDEV_GetDataPtr                             Middlewares/STemWin/Lib/STemWin_CM7_wc32.a(GUIDEV_GetDataPtr.o)
                                                  Middlewares/STemWin/Lib/STemWin_CM7_wc32.a(GUI_SetAlpha.o)
                                                  Middlewares/STemWin/Lib/STemWin_CM7_wc32.a(GUIDEV_WriteToActiveOpaque.o)
                                                  Middlewares/STemWin/Lib/STemWin_CM7_wc32.a(GUIDEV_StaticDevices.o)
                                                  Middlewares/STemWin/Lib/STemWin_CM7_wc32.a(GUIDEV_WriteToActiveAlpha.o)
GUI_MEMDEV_GetStaticDevice                        Middlewares/STemWin/Lib/STemWin_CM7_wc32.a(GUIDEV_StaticDevices.o)
GUI_MEMDEV_GetWindowDevice                        Middlewares/STemWin/Lib/STemWin_CM7_wc32.a(GUIDEV_StaticDevices.o)
GUI_MEMDEV_GetXPos                                Middlewares/STemWin/Lib/STemWin_CM7_wc32.a(GUIDEV_GetPos.o)
                                                  Middlewares/STemWin/Lib/STemWin_CM7_wc32.a(GUI_SetAlpha.o)
                                                  Middlewares/STemWin/Lib/STemWin_CM7_wc32.a(GUIDEV_StaticDevices.o)
GUI_MEMDEV_GetXSize                               Middlewares/STemWin/Lib/STemWin_CM7_wc32.a(GUIDEV_GetXSize.o)
                                                  Middlewares/STemWin/Lib/STemWin_CM7_wc32.a(GUI_SetAlpha.o)
                                                  Middlewares/STemWin/Lib/STemWin_CM7_wc32.a(GUIDEV_StaticDevices.o)
GUI_MEMDEV_GetYPos                                Middlewares/STemWin/Lib/STemWin_CM7_wc32.a(GUIDEV_GetPos.o)
                                                  Middlewares/STemWin/Lib/STemWin_CM7_wc32.a(GUI_SetAlpha.o)
                                                  Middlewares/STemWin/Lib/STemWin_CM7_wc32.a(GUIDEV_StaticDevices.o)
GUI_MEMDEV_GetYSize                               Middlewares/STemWin/Lib/STemWin_CM7_wc32.a(GUIDEV_GetYSize.o)
                                                  Middlewares/STemWin/Lib/STemWin_CM7_wc32.a(GUIDEV_StaticDevices.o)
                                                  Middlewares/STemWin/Lib/STemWin_CM7_wc32.a(GUIDEV_Banding.o)
GUI_MEMDEV_MarkDirty                              Middlewares/STemWin/Lib/STemWin_CM7_wc32.a(GUIDEV.o)
GUI_MEMDEV_Paint1Static                           Middlewares/STemWin/Lib/STemWin_CM7_wc32.a(GUIDEV_StaticDevices.o)
                                                  Middlewares/STemWin/Lib/STemWin_CM7_wc32.a(WM.o)
GUI_MEMDEV_ReduceYSize                            Middlewares/STemWin/Lib/STemWin_CM7_wc32.a(GUIDEV_ReduceYSize.o)
                                                  Middlewares/STemWin/Lib/STemWin_CM7_wc32.a(GUIDEV_Banding.o)
GUI_MEMDEV_Select                                 Middlewares/STemWin/Lib/STemWin_CM7_wc32.a(GUIDEV.o)
                                                  Middlewares/STemWin/Lib/STemWin_CM7_wc32.a(GUIDEV_StaticDevices.o)
                                                  Middlewares/STemWin/Lib/STemWin_CM7_wc32.a(GUIDEV_Banding.o)
                                                  Middlewares/STemWin/Lib/STemWin_CM7_wc32.a(GUI_SPRITE.o)
GUI_MEMDEV_SetOrg                                 Middlewares/STemWin/Lib/STemWin_CM7_wc32.a(GUIDEV_SetOrg.o)
                                                  Middlewares/STemWin/Lib/STemWin_CM7_wc32.a(GUIDEV_StaticDevices.o)
                                                  Middlewares/STemWin/Lib/STemWin_CM7_wc32.a(GUIDEV_Banding.o)
GUI_MEMDEV_Write                                  Middlewares/STemWin/Lib/STemWin_CM7_wc32.a(GUIDEV_Write.o)
                                                  Middlewares/STemWin/Lib/STemWin_CM7_wc32.a(GUIDEV_StaticDevices.o)
GUI_MEMDEV_WriteAt                                Middlewares/STemWin/Lib/STemWin_CM7_wc32.a(GUIDEV_Write.o)
GUI_MEMDEV_WriteOpaque                            Middlewares/STemWin/Lib/STemWin_CM7_wc32.a(GUIDEV_Write.o)
GUI_MEMDEV_WriteOpaqueAt                          Middlewares/STemWin/Lib/STemWin_CM7_wc32.a(GUIDEV_Write.o)
GUI_MEMDEV__CreateFixed                           Middlewares/STemWin/Lib/STemWin_CM7_wc32.a(GUIDEV.o)
                                                  Middlewares/STemWin/Lib/STemWin_CM7_wc32.a(GUIDEV_CreateFixed.o)
                                                  Middlewares/STemWin/Lib/STemWin_CM7_wc32.a(GUIDEV_StaticDevices.o)
GUI_MEMDEV__CreateStatic                          Middlewares/STemWin/Lib/STemWin_CM7_wc32.a(GUIDEV_StaticDevices.o)
GUI_MEMDEV__SetAlphaCallback                      Middlewares/STemWin/Lib/STemWin_CM7_wc32.a(GUIDEV_Banding.o)
                                                  Middlewares/STemWin/Lib/STemWin_CM7_wc32.a(GUI_SetAlpha.o)
GUI_MEMDEV__WriteToActiveAlpha                    Middlewares/STemWin/Lib/STemWin_CM7_wc32.a(GUIDEV_WriteToActiveAlpha.o)
                                                  Middlewares/STemWin/Lib/STemWin_CM7_wc32.a(GUIDEV_32.o)
GUI_MEMDEV__WriteToActiveAt                       Middlewares/STemWin/Lib/STemWin_CM7_wc32.a(GUIDEV.o)
                                                  Middlewares/STemWin/Lib/STemWin_CM7_wc32.a(GUIDEV_Write.o)
GUI_MEMDEV__WriteToActiveOpaque                   Middlewares/STemWin/Lib/STemWin_CM7_wc32.a(GUIDEV_WriteToActiveOpaque.o)
                                                  Middlewares/STemWin/Lib/STemWin_CM7_wc32.a(GUIDEV_Write.o)
                                                  Middlewares/STemWin/Lib/STemWin_CM7_wc32.a(GUIDEV.o)
GUI_MTOUCH__pStoreEvent                           Middlewares/STemWin/Lib/STemWin_CM7_wc32.a(GUI_Core.o)
GUI_MULTIBUF_APIList                              Middlewares/STemWin/Lib/STemWin_CM7_wc32.a(GUI_MULTIBUF.o)
GUI_MULTIBUF_APIListEx                            Middlewares/STemWin/Lib/STemWin_CM7_wc32.a(GUI_MULTIBUF.o)
GUI_MULTIBUF_APIListMasked                        Middlewares/STemWin/Lib/STemWin_CM7_wc32.a(GUI_MULTIBUF.o)
GUI_MULTIBUF_Begin                                Middlewares/STemWin/Lib/STemWin_CM7_wc32.a(GUI_MULTIBUF.o)
GUI_MULTIBUF_BeginEx                              Middlewares/STemWin/Lib/STemWin_CM7_wc32.a(GUI_MULTIBUF.o)
GUI_MULTIBUF_Config                               Middlewares/STemWin/Lib/STemWin_CM7_wc32.a(GUI_MULTIBUF.o)
GUI_MULTIBUF_ConfigEx                             Middlewares/STemWin/Lib/STemWin_CM7_wc32.a(GUI_MULTIBUF.o)
                                                  build/LCDConf.o
GUI_MULTIBUF_Confirm                              Middlewares/STemWin/Lib/STemWin_CM7_wc32.a(GUI_MULTIBUF.o)
GUI_MULTIBUF_ConfirmEx                            Middlewares/STemWin/Lib/STemWin_CM7_wc32.a(GUI_MULTIBUF.o)
                                                  build/LCDConf.o
GUI_MULTIBUF_End                                  Middlewares/STemWin/Lib/STemWin_CM7_wc32.a(GUI_MULTIBUF.o)
GUI_MULTIBUF_EndEx                                Middlewares/STemWin/Lib/STemWin_CM7_wc32.a(GUI_MULTIBUF.o)
GUI_MULTIBUF_GetNumBuffers                        Middlewares/STemWin/Lib/STemWin_CM7_wc32.a(GUI_MULTIBUF.o)
GUI_MULTIBUF_GetNumBuffersEx                      Middlewares/STemWin/Lib/STemWin_CM7_wc32.a(GUI_MULTIBUF.o)
GUI_MULTIBUF_SetLayerMask                         Middlewares/STemWin/Lib/STemWin_CM7_wc32.a(GUI_MULTIBUF.o)
GUI_MULTIBUF_UseSingleBuffer                      Middlewares/STemWin/Lib/STemWin_CM7_wc32.a(GUI_MULTIBUF.o)
GUI_MagnifyPolygon                                Middlewares/STemWin/Lib/STemWin_CM7_wc32.a(GUI_Common.o)
GUI_MergeRect                                     Middlewares/STemWin/Lib/STemWin_CM7_wc32.a(GUI_Common.o)
                                                  Middlewares/STemWin/Lib/STemWin_CM7_wc32.a(WM_Lib.o)
                                                  Middlewares/STemWin/Lib/STemWin_CM7_wc32.a(WM.o)
GUI_MoveRect                                      Middlewares/STemWin/Lib/STemWin_CM7_wc32.a(GUI_Common.o)
                                                  Middlewares/STemWin/Lib/STemWin_CM7_wc32.a(WM_SetCaptureMove.o)
                                                  Middlewares/STemWin/Lib/STemWin_CM7_wc32.a(SCROLLBAR_Skin.o)
                                                  Middlewares/STemWin/Lib/STemWin_CM7_wc32.a(FRAMEWIN.o)
                                                  Middlewares/STemWin/Lib/STemWin_CM7_wc32.a(BUTTON_SkinFlex.o)
                                                  Middlewares/STemWin/Lib/STemWin_CM7_wc32.a(WM__Private.o)
                                                  Middlewares/STemWin/Lib/STemWin_CM7_wc32.a(WM_Move.o)
                                                  Middlewares/STemWin/Lib/STemWin_CM7_wc32.a(WM_Lib.o)
                                                  Middlewares/STemWin/Lib/STemWin_CM7_wc32.a(WM.o)
GUI_MoveRel                                       Middlewares/STemWin/Lib/STemWin_CM7_wc32.a(GUI_2DLib.o)
                                                  Middlewares/STemWin/Lib/STemWin_CM7_wc32.a(GUI_DrawLine.o)
GUI_MoveTo                                        Middlewares/STemWin/Lib/STemWin_CM7_wc32.a(GUI_2DLib.o)
GUI_OrgX                                          Middlewares/STemWin/Lib/STemWin_CM7_wc32.a(GUI_Core.o)
                                                  Middlewares/STemWin/Lib/STemWin_CM7_wc32.a(WM_Touch.o)
                                                  Middlewares/STemWin/Lib/STemWin_CM7_wc32.a(GUI_Common.o)
GUI_OrgY                                          Middlewares/STemWin/Lib/STemWin_CM7_wc32.a(GUI_Core.o)
                                                  Middlewares/STemWin/Lib/STemWin_CM7_wc32.a(WM_Touch.o)
                                                  Middlewares/STemWin/Lib/STemWin_CM7_wc32.a(GUI_Common.o)
GUI_PID_GetCurrentState                           Middlewares/STemWin/Lib/STemWin_CM7_wc32.a(GUI_PID.o)
GUI_PID_GetState                                  Middlewares/STemWin/Lib/STemWin_CM7_wc32.a(GUI_PID.o)
                                                  Middlewares/STemWin/Lib/STemWin_CM7_wc32.a(WM_Touch.o)
GUI_PID_IsEmpty                                   Middlewares/STemWin/Lib/STemWin_CM7_wc32.a(GUI_PID.o)
                                                  Middlewares/STemWin/Lib/STemWin_CM7_wc32.a(WM_Touch.o)
GUI_PID_IsPressed                                 Middlewares/STemWin/Lib/STemWin_CM7_wc32.a(GUI_PID.o)
GUI_PID_SetHook                                   Middlewares/STemWin/Lib/STemWin_CM7_wc32.a(GUI_PID.o)
GUI_PID_StoreState                                Middlewares/STemWin/Lib/STemWin_CM7_wc32.a(GUI_PID.o)
GUI_PID__SetHook                                  Middlewares/STemWin/Lib/STemWin_CM7_wc32.a(GUI_PID.o)
GUI_PollKeyMsg                                    Middlewares/STemWin/Lib/STemWin_CM7_wc32.a(GUI_OnKey.o)
                                                  Middlewares/STemWin/Lib/STemWin_CM7_wc32.a(WM.o)
GUI_Pow10                                         Middlewares/STemWin/Lib/STemWin_CM7_wc32.a(GUI_Common.o)
GUI_PreserveTrans                                 Middlewares/STemWin/Lib/STemWin_CM7_wc32.a(GUI_DrawBitmap.o)
GUI_ReadRect                                      Middlewares/STemWin/Lib/STemWin_CM7_wc32.a(LCD_ReadRect.o)
GUI_ReadRectEx                                    Middlewares/STemWin/Lib/STemWin_CM7_wc32.a(LCD_ReadRect.o)
                                                  Middlewares/STemWin/Lib/STemWin_CM7_wc32.a(GUI__Alpha.o)
GUI_RectDispString                                Middlewares/STemWin/Lib/STemWin_CM7_wc32.a(GUI_DispStringInRectEx.o)
                                                  Middlewares/STemWin/Lib/STemWin_CM7_wc32.a(LCD_RotateCW.o)
                                                  Middlewares/STemWin/Lib/STemWin_CM7_wc32.a(LCD_RotateCCW.o)
                                                  Middlewares/STemWin/Lib/STemWin_CM7_wc32.a(LCD_Rotate180.o)
GUI_RectsIntersect                                Middlewares/STemWin/Lib/STemWin_CM7_wc32.a(GUI_Common.o)
                                                  Middlewares/STemWin/Lib/STemWin_CM7_wc32.a(WM_SetCaptureMove.o)
                                                  Middlewares/STemWin/Lib/STemWin_CM7_wc32.a(GUI_SPRITE.o)
                                                  Middlewares/STemWin/Lib/STemWin_CM7_wc32.a(GUI_CharLine.o)
                                                  Middlewares/STemWin/Lib/STemWin_CM7_wc32.a(WIDGET.o)
                                                  Middlewares/STemWin/Lib/STemWin_CM7_wc32.a(WM__Private.o)
                                                  Middlewares/STemWin/Lib/STemWin_CM7_wc32.a(WM.o)
GUI_RegisterAfterInitHook                         Middlewares/STemWin/Lib/STemWin_CM7_wc32.a(GUI_Core.o)
GUI_RestoreContext                                Middlewares/STemWin/Lib/STemWin_CM7_wc32.a(GUI_Common.o)
                                                  Middlewares/STemWin/Lib/STemWin_CM7_wc32.a(WIDGET_Effect_Simple.o)
                                                  Middlewares/STemWin/Lib/STemWin_CM7_wc32.a(WM_Lib.o)
                                                  Middlewares/STemWin/Lib/STemWin_CM7_wc32.a(WM.o)
GUI_RotatePolygon                                 Middlewares/STemWin/Lib/STemWin_CM7_wc32.a(GUI_Common.o)
GUI_SPRITE_Create                                 Middlewares/STemWin/Lib/STemWin_CM7_wc32.a(GUI_SPRITE.o)
GUI_SPRITE_CreateAnim                             Middlewares/STemWin/Lib/STemWin_CM7_wc32.a(GUI_SPRITE_Anim.o)
GUI_SPRITE_CreateEx                               Middlewares/STemWin/Lib/STemWin_CM7_wc32.a(GUI_SPRITE.o)
                                                  Middlewares/STemWin/Lib/STemWin_CM7_wc32.a(GUI_SPRITE_Anim.o)
GUI_SPRITE_CreateExAnim                           Middlewares/STemWin/Lib/STemWin_CM7_wc32.a(GUI_SPRITE_Anim.o)
                                                  Middlewares/STemWin/Lib/STemWin_CM7_wc32.a(GUI_Cursor.o)
GUI_SPRITE_CreateHidden                           Middlewares/STemWin/Lib/STemWin_CM7_wc32.a(GUI_SPRITE.o)
GUI_SPRITE_CreateHiddenEx                         Middlewares/STemWin/Lib/STemWin_CM7_wc32.a(GUI_SPRITE.o)
GUI_SPRITE_Delete                                 Middlewares/STemWin/Lib/STemWin_CM7_wc32.a(GUI_SPRITE.o)
                                                  Middlewares/STemWin/Lib/STemWin_CM7_wc32.a(GUI_SPRITE_Anim.o)
                                                  Middlewares/STemWin/Lib/STemWin_CM7_wc32.a(GUI_Cursor.o)
GUI_SPRITE_GetState                               Middlewares/STemWin/Lib/STemWin_CM7_wc32.a(GUI_SPRITE.o)
                                                  Middlewares/STemWin/Lib/STemWin_CM7_wc32.a(GUI_SPRITE_Anim.o)
GUI_SPRITE_Hide                                   Middlewares/STemWin/Lib/STemWin_CM7_wc32.a(GUI_SPRITE.o)
                                                  Middlewares/STemWin/Lib/STemWin_CM7_wc32.a(GUI_Cursor.o)
GUI_SPRITE_SetBitmap                              Middlewares/STemWin/Lib/STemWin_CM7_wc32.a(GUI_SPRITE.o)
                                                  Middlewares/STemWin/Lib/STemWin_CM7_wc32.a(GUI_SPRITE_Anim.o)
                                                  Middlewares/STemWin/Lib/STemWin_CM7_wc32.a(GUI_Cursor.o)
GUI_SPRITE_SetBitmapAndPosition                   Middlewares/STemWin/Lib/STemWin_CM7_wc32.a(GUI_SPRITE.o)
GUI_SPRITE_SetLoop                                Middlewares/STemWin/Lib/STemWin_CM7_wc32.a(GUI_SPRITE_Anim.o)
GUI_SPRITE_SetPosition                            Middlewares/STemWin/Lib/STemWin_CM7_wc32.a(GUI_SPRITE.o)
                                                  Middlewares/STemWin/Lib/STemWin_CM7_wc32.a(GUI_Cursor.o)
GUI_SPRITE_Show                                   Middlewares/STemWin/Lib/STemWin_CM7_wc32.a(GUI_SPRITE.o)
                                                  Middlewares/STemWin/Lib/STemWin_CM7_wc32.a(GUI_Cursor.o)
GUI_SPRITE_StartAnim                              Middlewares/STemWin/Lib/STemWin_CM7_wc32.a(GUI_SPRITE_Anim.o)
GUI_SPRITE_StopAnim                               Middlewares/STemWin/Lib/STemWin_CM7_wc32.a(GUI_SPRITE_Anim.o)
GUI_SPRITE__CreateEx                              Middlewares/STemWin/Lib/STemWin_CM7_wc32.a(GUI_SPRITE.o)
                                                  Middlewares/STemWin/Lib/STemWin_CM7_wc32.a(GUI_Cursor.o)
GUI_SPRITE__SetCallback                           Middlewares/STemWin/Lib/STemWin_CM7_wc32.a(GUI_SPRITE.o)
                                                  Middlewares/STemWin/Lib/STemWin_CM7_wc32.a(GUI_SPRITE_Anim.o)
GUI_SaveContext_W                                 Middlewares/STemWin/Lib/STemWin_CM7_wc32.a(GUI_Common.o)
                                                  Middlewares/STemWin/Lib/STemWin_CM7_wc32.a(WIDGET_Effect_Simple.o)
                                                  Middlewares/STemWin/Lib/STemWin_CM7_wc32.a(WM_Lib.o)
                                                  Middlewares/STemWin/Lib/STemWin_CM7_wc32.a(WM.o)
GUI_SelectLCD                                     Middlewares/STemWin/Lib/STemWin_CM7_wc32.a(GUI_Common.o)
                                                  Middlewares/STemWin/Lib/STemWin_CM7_wc32.a(GUIDEV.o)
                                                  Middlewares/STemWin/Lib/STemWin_CM7_wc32.a(GUI_SelectLayer.o)
GUI_SelectLayer                                   Middlewares/STemWin/Lib/STemWin_CM7_wc32.a(GUI_SelectLayer.o)
                                                  Middlewares/STemWin/Lib/STemWin_CM7_wc32.a(GUIDEV.o)
                                                  Middlewares/STemWin/Lib/STemWin_CM7_wc32.a(GUI_Cursor.o)
                                                  Middlewares/STemWin/Lib/STemWin_CM7_wc32.a(WM.o)
                                                  Middlewares/STemWin/Lib/STemWin_CM7_wc32.a(LCD.o)
GUI_SendKeyMsg                                    Middlewares/STemWin/Lib/STemWin_CM7_wc32.a(GUI_OnKey.o)
GUI_SetAfterInitHook                              Middlewares/STemWin/Lib/STemWin_CM7_wc32.a(GUI_Core.o)
GUI_SetAlpha                                      Middlewares/STemWin/Lib/STemWin_CM7_wc32.a(GUI_SetAlpha.o)
GUI_SetBkColor                                    Middlewares/STemWin/Lib/STemWin_CM7_wc32.a(GUI_Common.o)
                                                  Middlewares/STemWin/Lib/STemWin_CM7_wc32.a(GUI_Cursor.o)
                                                  Middlewares/STemWin/Lib/STemWin_CM7_wc32.a(WM.o)
GUI_SetBkColorIndex                               Middlewares/STemWin/Lib/STemWin_CM7_wc32.a(GUI_Common.o)
GUI_SetClipRect                                   Middlewares/STemWin/Lib/STemWin_CM7_wc32.a(GUI_Common.o)
GUI_SetColor                                      Middlewares/STemWin/Lib/STemWin_CM7_wc32.a(GUI_Common.o)
                                                  Middlewares/STemWin/Lib/STemWin_CM7_wc32.a(GUI_CharP.o)
                                                  Middlewares/STemWin/Lib/STemWin_CM7_wc32.a(GUI__DrawTwinArc.o)
                                                  Middlewares/STemWin/Lib/STemWin_CM7_wc32.a(SCROLLBAR_SkinFlex.o)
                                                  Middlewares/STemWin/Lib/STemWin_CM7_wc32.a(FRAMEWIN_SkinFlex.o)
                                                  Middlewares/STemWin/Lib/STemWin_CM7_wc32.a(BUTTON_SkinFlex.o)
                                                  Middlewares/STemWin/Lib/STemWin_CM7_wc32.a(WM.o)
                                                  Middlewares/STemWin/Lib/STemWin_CM7_wc32.a(GUI_DispStringInRectEx.o)
GUI_SetColorIndex                                 Middlewares/STemWin/Lib/STemWin_CM7_wc32.a(GUI_Common.o)
GUI_SetControlHook                                Middlewares/STemWin/Lib/STemWin_CM7_wc32.a(GUI__ManageCache.o)
GUI_SetDecChar                                    Middlewares/STemWin/Lib/STemWin_CM7_wc32.a(GUI_Common.o)
GUI_SetDefault                                    Middlewares/STemWin/Lib/STemWin_CM7_wc32.a(GUI_Common.o)
GUI_SetDefaultBkColor                             Middlewares/STemWin/Lib/STemWin_CM7_wc32.a(GUI_Core.o)
GUI_SetDefaultColor                               Middlewares/STemWin/Lib/STemWin_CM7_wc32.a(GUI_Core.o)
GUI_SetDefaultFont                                Middlewares/STemWin/Lib/STemWin_CM7_wc32.a(GUI_Core.o)
GUI_SetDialogStatusPtr                            Middlewares/STemWin/Lib/STemWin_CM7_wc32.a(DIALOG.o)
GUI_SetDrawMode                                   Middlewares/STemWin/Lib/STemWin_CM7_wc32.a(GUI_Common.o)
                                                  Middlewares/STemWin/Lib/STemWin_CM7_wc32.a(GUIDEV.o)
                                                  Middlewares/STemWin/Lib/STemWin_CM7_wc32.a(GUI_DrawLib.o)
                                                  Middlewares/STemWin/Lib/STemWin_CM7_wc32.a(GUI_DrawBitmap.o)
GUI_SetFont                                       Middlewares/STemWin/Lib/STemWin_CM7_wc32.a(GUI_Common.o)
                                                  Middlewares/STemWin/Lib/STemWin_CM7_wc32.a(TEXT.o)
                                                  Middlewares/STemWin/Lib/STemWin_CM7_wc32.a(MULTIEDIT.o)
                                                  Middlewares/STemWin/Lib/STemWin_CM7_wc32.a(FRAMEWIN_SkinFlex.o)
                                                  Middlewares/STemWin/Lib/STemWin_CM7_wc32.a(FRAMEWIN_Skin.o)
                                                  Middlewares/STemWin/Lib/STemWin_CM7_wc32.a(BUTTON_SkinFlex.o)
GUI_SetFuncAlphaBlending                          Middlewares/STemWin/Lib/STemWin_CM7_wc32.a(GUI__Alpha.o)
GUI_SetFuncDrawAlpha                              Middlewares/STemWin/Lib/STemWin_CM7_wc32.a(GUI__Alpha.o)
GUI_SetFuncDrawM565                               Middlewares/STemWin/Lib/STemWin_CM7_wc32.a(GUI_Core.o)
GUI_SetFuncGetpPalConvTable                       Middlewares/STemWin/Lib/STemWin_CM7_wc32.a(GUI_Core.o)
GUI_SetFuncMixColors                              Middlewares/STemWin/Lib/STemWin_CM7_wc32.a(GUI__Alpha.o)
GUI_SetFuncMixColorsBulk                          Middlewares/STemWin/Lib/STemWin_CM7_wc32.a(GUI__Alpha.o)
GUI_SetLBorder                                    Middlewares/STemWin/Lib/STemWin_CM7_wc32.a(GUI_Common.o)
GUI_SetLayerAlphaEx                               Middlewares/STemWin/Lib/STemWin_CM7_wc32.a(GUI_SelectLayer.o)
GUI_SetLayerPosEx                                 Middlewares/STemWin/Lib/STemWin_CM7_wc32.a(GUI_SelectLayer.o)
                                                  Middlewares/STemWin/Lib/STemWin_CM7_wc32.a(GUI_Cursor.o)
GUI_SetLayerSizeEx                                Middlewares/STemWin/Lib/STemWin_CM7_wc32.a(GUI_SelectLayer.o)
                                                  Middlewares/STemWin/Lib/STemWin_CM7_wc32.a(GUI_Cursor.o)
GUI_SetLayerVisEx                                 Middlewares/STemWin/Lib/STemWin_CM7_wc32.a(GUI_SelectLayer.o)
                                                  Middlewares/STemWin/Lib/STemWin_CM7_wc32.a(GUI_Cursor.o)
GUI_SetLineStyle                                  Middlewares/STemWin/Lib/STemWin_CM7_wc32.a(GUI_Common.o)
GUI_SetOrg                                        Middlewares/STemWin/Lib/STemWin_CM7_wc32.a(GUI_Common.o)
                                                  Middlewares/STemWin/Lib/STemWin_CM7_wc32.a(GUI_Core.o)
GUI_SetPenShape                                   Middlewares/STemWin/Lib/STemWin_CM7_wc32.a(GUI_Common.o)
GUI_SetPenSize                                    Middlewares/STemWin/Lib/STemWin_CM7_wc32.a(GUI_Common.o)
                                                  Middlewares/STemWin/Lib/STemWin_CM7_wc32.a(GUI_DrawLib.o)
GUI_SetRefreshHook                                Middlewares/STemWin/Lib/STemWin_CM7_wc32.a(GUI__ManageCache.o)
GUI_SetScreenSizeX                                Middlewares/STemWin/Lib/STemWin_CM7_wc32.a(GUI_Common.o)
GUI_SetScreenSizeY                                Middlewares/STemWin/Lib/STemWin_CM7_wc32.a(GUI_Common.o)
GUI_SetSignalEventFunc                            Middlewares/STemWin/Lib/STemWin_CM7_wc32.a(GUI_WaitEvent.o)
GUI_SetStrikeWidth                                Middlewares/STemWin/Lib/STemWin_CM7_wc32.a(GUI_Common.o)
GUI_SetTextAlign                                  Middlewares/STemWin/Lib/STemWin_CM7_wc32.a(GUI_Common.o)
                                                  Middlewares/STemWin/Lib/STemWin_CM7_wc32.a(GUI_DispString.o)
GUI_SetTextMode                                   Middlewares/STemWin/Lib/STemWin_CM7_wc32.a(GUI_Common.o)
                                                  Middlewares/STemWin/Lib/STemWin_CM7_wc32.a(WIDGET.o)
                                                  Middlewares/STemWin/Lib/STemWin_CM7_wc32.a(TEXT.o)
                                                  Middlewares/STemWin/Lib/STemWin_CM7_wc32.a(FRAMEWIN_SkinFlex.o)
                                                  Middlewares/STemWin/Lib/STemWin_CM7_wc32.a(FRAMEWIN_Skin.o)
                                                  Middlewares/STemWin/Lib/STemWin_CM7_wc32.a(BUTTON_SkinFlex.o)
GUI_SetTextStyle                                  Middlewares/STemWin/Lib/STemWin_CM7_wc32.a(GUI_Common.o)
GUI_SetTimeSlice                                  Middlewares/STemWin/Lib/STemWin_CM7_wc32.a(GUI_Time.o)
GUI_SetWaitEventFunc                              Middlewares/STemWin/Lib/STemWin_CM7_wc32.a(GUI_WaitEvent.o)
GUI_SetWaitEventTimedFunc                         Middlewares/STemWin/Lib/STemWin_CM7_wc32.a(GUI_WaitEvent.o)
GUI_SetpfMemcpy                                   Middlewares/STemWin/Lib/STemWin_CM7_wc32.a(GUI_Core.o)
GUI_SetpfMemset                                   Middlewares/STemWin/Lib/STemWin_CM7_wc32.a(GUI_Core.o)
GUI_SignalEvent                                   Middlewares/STemWin/Lib/STemWin_CM7_wc32.a(GUI_WaitEvent.o)
                                                  Middlewares/STemWin/Lib/STemWin_CM7_wc32.a(GUI_PID.o)
                                                  Middlewares/STemWin/Lib/STemWin_CM7_wc32.a(WM.o)
                                                  Middlewares/STemWin/Lib/STemWin_CM7_wc32.a(GUI_OnKey.o)
GUI_StoreKey                                      Middlewares/STemWin/Lib/STemWin_CM7_wc32.a(GUI_OnKey.o)
                                                  Middlewares/STemWin/Lib/STemWin_CM7_wc32.a(BUTTON.o)
                                                  Middlewares/STemWin/Lib/STemWin_CM7_wc32.a(WM.o)
GUI_StoreKeyMsg                                   Middlewares/STemWin/Lib/STemWin_CM7_wc32.a(GUI_OnKey.o)
GUI_TIMER_Create                                  Middlewares/STemWin/Lib/STemWin_CM7_wc32.a(GUI_Timer.o)
                                                  Middlewares/STemWin/Lib/STemWin_CM7_wc32.a(GUI_SPRITE_Anim.o)
                                                  Middlewares/STemWin/Lib/STemWin_CM7_wc32.a(WM_Timer.o)
GUI_TIMER_Delete                                  Middlewares/STemWin/Lib/STemWin_CM7_wc32.a(GUI_Timer.o)
                                                  Middlewares/STemWin/Lib/STemWin_CM7_wc32.a(GUI_SPRITE_Anim.o)
                                                  Middlewares/STemWin/Lib/STemWin_CM7_wc32.a(WM_Timer.o)
GUI_TIMER_Exec                                    Middlewares/STemWin/Lib/STemWin_CM7_wc32.a(GUI_Timer.o)
GUI_TIMER_GetFlag                                 Middlewares/STemWin/Lib/STemWin_CM7_wc32.a(GUI_Timer.o)
                                                  Middlewares/STemWin/Lib/STemWin_CM7_wc32.a(WM_Timer.o)
GUI_TIMER_GetPeriod                               Middlewares/STemWin/Lib/STemWin_CM7_wc32.a(GUI_Timer.o)
                                                  Middlewares/STemWin/Lib/STemWin_CM7_wc32.a(GUI_SPRITE_Anim.o)
GUI_TIMER_Restart                                 Middlewares/STemWin/Lib/STemWin_CM7_wc32.a(GUI_Timer.o)
                                                  Middlewares/STemWin/Lib/STemWin_CM7_wc32.a(GUI_SPRITE_Anim.o)
                                                  Middlewares/STemWin/Lib/STemWin_CM7_wc32.a(WM_Timer.o)
GUI_TIMER_SetDelay                                Middlewares/STemWin/Lib/STemWin_CM7_wc32.a(GUI_Timer.o)
GUI_TIMER_SetPeriod                               Middlewares/STemWin/Lib/STemWin_CM7_wc32.a(GUI_Timer.o)
                                                  Middlewares/STemWin/Lib/STemWin_CM7_wc32.a(GUI_SPRITE_Anim.o)
                                                  Middlewares/STemWin/Lib/STemWin_CM7_wc32.a(WM_Timer.o)
GUI_TIMER_SetTime                                 Middlewares/STemWin/Lib/STemWin_CM7_wc32.a(GUI_Timer.o)
GUI_TIMER__GetFirstTimer                          Middlewares/STemWin/Lib/STemWin_CM7_wc32.a(GUI_Timer.o)
                                                  Middlewares/STemWin/Lib/STemWin_CM7_wc32.a(WM_Timer.o)
GUI_TIMER__GetNextTimer                           Middlewares/STemWin/Lib/STemWin_CM7_wc32.a(GUI_Timer.o)
GUI_TIMER__GetNextTimerLin                        Middlewares/STemWin/Lib/STemWin_CM7_wc32.a(GUI_Timer.o)
                                                  Middlewares/STemWin/Lib/STemWin_CM7_wc32.a(WM_Timer.o)
GUI_TIMER__GetPeriod                              Middlewares/STemWin/Lib/STemWin_CM7_wc32.a(GUI_Timer.o)
                                                  Middlewares/STemWin/Lib/STemWin_CM7_wc32.a(GUI_WaitEvent.o)
GUI_TIMER__IsActive                               Middlewares/STemWin/Lib/STemWin_CM7_wc32.a(GUI_Timer.o)
                                                  Middlewares/STemWin/Lib/STemWin_CM7_wc32.a(GUI_WaitEvent.o)
GUI_UC_Encode                                     Middlewares/STemWin/Lib/STemWin_CM7_wc32.a(GUI_UC.o)
                                                  Middlewares/STemWin/Lib/STemWin_CM7_wc32.a(MULTIEDIT.o)
GUI_UC_GetCharCode                                Middlewares/STemWin/Lib/STemWin_CM7_wc32.a(GUI_UC.o)
                                                  Middlewares/STemWin/Lib/STemWin_CM7_wc32.a(GUI__GetCursorPos.o)
                                                  Middlewares/STemWin/Lib/STemWin_CM7_wc32.a(MULTIEDIT.o)
GUI_UC_GetCharSize                                Middlewares/STemWin/Lib/STemWin_CM7_wc32.a(GUI_UC.o)
                                                  Middlewares/STemWin/Lib/STemWin_CM7_wc32.a(GUI__GetCursorPos.o)
                                                  Middlewares/STemWin/Lib/STemWin_CM7_wc32.a(MULTIEDIT.o)
GUI_UC_None                                       Middlewares/STemWin/Lib/STemWin_CM7_wc32.a(GUI_UC_EncodeNone.o)
                                                  Middlewares/STemWin/Lib/STemWin_CM7_wc32.a(GUI_Core.o)
GUI_UC_SetEncodeNone                              Middlewares/STemWin/Lib/STemWin_CM7_wc32.a(GUI_UC_EncodeNone.o)
GUI_UC__CalcSizeOfChar                            Middlewares/STemWin/Lib/STemWin_CM7_wc32.a(GUI_UC.o)
                                                  Middlewares/STemWin/Lib/STemWin_CM7_wc32.a(MULTIEDIT.o)
GUI_UC__GetCharCodeInc                            Middlewares/STemWin/Lib/STemWin_CM7_wc32.a(GUI_UC.o)
                                                  Middlewares/STemWin/Lib/STemWin_CM7_wc32.a(GUI__GetCursorPos.o)
                                                  Middlewares/STemWin/Lib/STemWin_CM7_wc32.a(GUI_CharLine.o)
                                                  Middlewares/STemWin/Lib/STemWin_CM7_wc32.a(MULTIEDIT.o)
                                                  Middlewares/STemWin/Lib/STemWin_CM7_wc32.a(GUI__Wrap.o)
                                                  Middlewares/STemWin/Lib/STemWin_CM7_wc32.a(GUI__Private.o)
                                                  Middlewares/STemWin/Lib/STemWin_CM7_wc32.a(GUI_DispString.o)
GUI_UC__NumBytes2NumChars                         Middlewares/STemWin/Lib/STemWin_CM7_wc32.a(GUI_UC.o)
                                                  Middlewares/STemWin/Lib/STemWin_CM7_wc32.a(GUI__GetCursorPos.o)
                                                  Middlewares/STemWin/Lib/STemWin_CM7_wc32.a(MULTIEDIT.o)
GUI_UC__NumChars2NumBytes                         Middlewares/STemWin/Lib/STemWin_CM7_wc32.a(GUI_UC.o)
                                                  Middlewares/STemWin/Lib/STemWin_CM7_wc32.a(MULTIEDIT.o)
                                                  Middlewares/STemWin/Lib/STemWin_CM7_wc32.a(GUI__Wrap.o)
                                                  Middlewares/STemWin/Lib/STemWin_CM7_wc32.a(GUI_DispString.o)
                                                  Middlewares/STemWin/Lib/STemWin_CM7_wc32.a(GUI_Common.o)
GUI_USAGE_AddRect                                 Middlewares/STemWin/Lib/STemWin_CM7_wc32.a(GUIDEV_Usage.o)
                                                  Middlewares/STemWin/Lib/STemWin_CM7_wc32.a(GUIDEV.o)
                                                  Middlewares/STemWin/Lib/STemWin_CM7_wc32.a(GUIDEV_32.o)
GUI_USAGE_BM_Create                               Middlewares/STemWin/Lib/STemWin_CM7_wc32.a(GUIDEV_UsageBM.o)
                                                  Middlewares/STemWin/Lib/STemWin_CM7_wc32.a(GUIDEV.o)
GUI_USAGE_DecUseCnt                               Middlewares/STemWin/Lib/STemWin_CM7_wc32.a(GUIDEV_Usage.o)
                                                  Middlewares/STemWin/Lib/STemWin_CM7_wc32.a(GUIDEV.o)
GUI_USAGE_Select                                  Middlewares/STemWin/Lib/STemWin_CM7_wc32.a(GUIDEV_Usage.o)
GUI_WaitEvent                                     Middlewares/STemWin/Lib/STemWin_CM7_wc32.a(GUI_WaitEvent.o)
                                                  Middlewares/STemWin/Lib/STemWin_CM7_wc32.a(DIALOG.o)
                                                  Middlewares/STemWin/Lib/STemWin_CM7_wc32.a(GUI_Common.o)
GUI_WaitKey                                       Middlewares/STemWin/Lib/STemWin_CM7_wc32.a(GUI_Common.o)
GUI_WrapGetNumLines                               Middlewares/STemWin/Lib/STemWin_CM7_wc32.a(GUI_DispString.o)
                                                  Middlewares/STemWin/Lib/STemWin_CM7_wc32.a(TEXT.o)
GUI_WrapGetPositions                              Middlewares/STemWin/Lib/STemWin_CM7_wc32.a(GUI__Wrap.o)
GUI_WrapSetSeparators                             Middlewares/STemWin/Lib/STemWin_CM7_wc32.a(GUI__Wrap.o)
GUI_X_Config                                      build/GUIConf.o
                                                  Middlewares/STemWin/Lib/STemWin_CM7_wc32.a(GUI_Core.o)
GUI_X_Delay                                       build/GUI_X.o
                                                  Middlewares/STemWin/Lib/STemWin_CM7_wc32.a(GUI_Time.o)
GUI_X_ErrorOut                                    build/GUI_X.o
GUI_X_ExecIdle                                    build/GUI_X.o
                                                  Middlewares/STemWin/Lib/STemWin_CM7_wc32.a(GUI_WaitEvent.o)
GUI_X_GetTime                                     build/GUI_X.o
                                                  Middlewares/STemWin/Lib/STemWin_CM7_wc32.a(GUI_Time.o)
GUI_X_Init                                        build/GUI_X.o
                                                  Middlewares/STemWin/Lib/STemWin_CM7_wc32.a(GUI_Core.o)
GUI_X_Log                                         build/GUI_X.o
GUI_X_Warn                                        build/GUI_X.o
GUI__ASinHQ                                       Middlewares/STemWin/Lib/STemWin_CM7_wc32.a(GUI__SinHQ.o)
GUI__ATan2                                        Middlewares/STemWin/Lib/STemWin_CM7_wc32.a(GUI__SinHQ.o)
GUI__AddSpaceHex                                  Middlewares/STemWin/Lib/STemWin_CM7_wc32.a(GUI__Private.o)
GUI__AllocAlphaBuffer                             Middlewares/STemWin/Lib/STemWin_CM7_wc32.a(GUI__Alpha.o)
                                                  Middlewares/STemWin/Lib/STemWin_CM7_wc32.a(GUIDEV_WriteToActiveAlpha.o)
GUI__AlphaPreserveTrans                           Middlewares/STemWin/Lib/STemWin_CM7_wc32.a(GUI_SetAlpha.o)
                                                  Middlewares/STemWin/Lib/STemWin_CM7_wc32.a(GUIDEV_StaticDevices.o)
GUI__BIDI_Enabled                                 Middlewares/STemWin/Lib/STemWin_CM7_wc32.a(GUI__BiDiRouting.o)
                                                  Middlewares/STemWin/Lib/STemWin_CM7_wc32.a(MULTIEDIT.o)
GUI__BkColorDefault                               Middlewares/STemWin/Lib/STemWin_CM7_wc32.a(GUI_Core.o)
                                                  Middlewares/STemWin/Lib/STemWin_CM7_wc32.a(LCD.o)
                                                  Middlewares/STemWin/Lib/STemWin_CM7_wc32.a(GUI_Common.o)
GUI__BufferSize                                   Middlewares/STemWin/Lib/STemWin_CM7_wc32.a(GUI_Core.o)
                                                  Middlewares/STemWin/Lib/STemWin_CM7_wc32.a(GUI__Alpha.o)
GUI__CalcTextRect                                 Middlewares/STemWin/Lib/STemWin_CM7_wc32.a(GUI__Private.o)
GUI__ClearTextBackground                          Middlewares/STemWin/Lib/STemWin_CM7_wc32.a(GUI_DispStringInRectEx.o)
GUI__ColorDefault                                 Middlewares/STemWin/Lib/STemWin_CM7_wc32.a(GUI_Core.o)
                                                  Middlewares/STemWin/Lib/STemWin_CM7_wc32.a(GUI_Common.o)
GUI__CompactPixelIndices                          Middlewares/STemWin/Lib/STemWin_CM7_wc32.a(GUI__CompactPixelIndices.o)
                                                  Middlewares/STemWin/Lib/STemWin_CM7_wc32.a(GUI_SetAlpha.o)
                                                  Middlewares/STemWin/Lib/STemWin_CM7_wc32.a(GUIDEV_WriteToActiveOpaque.o)
                                                  Middlewares/STemWin/Lib/STemWin_CM7_wc32.a(GUI_SPRITE.o)
GUI__CompactPixelIndicesEx                        Middlewares/STemWin/Lib/STemWin_CM7_wc32.a(GUI__CompactPixelIndices.o)
                                                  Middlewares/STemWin/Lib/STemWin_CM7_wc32.a(GUIDEV_WriteToActiveAlpha.o)
GUI__Config                                       Middlewares/STemWin/Lib/STemWin_CM7_wc32.a(GUI_Core.o)
GUI__ConvertColor2Index                           Middlewares/STemWin/Lib/STemWin_CM7_wc32.a(GUI__CompactPixelIndices.o)
GUI__CosHQ                                        Middlewares/STemWin/Lib/STemWin_CM7_wc32.a(GUI__SinHQ.o)
                                                  Middlewares/STemWin/Lib/STemWin_CM7_wc32.a(GUI_Arc.o)
                                                  Middlewares/STemWin/Lib/STemWin_CM7_wc32.a(GUI_Common.o)
GUI__DispLine                                     Middlewares/STemWin/Lib/STemWin_CM7_wc32.a(GUI_CharLine.o)
                                                  Middlewares/STemWin/Lib/STemWin_CM7_wc32.a(GUI_DispString.o)
GUI__DispStringInRect                             Middlewares/STemWin/Lib/STemWin_CM7_wc32.a(GUI_DispString.o)
                                                  Middlewares/STemWin/Lib/STemWin_CM7_wc32.a(GUI_DispStringInRectEx.o)
GUI__DivideRound                                  Middlewares/STemWin/Lib/STemWin_CM7_wc32.a(GUI__Private.o)
GUI__DivideRound32                                Middlewares/STemWin/Lib/STemWin_CM7_wc32.a(GUI__Private.o)
                                                  Middlewares/STemWin/Lib/STemWin_CM7_wc32.a(SCROLLBAR_Skin.o)
                                                  Middlewares/STemWin/Lib/STemWin_CM7_wc32.a(SCROLLBAR.o)
GUI__DoAlphaBlending                              Middlewares/STemWin/Lib/STemWin_CM7_wc32.a(GUI__Alpha.o)
                                                  Middlewares/STemWin/Lib/STemWin_CM7_wc32.a(GUIDEV_WriteToActiveAlpha.o)
GUI__DrawTwinArc2                                 Middlewares/STemWin/Lib/STemWin_CM7_wc32.a(GUI__DrawTwinArc.o)
                                                  Middlewares/STemWin/Lib/STemWin_CM7_wc32.a(FRAMEWIN_SkinFlex.o)
GUI__DrawTwinArc4                                 Middlewares/STemWin/Lib/STemWin_CM7_wc32.a(GUI__DrawTwinArc.o)
                                                  Middlewares/STemWin/Lib/STemWin_CM7_wc32.a(BUTTON_SkinFlex.o)
GUI__ExpandPixelIndices                           Middlewares/STemWin/Lib/STemWin_CM7_wc32.a(GUI__ExpandPixelIndices.o)
                                                  Middlewares/STemWin/Lib/STemWin_CM7_wc32.a(GUI_SetAlpha.o)
                                                  Middlewares/STemWin/Lib/STemWin_CM7_wc32.a(LCD_ReadRect.o)
GUI__ExpandPixelIndicesEx                         Middlewares/STemWin/Lib/STemWin_CM7_wc32.a(GUI__ExpandPixelIndices.o)
                                                  Middlewares/STemWin/Lib/STemWin_CM7_wc32.a(GUI__Alpha.o)
GUI__FillTrippleArc                               Middlewares/STemWin/Lib/STemWin_CM7_wc32.a(GUI__DrawTwinArc.o)
GUI__GetAlphaBuffer                               Middlewares/STemWin/Lib/STemWin_CM7_wc32.a(GUI__Alpha.o)
GUI__GetCursorCharacter                           Middlewares/STemWin/Lib/STemWin_CM7_wc32.a(GUI__GetCursorPos.o)
GUI__GetCursorPosChar                             Middlewares/STemWin/Lib/STemWin_CM7_wc32.a(GUI__GetCursorPos.o)
                                                  Middlewares/STemWin/Lib/STemWin_CM7_wc32.a(MULTIEDIT.o)
GUI__GetCursorPosX                                Middlewares/STemWin/Lib/STemWin_CM7_wc32.a(GUI__GetCursorPos.o)
                                                  Middlewares/STemWin/Lib/STemWin_CM7_wc32.a(MULTIEDIT.o)
GUI__GetCursorPos_pfGetCharacter                  Middlewares/STemWin/Lib/STemWin_CM7_wc32.a(GUI__GetCursorPos.o)
GUI__GetCursorPos_pfGetPosChar                    Middlewares/STemWin/Lib/STemWin_CM7_wc32.a(GUI__GetCursorPos.o)
GUI__GetCursorPos_pfGetPosX                       Middlewares/STemWin/Lib/STemWin_CM7_wc32.a(GUI__GetCursorPos.o)
GUI__GetFontSizeY                                 Middlewares/STemWin/Lib/STemWin_CM7_wc32.a(GUI_Common.o)
GUI__GetLineDistX                                 Middlewares/STemWin/Lib/STemWin_CM7_wc32.a(GUI_CharLine.o)
                                                  Middlewares/STemWin/Lib/STemWin_CM7_wc32.a(MULTIEDIT.o)
                                                  Middlewares/STemWin/Lib/STemWin_CM7_wc32.a(GUI_DispString.o)
                                                  Middlewares/STemWin/Lib/STemWin_CM7_wc32.a(GUI_Common.o)
GUI__GetLineNumChars                              Middlewares/STemWin/Lib/STemWin_CM7_wc32.a(GUI_CharLine.o)
                                                  Middlewares/STemWin/Lib/STemWin_CM7_wc32.a(MULTIEDIT.o)
                                                  Middlewares/STemWin/Lib/STemWin_CM7_wc32.a(GUI__Wrap.o)
                                                  Middlewares/STemWin/Lib/STemWin_CM7_wc32.a(GUI_DispString.o)
                                                  Middlewares/STemWin/Lib/STemWin_CM7_wc32.a(GUI_Common.o)
GUI__GetNumChars                                  Middlewares/STemWin/Lib/STemWin_CM7_wc32.a(GUI_UC.o)
                                                  Middlewares/STemWin/Lib/STemWin_CM7_wc32.a(MULTIEDIT.o)
                                                  Middlewares/STemWin/Lib/STemWin_CM7_wc32.a(GUI_DispString.o)
GUI__GetOrg                                       Middlewares/STemWin/Lib/STemWin_CM7_wc32.a(GUI_Common.o)
GUI__GetOverlap                                   Middlewares/STemWin/Lib/STemWin_CM7_wc32.a(GUI_CharLine.o)
                                                  Middlewares/STemWin/Lib/STemWin_CM7_wc32.a(GUI_DispChar.o)
GUI__HandleEOLine                                 Middlewares/STemWin/Lib/STemWin_CM7_wc32.a(GUI__Private.o)
                                                  Middlewares/STemWin/Lib/STemWin_CM7_wc32.a(GUI_DispString.o)
                                                  Middlewares/STemWin/Lib/STemWin_CM7_wc32.a(GUI_Common.o)
GUI__IntersectRect                                Middlewares/STemWin/Lib/STemWin_CM7_wc32.a(GUI__Private.o)
                                                  Middlewares/STemWin/Lib/STemWin_CM7_wc32.a(GUI_SPRITE.o)
                                                  Middlewares/STemWin/Lib/STemWin_CM7_wc32.a(WM_Lib.o)
                                                  Middlewares/STemWin/Lib/STemWin_CM7_wc32.a(WM.o)
GUI__IntersectRects                               Middlewares/STemWin/Lib/STemWin_CM7_wc32.a(GUI__Private.o)
                                                  Middlewares/STemWin/Lib/STemWin_CM7_wc32.a(LCD_SetClipRectEx.o)
                                                  Middlewares/STemWin/Lib/STemWin_CM7_wc32.a(WIDGET.o)
                                                  Middlewares/STemWin/Lib/STemWin_CM7_wc32.a(WM.o)
                                                  Middlewares/STemWin/Lib/STemWin_CM7_wc32.a(GUI_DispStringInRectEx.o)
                                                  Middlewares/STemWin/Lib/STemWin_CM7_wc32.a(GUI_DispString.o)
GUI__InvertRectColors                             Middlewares/STemWin/Lib/STemWin_CM7_wc32.a(GUI_Common.o)
                                                  Middlewares/STemWin/Lib/STemWin_CM7_wc32.a(MULTIEDIT.o)
GUI__IsInitialized                                Middlewares/STemWin/Lib/STemWin_CM7_wc32.a(GUI_Core.o)
GUI__LayerMask                                    Middlewares/STemWin/Lib/STemWin_CM7_wc32.a(GUI_Core.o)
                                                  Middlewares/STemWin/Lib/STemWin_CM7_wc32.a(GUI_MULTIBUF.o)
GUI__ManageCache                                  Middlewares/STemWin/Lib/STemWin_CM7_wc32.a(GUI__ManageCache.o)
                                                  Middlewares/STemWin/Lib/STemWin_CM7_wc32.a(GUI_CharLine.o)
                                                  Middlewares/STemWin/Lib/STemWin_CM7_wc32.a(WM.o)
GUI__ManageCacheEx                                Middlewares/STemWin/Lib/STemWin_CM7_wc32.a(GUI__ManageCache.o)
GUI__MixColors                                    Middlewares/STemWin/Lib/STemWin_CM7_wc32.a(GUI__Alpha.o)
GUI__MixColorsBulk                                Middlewares/STemWin/Lib/STemWin_CM7_wc32.a(GUI__Alpha.o)
GUI__NumLayersInUse                               Middlewares/STemWin/Lib/STemWin_CM7_wc32.a(GUI_Core.o)
                                                  Middlewares/STemWin/Lib/STemWin_CM7_wc32.a(GUI_Device.o)
GUI__PreserveTrans                                Middlewares/STemWin/Lib/STemWin_CM7_wc32.a(GUI_Core.o)
                                                  Middlewares/STemWin/Lib/STemWin_CM7_wc32.a(GUI_SetAlpha.o)
                                                  Middlewares/STemWin/Lib/STemWin_CM7_wc32.a(GUI_DrawBitmap.o)
GUI__Read16                                       Middlewares/STemWin/Lib/STemWin_CM7_wc32.a(GUI__Private.o)
GUI__Read32                                       Middlewares/STemWin/Lib/STemWin_CM7_wc32.a(GUI__Private.o)
GUI__ReduceRect                                   Middlewares/STemWin/Lib/STemWin_CM7_wc32.a(GUI__Private.o)
                                                  Middlewares/STemWin/Lib/STemWin_CM7_wc32.a(WM_SetCaptureMove.o)
                                                  Middlewares/STemWin/Lib/STemWin_CM7_wc32.a(GUI_DrawLib.o)
                                                  Middlewares/STemWin/Lib/STemWin_CM7_wc32.a(WIDGET.o)
                                                  Middlewares/STemWin/Lib/STemWin_CM7_wc32.a(GUI_Common.o)
GUI__RegisterExit                                 Middlewares/STemWin/Lib/STemWin_CM7_wc32.a(GUI_Core.o)
                                                  Middlewares/STemWin/Lib/STemWin_CM7_wc32.a(GUI_SetAlpha.o)
                                                  Middlewares/STemWin/Lib/STemWin_CM7_wc32.a(GUI__ManageCache.o)
                                                  Middlewares/STemWin/Lib/STemWin_CM7_wc32.a(GUI__Alpha.o)
                                                  Middlewares/STemWin/Lib/STemWin_CM7_wc32.a(GUI_Timer.o)
                                                  Middlewares/STemWin/Lib/STemWin_CM7_wc32.a(GUI_PID.o)
                                                  Middlewares/STemWin/Lib/STemWin_CM7_wc32.a(GUI_Cursor.o)
                                                  Middlewares/STemWin/Lib/STemWin_CM7_wc32.a(WM_Touch.o)
                                                  Middlewares/STemWin/Lib/STemWin_CM7_wc32.a(WM.o)
                                                  Middlewares/STemWin/Lib/STemWin_CM7_wc32.a(LCD_Color.o)
                                                  Middlewares/STemWin/Lib/STemWin_CM7_wc32.a(GUI_MULTIBUF.o)
GUI__RegisterInit                                 Middlewares/STemWin/Lib/STemWin_CM7_wc32.a(GUI_Core.o)
GUI__SetAlphaBufferSize                           Middlewares/STemWin/Lib/STemWin_CM7_wc32.a(GUI__Alpha.o)
GUI__SetPixelAlpha                                Middlewares/STemWin/Lib/STemWin_CM7_wc32.a(GUI__Private.o)
GUI__SetText                                      Middlewares/STemWin/Lib/STemWin_CM7_wc32.a(GUI__Private.o)
                                                  Middlewares/STemWin/Lib/STemWin_CM7_wc32.a(TEXT.o)
                                                  Middlewares/STemWin/Lib/STemWin_CM7_wc32.a(FRAMEWIN.o)
                                                  Middlewares/STemWin/Lib/STemWin_CM7_wc32.a(BUTTON.o)
GUI__SinHQ                                        Middlewares/STemWin/Lib/STemWin_CM7_wc32.a(GUI__SinHQ.o)
                                                  Middlewares/STemWin/Lib/STemWin_CM7_wc32.a(GUI_Arc.o)
                                                  Middlewares/STemWin/Lib/STemWin_CM7_wc32.a(GUI_Common.o)
GUI__WrapGetNumBytesToNextLine                    Middlewares/STemWin/Lib/STemWin_CM7_wc32.a(GUI__Wrap.o)
                                                  Middlewares/STemWin/Lib/STemWin_CM7_wc32.a(MULTIEDIT.o)
                                                  Middlewares/STemWin/Lib/STemWin_CM7_wc32.a(GUI_DispString.o)
GUI__WrapGetNumCharsDisp                          Middlewares/STemWin/Lib/STemWin_CM7_wc32.a(GUI__Wrap.o)
                                                  Middlewares/STemWin/Lib/STemWin_CM7_wc32.a(MULTIEDIT.o)
                                                  Middlewares/STemWin/Lib/STemWin_CM7_wc32.a(GUI_DispString.o)
GUI__WrapGetNumCharsToNextLine                    Middlewares/STemWin/Lib/STemWin_CM7_wc32.a(GUI__Wrap.o)
GUI__Wrap_pfGetCharWrap                           Middlewares/STemWin/Lib/STemWin_CM7_wc32.a(GUI__Wrap.o)
GUI__Wrap_pfGetWordWrap                           Middlewares/STemWin/Lib/STemWin_CM7_wc32.a(GUI__Wrap.o)
GUI__aNumBuffers                                  Middlewares/STemWin/Lib/STemWin_CM7_wc32.a(GUI_Core.o)
                                                  Middlewares/STemWin/Lib/STemWin_CM7_wc32.a(GUIDEV_Banding.o)
                                                  Middlewares/STemWin/Lib/STemWin_CM7_wc32.a(GUI_SPRITE.o)
                                                  Middlewares/STemWin/Lib/STemWin_CM7_wc32.a(GUI_MULTIBUF.o)
GUI__apDevice                                     Middlewares/STemWin/Lib/STemWin_CM7_wc32.a(GUI_Core.o)
                                                  Middlewares/STemWin/Lib/STemWin_CM7_wc32.a(GUI_SetAlpha.o)
                                                  Middlewares/STemWin/Lib/STemWin_CM7_wc32.a(GUIDEV_WriteToActiveOpaque.o)
                                                  Middlewares/STemWin/Lib/STemWin_CM7_wc32.a(GUIDEV.o)
                                                  Middlewares/STemWin/Lib/STemWin_CM7_wc32.a(LCD_SetClipRectEx.o)
                                                  Middlewares/STemWin/Lib/STemWin_CM7_wc32.a(LCD_AA.o)
                                                  Middlewares/STemWin/Lib/STemWin_CM7_wc32.a(GUI__Alpha.o)
                                                  Middlewares/STemWin/Lib/STemWin_CM7_wc32.a(GUI_SPRITE.o)
                                                  Middlewares/STemWin/Lib/STemWin_CM7_wc32.a(GUI_FillPolygon.o)
                                                  Middlewares/STemWin/Lib/STemWin_CM7_wc32.a(GUIDEV_WriteToActiveAlpha.o)
                                                  Middlewares/STemWin/Lib/STemWin_CM7_wc32.a(LCD_Set.o)
                                                  Middlewares/STemWin/Lib/STemWin_CM7_wc32.a(LCD_SelectLCD.o)
                                                  Middlewares/STemWin/Lib/STemWin_CM7_wc32.a(LCD_RotateCW.o)
                                                  Middlewares/STemWin/Lib/STemWin_CM7_wc32.a(LCD_RotateCCW.o)
                                                  Middlewares/STemWin/Lib/STemWin_CM7_wc32.a(LCD_Rotate180.o)
                                                  Middlewares/STemWin/Lib/STemWin_CM7_wc32.a(LCD_GetP.o)
                                                  Middlewares/STemWin/Lib/STemWin_CM7_wc32.a(LCD_GetEx.o)
                                                  Middlewares/STemWin/Lib/STemWin_CM7_wc32.a(LCD_Color.o)
                                                  Middlewares/STemWin/Lib/STemWin_CM7_wc32.a(LCD.o)
                                                  Middlewares/STemWin/Lib/STemWin_CM7_wc32.a(GUI__Private.o)
                                                  Middlewares/STemWin/Lib/STemWin_CM7_wc32.a(GUI_Device.o)
                                                  Middlewares/STemWin/Lib/STemWin_CM7_wc32.a(GUI_Common.o)
GUI__memcpy                                       Middlewares/STemWin/Lib/STemWin_CM7_wc32.a(GUI__Private.o)
GUI__memset                                       Middlewares/STemWin/Lib/STemWin_CM7_wc32.a(GUI__Private.o)
                                                  Middlewares/STemWin/Lib/STemWin_CM7_wc32.a(GUIDRV_Lin_32.o)
GUI__memset16                                     Middlewares/STemWin/Lib/STemWin_CM7_wc32.a(GUI__Private.o)
GUI__pFontDefault                                 Middlewares/STemWin/Lib/STemWin_CM7_wc32.a(GUI_Core.o)
                                                  Middlewares/STemWin/Lib/STemWin_CM7_wc32.a(GUI_Common.o)
GUI__pfDrawAlphaBitmapFunc                        Middlewares/STemWin/Lib/STemWin_CM7_wc32.a(GUI__Alpha.o)
GUI__pfDrawAlphaMemdevFunc                        Middlewares/STemWin/Lib/STemWin_CM7_wc32.a(GUI__Alpha.o)
GUI__pfDrawM565BitmapFunc                         Middlewares/STemWin/Lib/STemWin_CM7_wc32.a(GUI_Core.o)
GUI__pfDrawM565MemdevFunc                         Middlewares/STemWin/Lib/STemWin_CM7_wc32.a(GUI_Core.o)
GUI__pfMemcpy                                     Middlewares/STemWin/Lib/STemWin_CM7_wc32.a(GUI__Private.o)
                                                  Middlewares/STemWin/Lib/STemWin_CM7_wc32.a(GUI_SetAlpha.o)
                                                  Middlewares/STemWin/Lib/STemWin_CM7_wc32.a(WM_UserData.o)
                                                  Middlewares/STemWin/Lib/STemWin_CM7_wc32.a(GUIDEV_StaticDevices.o)
                                                  Middlewares/STemWin/Lib/STemWin_CM7_wc32.a(TEXT.o)
                                                  Middlewares/STemWin/Lib/STemWin_CM7_wc32.a(MULTIEDIT.o)
                                                  Middlewares/STemWin/Lib/STemWin_CM7_wc32.a(FRAMEWIN.o)
                                                  Middlewares/STemWin/Lib/STemWin_CM7_wc32.a(BUTTON.o)
                                                  Middlewares/STemWin/Lib/STemWin_CM7_wc32.a(GUIDEV_32.o)
                                                  Middlewares/STemWin/Lib/STemWin_CM7_wc32.a(GUIDRV_Lin_32.o)
                                                  Middlewares/STemWin/Lib/STemWin_CM7_wc32.a(GUI_Core.o)
                                                  Middlewares/STemWin/Lib/STemWin_CM7_wc32.a(GUI_Alloc.o)
GUI__pfMemset                                     Middlewares/STemWin/Lib/STemWin_CM7_wc32.a(GUI__Private.o)
                                                  Middlewares/STemWin/Lib/STemWin_CM7_wc32.a(GUIDEV_StaticDevices.o)
                                                  Middlewares/STemWin/Lib/STemWin_CM7_wc32.a(GUI_Cursor.o)
                                                  Middlewares/STemWin/Lib/STemWin_CM7_wc32.a(WM.o)
                                                  Middlewares/STemWin/Lib/STemWin_CM7_wc32.a(GUI_MULTIBUF.o)
                                                  Middlewares/STemWin/Lib/STemWin_CM7_wc32.a(GUI_Core.o)
                                                  Middlewares/STemWin/Lib/STemWin_CM7_wc32.a(GUI_Alloc.o)
GUI__pfMixColors                                  Middlewares/STemWin/Lib/STemWin_CM7_wc32.a(GUI__Alpha.o)
                                                  Middlewares/STemWin/Lib/STemWin_CM7_wc32.a(GUI_SetAlpha.o)
                                                  Middlewares/STemWin/Lib/STemWin_CM7_wc32.a(GUIDEV_StaticDevices.o)
                                                  Middlewares/STemWin/Lib/STemWin_CM7_wc32.a(LCD_AA.o)
                                                  Middlewares/STemWin/Lib/STemWin_CM7_wc32.a(GUI_SPRITE.o)
                                                  Middlewares/STemWin/Lib/STemWin_CM7_wc32.a(GUIDEV_32.o)
                                                  Middlewares/STemWin/Lib/STemWin_CM7_wc32.a(GUI__Private.o)
GUI__pfMixColorsBulk                              Middlewares/STemWin/Lib/STemWin_CM7_wc32.a(GUI__Alpha.o)
GUI__sqrt32                                       Middlewares/STemWin/Lib/STemWin_CM7_wc32.a(GUI__Private.o)
                                                  Middlewares/STemWin/Lib/STemWin_CM7_wc32.a(GUI_Circ.o)
                                                  Middlewares/STemWin/Lib/STemWin_CM7_wc32.a(GUI__DrawTwinArc.o)
                                                  Middlewares/STemWin/Lib/STemWin_CM7_wc32.a(GUI__SinHQ.o)
GUI__strcmp                                       Middlewares/STemWin/Lib/STemWin_CM7_wc32.a(GUI__Private.o)
GUI__strcmp_hp                                    Middlewares/STemWin/Lib/STemWin_CM7_wc32.a(GUI__Private.o)
GUI__strlen                                       Middlewares/STemWin/Lib/STemWin_CM7_wc32.a(GUI__Private.o)
GUI_cos                                           Middlewares/STemWin/Lib/STemWin_CM7_wc32.a(GUI_DrawLine.o)
GUI_pContext                                      Middlewares/STemWin/Lib/STemWin_CM7_wc32.a(GUI_Core.o)
                                                  Middlewares/STemWin/Lib/STemWin_CM7_wc32.a(GUIDEV_GetXSize.o)
                                                  Middlewares/STemWin/Lib/STemWin_CM7_wc32.a(GUIDEV_GetPos.o)
                                                  Middlewares/STemWin/Lib/STemWin_CM7_wc32.a(GUI_SetAlpha.o)
                                                  Middlewares/STemWin/Lib/STemWin_CM7_wc32.a(GUI_Circ.o)
                                                  Middlewares/STemWin/Lib/STemWin_CM7_wc32.a(GUI_CharP.o)
                                                  Middlewares/STemWin/Lib/STemWin_CM7_wc32.a(GUI_Arc.o)
                                                  Middlewares/STemWin/Lib/STemWin_CM7_wc32.a(GUIDEV_WriteToActiveOpaque.o)
                                                  Middlewares/STemWin/Lib/STemWin_CM7_wc32.a(GUIDEV_SetOrg.o)
                                                  Middlewares/STemWin/Lib/STemWin_CM7_wc32.a(GUIDEV_ReduceYSize.o)
                                                  Middlewares/STemWin/Lib/STemWin_CM7_wc32.a(GUIDEV_GetYSize.o)
                                                  Middlewares/STemWin/Lib/STemWin_CM7_wc32.a(GUIDEV_Clear.o)
                                                  Middlewares/STemWin/Lib/STemWin_CM7_wc32.a(GUIDEV_Banding.o)
                                                  Middlewares/STemWin/Lib/STemWin_CM7_wc32.a(GUIDEV.o)
                                                  Middlewares/STemWin/Lib/STemWin_CM7_wc32.a(LCD_SetClipRectEx.o)
                                                  Middlewares/STemWin/Lib/STemWin_CM7_wc32.a(LCD_ReadRect.o)
                                                  Middlewares/STemWin/Lib/STemWin_CM7_wc32.a(LCD_AA.o)
                                                  Middlewares/STemWin/Lib/STemWin_CM7_wc32.a(GUI__ManageCache.o)
                                                  Middlewares/STemWin/Lib/STemWin_CM7_wc32.a(GUI__DrawTwinArc.o)
                                                  Middlewares/STemWin/Lib/STemWin_CM7_wc32.a(GUI__Alpha.o)
                                                  Middlewares/STemWin/Lib/STemWin_CM7_wc32.a(GUI_SPRITE_Anim.o)
                                                  Middlewares/STemWin/Lib/STemWin_CM7_wc32.a(GUI_SPRITE.o)
                                                  Middlewares/STemWin/Lib/STemWin_CM7_wc32.a(GUI_FillPolygon.o)
                                                  Middlewares/STemWin/Lib/STemWin_CM7_wc32.a(GUI_DrawLine.o)
                                                  Middlewares/STemWin/Lib/STemWin_CM7_wc32.a(GUI_DrawLib.o)
                                                  Middlewares/STemWin/Lib/STemWin_CM7_wc32.a(GUI_DrawGradient.o)
                                                  Middlewares/STemWin/Lib/STemWin_CM7_wc32.a(GUI_DrawBitmap.o)
                                                  Middlewares/STemWin/Lib/STemWin_CM7_wc32.a(GUI_DispChar.o)
                                                  Middlewares/STemWin/Lib/STemWin_CM7_wc32.a(GUI_Cursor.o)
                                                  Middlewares/STemWin/Lib/STemWin_CM7_wc32.a(GUI_CharM.o)
                                                  Middlewares/STemWin/Lib/STemWin_CM7_wc32.a(GUI_CharLine.o)
                                                  Middlewares/STemWin/Lib/STemWin_CM7_wc32.a(GUI_Char.o)
                                                  Middlewares/STemWin/Lib/STemWin_CM7_wc32.a(GUI_2DLib.o)
                                                  Middlewares/STemWin/Lib/STemWin_CM7_wc32.a(GUICC_0.o)
                                                  Middlewares/STemWin/Lib/STemWin_CM7_wc32.a(WIDGET.o)
                                                  Middlewares/STemWin/Lib/STemWin_CM7_wc32.a(WM__Private.o)
                                                  Middlewares/STemWin/Lib/STemWin_CM7_wc32.a(WM_Lib.o)
                                                  Middlewares/STemWin/Lib/STemWin_CM7_wc32.a(WM.o)
                                                  Middlewares/STemWin/Lib/STemWin_CM7_wc32.a(GUIDEV_WriteToActiveAlpha.o)
                                                  Middlewares/STemWin/Lib/STemWin_CM7_wc32.a(GUIDEV_Usage.o)
                                                  Middlewares/STemWin/Lib/STemWin_CM7_wc32.a(GUIDEV_32.o)
                                                  Middlewares/STemWin/Lib/STemWin_CM7_wc32.a(GUIDRV_Lin_32.o)
                                                  Middlewares/STemWin/Lib/STemWin_CM7_wc32.a(LCD_UpdateColorIndices.o)
                                                  Middlewares/STemWin/Lib/STemWin_CM7_wc32.a(LCD_Set.o)
                                                  Middlewares/STemWin/Lib/STemWin_CM7_wc32.a(LCD_SelectLCD.o)
                                                  Middlewares/STemWin/Lib/STemWin_CM7_wc32.a(LCD_RotateCW.o)
                                                  Middlewares/STemWin/Lib/STemWin_CM7_wc32.a(LCD_RotateCCW.o)
                                                  Middlewares/STemWin/Lib/STemWin_CM7_wc32.a(LCD_Rotate180.o)
                                                  Middlewares/STemWin/Lib/STemWin_CM7_wc32.a(LCD_GetP.o)
                                                  Middlewares/STemWin/Lib/STemWin_CM7_wc32.a(LCD_GetEx.o)
                                                  Middlewares/STemWin/Lib/STemWin_CM7_wc32.a(LCD_GetColorIndex.o)
                                                  Middlewares/STemWin/Lib/STemWin_CM7_wc32.a(LCD_Color.o)
                                                  Middlewares/STemWin/Lib/STemWin_CM7_wc32.a(LCD.o)
                                                  Middlewares/STemWin/Lib/STemWin_CM7_wc32.a(GUI__Private.o)
                                                  Middlewares/STemWin/Lib/STemWin_CM7_wc32.a(GUI_SelectLayer.o)
                                                  Middlewares/STemWin/Lib/STemWin_CM7_wc32.a(GUI_MULTIBUF.o)
                                                  Middlewares/STemWin/Lib/STemWin_CM7_wc32.a(GUI_DispStringInRectEx.o)
                                                  Middlewares/STemWin/Lib/STemWin_CM7_wc32.a(GUI_DispString.o)
                                                  Middlewares/STemWin/Lib/STemWin_CM7_wc32.a(GUI_Device.o)
                                                  Middlewares/STemWin/Lib/STemWin_CM7_wc32.a(GUI_Common.o)
GUI_pLCD_APIList                                  Middlewares/STemWin/Lib/STemWin_CM7_wc32.a(GUI_Core.o)
                                                  Middlewares/STemWin/Lib/STemWin_CM7_wc32.a(GUI_CharLine.o)
                                                  Middlewares/STemWin/Lib/STemWin_CM7_wc32.a(LCD.o)
                                                  Middlewares/STemWin/Lib/STemWin_CM7_wc32.a(GUI_DispStringInRectEx.o)
GUI_pUC_API                                       Middlewares/STemWin/Lib/STemWin_CM7_wc32.a(GUI_Core.o)
                                                  Middlewares/STemWin/Lib/STemWin_CM7_wc32.a(GUI__GetCursorPos.o)
                                                  Middlewares/STemWin/Lib/STemWin_CM7_wc32.a(MULTIEDIT.o)
                                                  Middlewares/STemWin/Lib/STemWin_CM7_wc32.a(GUI_UC_EncodeNone.o)
                                                  Middlewares/STemWin/Lib/STemWin_CM7_wc32.a(GUI_UC.o)
GUI_pfDispCharLine                                Middlewares/STemWin/Lib/STemWin_CM7_wc32.a(GUI_Core.o)
                                                  Middlewares/STemWin/Lib/STemWin_CM7_wc32.a(GUI_CharLine.o)
                                                  Middlewares/STemWin/Lib/STemWin_CM7_wc32.a(GUI_Common.o)
GUI_pfDispCharStyle                               Middlewares/STemWin/Lib/STemWin_CM7_wc32.a(GUI_Core.o)
                                                  Middlewares/STemWin/Lib/STemWin_CM7_wc32.a(GUI_CharLine.o)
                                                  Middlewares/STemWin/Lib/STemWin_CM7_wc32.a(GUI_Char.o)
                                                  Middlewares/STemWin/Lib/STemWin_CM7_wc32.a(GUI_Common.o)
GUI_pfExecAnimations                              Middlewares/STemWin/Lib/STemWin_CM7_wc32.a(GUI_Core.o)
                                                  Middlewares/STemWin/Lib/STemWin_CM7_wc32.a(GUI_Common.o)
GUI_pfGetpPalConvTable                            Middlewares/STemWin/Lib/STemWin_CM7_wc32.a(GUI_Core.o)
                                                  Middlewares/STemWin/Lib/STemWin_CM7_wc32.a(GUI_DrawLib.o)
                                                  Middlewares/STemWin/Lib/STemWin_CM7_wc32.a(GUI_DrawBitmap.o)
GUI_pfHookMTOUCH                                  Middlewares/STemWin/Lib/STemWin_CM7_wc32.a(GUI_Core.o)
GUI_pfTimerExec                                   Middlewares/STemWin/Lib/STemWin_CM7_wc32.a(GUI_Core.o)
                                                  Middlewares/STemWin/Lib/STemWin_CM7_wc32.a(GUI_Timer.o)
                                                  Middlewares/STemWin/Lib/STemWin_CM7_wc32.a(GUI_Common.o)
GUI_pfUpdateSoftLayer                             Middlewares/STemWin/Lib/STemWin_CM7_wc32.a(GUI_Core.o)
                                                  Middlewares/STemWin/Lib/STemWin_CM7_wc32.a(GUI_Common.o)
GUI_sin                                           Middlewares/STemWin/Lib/STemWin_CM7_wc32.a(GUI_DrawLine.o)
HAL_CRCEx_Input_Data_Reverse                      build/stm32f7xx_hal_crc_ex.o
HAL_CRCEx_Output_Data_Reverse                     build/stm32f7xx_hal_crc_ex.o
HAL_CRCEx_Polynomial_Set                          build/stm32f7xx_hal_crc_ex.o
                                                  build/stm32f7xx_hal_crc.o
HAL_CRC_Accumulate                                build/stm32f7xx_hal_crc.o
HAL_CRC_Calculate                                 build/stm32f7xx_hal_crc.o
HAL_CRC_DeInit                                    build/stm32f7xx_hal_crc.o
HAL_CRC_GetState                                  build/stm32f7xx_hal_crc.o
HAL_CRC_Init                                      build/stm32f7xx_hal_crc.o
                                                  build/main.o
HAL_CRC_MspDeInit                                 build/stm32f7xx_hal_crc.o
HAL_CRC_MspInit                                   build/stm32f7xx_hal_crc.o
HAL_DBGMCU_DisableDBGSleepMode                    build/stm32f7xx_hal.o
HAL_DBGMCU_DisableDBGStandbyMode                  build/stm32f7xx_hal.o
HAL_DBGMCU_DisableDBGStopMode                     build/stm32f7xx_hal.o
HAL_DBGMCU_EnableDBGSleepMode                     build/stm32f7xx_hal.o
HAL_DBGMCU_EnableDBGStandbyMode                   build/stm32f7xx_hal.o
HAL_DBGMCU_EnableDBGStopMode                      build/stm32f7xx_hal.o
HAL_DMA2D_Abort                                   build/stm32f7xx_hal_dma2d.o
HAL_DMA2D_BlendingStart                           build/stm32f7xx_hal_dma2d.o
HAL_DMA2D_BlendingStart_IT                        build/stm32f7xx_hal_dma2d.o
HAL_DMA2D_CLUTLoad                                build/stm32f7xx_hal_dma2d.o
HAL_DMA2D_CLUTLoad_IT                             build/stm32f7xx_hal_dma2d.o
HAL_DMA2D_CLUTLoadingCpltCallback                 build/stm32f7xx_hal_dma2d.o
HAL_DMA2D_CLUTLoading_Abort                       build/stm32f7xx_hal_dma2d.o
HAL_DMA2D_CLUTLoading_Resume                      build/stm32f7xx_hal_dma2d.o
HAL_DMA2D_CLUTLoading_Suspend                     build/stm32f7xx_hal_dma2d.o
HAL_DMA2D_ConfigCLUT                              build/stm32f7xx_hal_dma2d.o
HAL_DMA2D_ConfigDeadTime                          build/stm32f7xx_hal_dma2d.o
HAL_DMA2D_ConfigLayer                             build/stm32f7xx_hal_dma2d.o
                                                  build/stm32746g_discovery_lcd.o
                                                  build/main.o
HAL_DMA2D_DeInit                                  build/stm32f7xx_hal_dma2d.o
HAL_DMA2D_DisableDeadTime                         build/stm32f7xx_hal_dma2d.o
HAL_DMA2D_EnableCLUT                              build/stm32f7xx_hal_dma2d.o
HAL_DMA2D_EnableDeadTime                          build/stm32f7xx_hal_dma2d.o
HAL_DMA2D_GetError                                build/stm32f7xx_hal_dma2d.o
HAL_DMA2D_GetState                                build/stm32f7xx_hal_dma2d.o
HAL_DMA2D_IRQHandler                              build/stm32f7xx_hal_dma2d.o
                                                  build/stm32f7xx_it.o
HAL_DMA2D_Init                                    build/stm32f7xx_hal_dma2d.o
                                                  build/LCDConf.o
                                                  build/stm32746g_discovery_lcd.o
                                                  build/main.o
HAL_DMA2D_LineEventCallback                       build/stm32f7xx_hal_dma2d.o
HAL_DMA2D_MspDeInit                               build/LCDConf.o
                                                  build/stm32f7xx_hal_dma2d.o
HAL_DMA2D_MspInit                                 build/LCDConf.o
                                                  build/stm32f7xx_hal_dma2d.o
HAL_DMA2D_PollForTransfer                         build/stm32f7xx_hal_dma2d.o
                                                  build/stm32746g_discovery_lcd.o
HAL_DMA2D_ProgramLineEvent                        build/stm32f7xx_hal_dma2d.o
HAL_DMA2D_Resume                                  build/stm32f7xx_hal_dma2d.o
HAL_DMA2D_Start                                   build/stm32f7xx_hal_dma2d.o
                                                  build/stm32746g_discovery_lcd.o
HAL_DMA2D_Start_IT                                build/stm32f7xx_hal_dma2d.o
HAL_DMA2D_Suspend                                 build/stm32f7xx_hal_dma2d.o
HAL_DMAEx_ChangeMemory                            build/stm32f7xx_hal_dma_ex.o
HAL_DMAEx_MultiBufferStart                        build/stm32f7xx_hal_dma_ex.o
HAL_DMAEx_MultiBufferStart_IT                     build/stm32f7xx_hal_dma_ex.o
HAL_DMA_Abort                                     build/stm32f7xx_hal_dma.o
                                                  build/stm32f7xx_hal_uart.o
HAL_DMA_Abort_IT                                  build/stm32f7xx_hal_dma.o
                                                  build/stm32f7xx_hal_i2c.o
                                                  build/stm32f7xx_hal_uart.o
HAL_DMA_DeInit                                    build/stm32f7xx_hal_dma.o
                                                  build/stm32746g_discovery_sdram.o
HAL_DMA_GetError                                  build/stm32f7xx_hal_dma.o
                                                  build/stm32f7xx_hal_i2c.o
                                                  build/stm32f7xx_hal_uart.o
HAL_DMA_GetState                                  build/stm32f7xx_hal_dma.o
HAL_DMA_IRQHandler                                build/stm32f7xx_hal_dma.o
HAL_DMA_Init                                      build/stm32f7xx_hal_dma.o
                                                  build/stm32746g_discovery_sdram.o
                                                  build/main.o
HAL_DMA_PollForTransfer                           build/stm32f7xx_hal_dma.o
HAL_DMA_RegisterCallback                          build/stm32f7xx_hal_dma.o
HAL_DMA_Start                                     build/stm32f7xx_hal_dma.o
HAL_DMA_Start_IT                                  build/stm32f7xx_hal_dma.o
                                                  build/stm32f7xx_hal_i2c.o
                                                  build/stm32f7xx_hal_sdram.o
                                                  build/stm32f7xx_hal_uart.o
HAL_DMA_UnRegisterCallback                        build/stm32f7xx_hal_dma.o
HAL_DeInit                                        build/stm32f7xx_hal.o
HAL_Delay                                         build/stm32f7xx_hal.o
                                                  build/stm32746g_discovery_sdram.o
                                                  build/stm32746g_discovery.o
HAL_DisableCompensationCell                       build/stm32f7xx_hal.o
HAL_DisableFMCMemorySwapping                      build/stm32f7xx_hal.o
HAL_EXTI_ClearConfigLine                          build/stm32f7xx_hal_exti.o
HAL_EXTI_ClearPending                             build/stm32f7xx_hal_exti.o
HAL_EXTI_GenerateSWI                              build/stm32f7xx_hal_exti.o
HAL_EXTI_GetConfigLine                            build/stm32f7xx_hal_exti.o
HAL_EXTI_GetHandle                                build/stm32f7xx_hal_exti.o
HAL_EXTI_GetPending                               build/stm32f7xx_hal_exti.o
HAL_EXTI_IRQHandler                               build/stm32f7xx_hal_exti.o
HAL_EXTI_RegisterCallback                         build/stm32f7xx_hal_exti.o
HAL_EXTI_SetConfigLine                            build/stm32f7xx_hal_exti.o
HAL_EnableCompensationCell                        build/stm32f7xx_hal.o
HAL_EnableFMCMemorySwapping                       build/stm32f7xx_hal.o
HAL_FLASHEx_Erase                                 build/stm32f7xx_hal_flash_ex.o
HAL_FLASHEx_Erase_IT                              build/stm32f7xx_hal_flash_ex.o
HAL_FLASHEx_OBGetConfig                           build/stm32f7xx_hal_flash_ex.o
HAL_FLASHEx_OBProgram                             build/stm32f7xx_hal_flash_ex.o
HAL_FLASH_EndOfOperationCallback                  build/stm32f7xx_hal_flash.o
HAL_FLASH_GetError                                build/stm32f7xx_hal_flash.o
HAL_FLASH_IRQHandler                              build/stm32f7xx_hal_flash.o
HAL_FLASH_Lock                                    build/stm32f7xx_hal_flash.o
HAL_FLASH_OB_Launch                               build/stm32f7xx_hal_flash.o
HAL_FLASH_OB_Lock                                 build/stm32f7xx_hal_flash.o
HAL_FLASH_OB_Unlock                               build/stm32f7xx_hal_flash.o
HAL_FLASH_OperationErrorCallback                  build/stm32f7xx_hal_flash.o
HAL_FLASH_Program                                 build/stm32f7xx_hal_flash.o
HAL_FLASH_Program_IT                              build/stm32f7xx_hal_flash.o
HAL_FLASH_Unlock                                  build/stm32f7xx_hal_flash.o
HAL_GPIO_DeInit                                   build/stm32f7xx_hal_gpio.o
                                                  build/stm32746g_discovery_lcd.o
                                                  build/stm32746g_discovery.o
HAL_GPIO_EXTI_Callback                            build/stm32f7xx_hal_gpio.o
HAL_GPIO_EXTI_IRQHandler                          build/stm32f7xx_hal_gpio.o
HAL_GPIO_Init                                     build/stm32f7xx_hal_gpio.o
                                                  build/LCDConf.o
                                                  build/stm32746g_discovery_sdram.o
                                                  build/stm32746g_discovery_ts.o
                                                  build/stm32746g_discovery_lcd.o
                                                  build/stm32746g_discovery.o
                                                  build/stm32f7xx_hal_rcc.o
                                                  build/main.o
HAL_GPIO_LockPin                                  build/stm32f7xx_hal_gpio.o
HAL_GPIO_ReadPin                                  build/stm32f7xx_hal_gpio.o
                                                  build/stm32746g_discovery.o
HAL_GPIO_TogglePin                                build/stm32f7xx_hal_gpio.o
                                                  build/stm32746g_discovery.o
                                                  build/main.o
HAL_GPIO_WritePin                                 build/stm32f7xx_hal_gpio.o
                                                  build/LCDConf.o
                                                  build/stm32746g_discovery_lcd.o
                                                  build/stm32746g_discovery.o
                                                  build/main.o
HAL_GetDEVID                                      build/stm32f7xx_hal.o
HAL_GetHalVersion                                 build/stm32f7xx_hal.o
HAL_GetREVID                                      build/stm32f7xx_hal.o
HAL_GetTick                                       build/stm32f7xx_hal.o
                                                  build/stm32f7xx_hal_dma2d.o
                                                  build/stm32f7xx_ll_fmc.o
                                                  build/stm32f7xx_hal_dma.o
                                                  build/stm32f7xx_hal_i2c.o
                                                  build/stm32f7xx_hal_rcc.o
                                                  build/stm32f7xx_hal_flash.o
                                                  build/stm32f7xx_hal_pwr_ex.o
                                                  build/stm32f7xx_hal_rcc_ex.o
                                                  build/stm32f7xx_hal_uart.o
HAL_GetTickFreq                                   build/stm32f7xx_hal.o
HAL_GetTickPrio                                   build/stm32f7xx_hal.o
HAL_GetUIDw0                                      build/stm32f7xx_hal.o
HAL_GetUIDw1                                      build/stm32f7xx_hal.o
HAL_GetUIDw2                                      build/stm32f7xx_hal.o
HAL_HalfDuplex_EnableReceiver                     build/stm32f7xx_hal_uart.o
HAL_HalfDuplex_EnableTransmitter                  build/stm32f7xx_hal_uart.o
HAL_HalfDuplex_Init                               build/stm32f7xx_hal_uart.o
HAL_I2CEx_ConfigAnalogFilter                      build/stm32f7xx_hal_i2c_ex.o
                                                  build/main.o
HAL_I2CEx_ConfigDigitalFilter                     build/stm32f7xx_hal_i2c_ex.o
                                                  build/main.o
HAL_I2C_AbortCpltCallback                         build/stm32f7xx_hal_i2c.o
HAL_I2C_AddrCallback                              build/stm32f7xx_hal_i2c.o
HAL_I2C_DeInit                                    build/stm32f7xx_hal_i2c.o
                                                  build/stm32746g_discovery.o
HAL_I2C_DisableListen_IT                          build/stm32f7xx_hal_i2c.o
HAL_I2C_ER_IRQHandler                             build/stm32f7xx_hal_i2c.o
HAL_I2C_EV_IRQHandler                             build/stm32f7xx_hal_i2c.o
HAL_I2C_EnableListen_IT                           build/stm32f7xx_hal_i2c.o
HAL_I2C_ErrorCallback                             build/stm32f7xx_hal_i2c.o
HAL_I2C_GetError                                  build/stm32f7xx_hal_i2c.o
HAL_I2C_GetMode                                   build/stm32f7xx_hal_i2c.o
HAL_I2C_GetState                                  build/stm32f7xx_hal_i2c.o
                                                  build/stm32746g_discovery.o
HAL_I2C_Init                                      build/stm32f7xx_hal_i2c.o
                                                  build/stm32746g_discovery.o
                                                  build/main.o
HAL_I2C_IsDeviceReady                             build/stm32f7xx_hal_i2c.o
                                                  build/stm32746g_discovery.o
HAL_I2C_ListenCpltCallback                        build/stm32f7xx_hal_i2c.o
HAL_I2C_MasterRxCpltCallback                      build/stm32f7xx_hal_i2c.o
HAL_I2C_MasterTxCpltCallback                      build/stm32f7xx_hal_i2c.o
HAL_I2C_Master_Abort_IT                           build/stm32f7xx_hal_i2c.o
HAL_I2C_Master_Receive                            build/stm32f7xx_hal_i2c.o
HAL_I2C_Master_Receive_DMA                        build/stm32f7xx_hal_i2c.o
HAL_I2C_Master_Receive_IT                         build/stm32f7xx_hal_i2c.o
HAL_I2C_Master_Seq_Receive_DMA                    build/stm32f7xx_hal_i2c.o
HAL_I2C_Master_Seq_Receive_IT                     build/stm32f7xx_hal_i2c.o
HAL_I2C_Master_Seq_Transmit_DMA                   build/stm32f7xx_hal_i2c.o
HAL_I2C_Master_Seq_Transmit_IT                    build/stm32f7xx_hal_i2c.o
HAL_I2C_Master_Transmit                           build/stm32f7xx_hal_i2c.o
HAL_I2C_Master_Transmit_DMA                       build/stm32f7xx_hal_i2c.o
HAL_I2C_Master_Transmit_IT                        build/stm32f7xx_hal_i2c.o
HAL_I2C_MemRxCpltCallback                         build/stm32f7xx_hal_i2c.o
HAL_I2C_MemTxCpltCallback                         build/stm32f7xx_hal_i2c.o
HAL_I2C_Mem_Read                                  build/stm32f7xx_hal_i2c.o
                                                  build/stm32746g_discovery.o
HAL_I2C_Mem_Read_DMA                              build/stm32f7xx_hal_i2c.o
HAL_I2C_Mem_Read_IT                               build/stm32f7xx_hal_i2c.o
HAL_I2C_Mem_Write                                 build/stm32f7xx_hal_i2c.o
                                                  build/stm32746g_discovery.o
HAL_I2C_Mem_Write_DMA                             build/stm32f7xx_hal_i2c.o
HAL_I2C_Mem_Write_IT                              build/stm32f7xx_hal_i2c.o
HAL_I2C_MspDeInit                                 build/stm32f7xx_hal_i2c.o
HAL_I2C_MspInit                                   build/stm32f7xx_hal_i2c.o
HAL_I2C_SlaveRxCpltCallback                       build/stm32f7xx_hal_i2c.o
HAL_I2C_SlaveTxCpltCallback                       build/stm32f7xx_hal_i2c.o
HAL_I2C_Slave_Receive                             build/stm32f7xx_hal_i2c.o
HAL_I2C_Slave_Receive_DMA                         build/stm32f7xx_hal_i2c.o
HAL_I2C_Slave_Receive_IT                          build/stm32f7xx_hal_i2c.o
HAL_I2C_Slave_Seq_Receive_DMA                     build/stm32f7xx_hal_i2c.o
HAL_I2C_Slave_Seq_Receive_IT                      build/stm32f7xx_hal_i2c.o
HAL_I2C_Slave_Seq_Transmit_DMA                    build/stm32f7xx_hal_i2c.o
HAL_I2C_Slave_Seq_Transmit_IT                     build/stm32f7xx_hal_i2c.o
HAL_I2C_Slave_Transmit                            build/stm32f7xx_hal_i2c.o
HAL_I2C_Slave_Transmit_DMA                        build/stm32f7xx_hal_i2c.o
HAL_I2C_Slave_Transmit_IT                         build/stm32f7xx_hal_i2c.o
HAL_IncTick                                       build/stm32f7xx_hal.o
                                                  build/stm32f7xx_it.o
HAL_Init                                          build/stm32f7xx_hal.o
                                                  build/main.o
HAL_InitTick                                      build/stm32f7xx_hal.o
                                                  build/stm32f7xx_hal_rcc.o
HAL_LIN_Init                                      build/stm32f7xx_hal_uart.o
HAL_LIN_SendBreak                                 build/stm32f7xx_hal_uart.o
HAL_LTDC_ConfigCLUT                               build/stm32f7xx_hal_ltdc.o
                                                  build/LCDConf.o
HAL_LTDC_ConfigColorKeying                        build/stm32f7xx_hal_ltdc.o
                                                  build/LCDConf.o
                                                  build/stm32746g_discovery_lcd.o
HAL_LTDC_ConfigColorKeying_NoReload               build/stm32f7xx_hal_ltdc.o
                                                  build/stm32746g_discovery_lcd.o
HAL_LTDC_ConfigLayer                              build/stm32f7xx_hal_ltdc.o
                                                  build/LCDConf.o
                                                  build/stm32746g_discovery_lcd.o
                                                  build/main.o
HAL_LTDC_ConfigLayer_NoReload                     build/stm32f7xx_hal_ltdc.o
HAL_LTDC_DeInit                                   build/stm32f7xx_hal_ltdc.o
                                                  build/LCDConf.o
                                                  build/stm32746g_discovery_lcd.o
HAL_LTDC_DisableCLUT                              build/stm32f7xx_hal_ltdc.o
HAL_LTDC_DisableCLUT_NoReload                     build/stm32f7xx_hal_ltdc.o
HAL_LTDC_DisableColorKeying                       build/stm32f7xx_hal_ltdc.o
                                                  build/LCDConf.o
                                                  build/stm32746g_discovery_lcd.o
HAL_LTDC_DisableColorKeying_NoReload              build/stm32f7xx_hal_ltdc.o
                                                  build/stm32746g_discovery_lcd.o
HAL_LTDC_DisableDither                            build/stm32f7xx_hal_ltdc.o
HAL_LTDC_EnableCLUT                               build/stm32f7xx_hal_ltdc.o
                                                  build/LCDConf.o
HAL_LTDC_EnableCLUT_NoReload                      build/stm32f7xx_hal_ltdc.o
HAL_LTDC_EnableColorKeying                        build/stm32f7xx_hal_ltdc.o
                                                  build/LCDConf.o
                                                  build/stm32746g_discovery_lcd.o
HAL_LTDC_EnableColorKeying_NoReload               build/stm32f7xx_hal_ltdc.o
                                                  build/stm32746g_discovery_lcd.o
HAL_LTDC_EnableDither                             build/stm32f7xx_hal_ltdc.o
                                                  build/LCDConf.o
HAL_LTDC_ErrorCallback                            build/stm32f7xx_hal_ltdc.o
HAL_LTDC_GetError                                 build/stm32f7xx_hal_ltdc.o
HAL_LTDC_GetState                                 build/stm32f7xx_hal_ltdc.o
                                                  build/stm32746g_discovery_lcd.o
HAL_LTDC_IRQHandler                               build/stm32f7xx_hal_ltdc.o
                                                  build/stm32f7xx_it.o
HAL_LTDC_Init                                     build/stm32f7xx_hal_ltdc.o
                                                  build/LCDConf.o
                                                  build/stm32746g_discovery_lcd.o
                                                  build/main.o
HAL_LTDC_LineEventCallback                        build/LCDConf.o
                                                  build/stm32f7xx_hal_ltdc.o
HAL_LTDC_MspDeInit                                build/LCDConf.o
                                                  build/stm32f7xx_hal_ltdc.o
HAL_LTDC_MspInit                                  build/LCDConf.o
                                                  build/stm32f7xx_hal_ltdc.o
HAL_LTDC_ProgramLineEvent                         build/stm32f7xx_hal_ltdc.o
                                                  build/LCDConf.o
HAL_LTDC_Reload                                   build/stm32f7xx_hal_ltdc.o
                                                  build/stm32746g_discovery_lcd.o
HAL_LTDC_ReloadEventCallback                      build/stm32f7xx_hal_ltdc.o
HAL_LTDC_SetAddress                               build/stm32f7xx_hal_ltdc.o
                                                  build/LCDConf.o
                                                  build/stm32746g_discovery_lcd.o
HAL_LTDC_SetAddress_NoReload                      build/stm32f7xx_hal_ltdc.o
                                                  build/stm32746g_discovery_lcd.o
HAL_LTDC_SetAlpha                                 build/stm32f7xx_hal_ltdc.o
                                                  build/LCDConf.o
                                                  build/stm32746g_discovery_lcd.o
HAL_LTDC_SetAlpha_NoReload                        build/stm32f7xx_hal_ltdc.o
                                                  build/stm32746g_discovery_lcd.o
HAL_LTDC_SetPitch                                 build/stm32f7xx_hal_ltdc.o
HAL_LTDC_SetPitch_NoReload                        build/stm32f7xx_hal_ltdc.o
HAL_LTDC_SetPixelFormat                           build/stm32f7xx_hal_ltdc.o
HAL_LTDC_SetPixelFormat_NoReload                  build/stm32f7xx_hal_ltdc.o
HAL_LTDC_SetWindowPosition                        build/stm32f7xx_hal_ltdc.o
                                                  build/LCDConf.o
                                                  build/stm32746g_discovery_lcd.o
HAL_LTDC_SetWindowPosition_NoReload               build/stm32f7xx_hal_ltdc.o
                                                  build/stm32746g_discovery_lcd.o
HAL_LTDC_SetWindowSize                            build/stm32f7xx_hal_ltdc.o
                                                  build/stm32746g_discovery_lcd.o
HAL_LTDC_SetWindowSize_NoReload                   build/stm32f7xx_hal_ltdc.o
                                                  build/stm32746g_discovery_lcd.o
HAL_MPU_ConfigRegion                              build/stm32f7xx_hal_cortex.o
HAL_MPU_Disable                                   build/stm32f7xx_hal_cortex.o
HAL_MPU_Enable                                    build/stm32f7xx_hal_cortex.o
HAL_MspDeInit                                     build/stm32f7xx_hal.o
HAL_MspInit                                       build/stm32f7xx_hal.o
HAL_MultiProcessorEx_AddressLength_Set            build/stm32f7xx_hal_uart_ex.o
HAL_MultiProcessor_DisableMuteMode                build/stm32f7xx_hal_uart.o
HAL_MultiProcessor_EnableMuteMode                 build/stm32f7xx_hal_uart.o
HAL_MultiProcessor_EnterMuteMode                  build/stm32f7xx_hal_uart.o
HAL_MultiProcessor_Init                           build/stm32f7xx_hal_uart.o
HAL_NVIC_ClearPendingIRQ                          build/stm32f7xx_hal_cortex.o
HAL_NVIC_DisableIRQ                               build/stm32f7xx_hal_cortex.o
                                                  build/stm32746g_discovery_sdram.o
                                                  build/stm32746g_discovery.o
HAL_NVIC_EnableIRQ                                build/stm32f7xx_hal_cortex.o
                                                  build/LCDConf.o
                                                  build/stm32746g_discovery_sdram.o
                                                  build/stm32746g_discovery_ts.o
                                                  build/stm32746g_discovery.o
HAL_NVIC_GetActive                                build/stm32f7xx_hal_cortex.o
HAL_NVIC_GetPendingIRQ                            build/stm32f7xx_hal_cortex.o
HAL_NVIC_GetPriority                              build/stm32f7xx_hal_cortex.o
HAL_NVIC_GetPriorityGrouping                      build/stm32f7xx_hal_cortex.o
HAL_NVIC_SetPendingIRQ                            build/stm32f7xx_hal_cortex.o
HAL_NVIC_SetPriority                              build/stm32f7xx_hal_cortex.o
                                                  build/LCDConf.o
                                                  build/stm32746g_discovery_sdram.o
                                                  build/stm32746g_discovery_ts.o
                                                  build/stm32746g_discovery.o
                                                  build/stm32f7xx_hal.o
HAL_NVIC_SetPriorityGrouping                      build/stm32f7xx_hal_cortex.o
                                                  build/stm32f7xx_hal.o
HAL_NVIC_SystemReset                              build/stm32f7xx_hal_cortex.o
HAL_PWREx_ControlVoltageScaling                   build/stm32f7xx_hal_pwr_ex.o
HAL_PWREx_DisableBkUpReg                          build/stm32f7xx_hal_pwr_ex.o
HAL_PWREx_DisableFlashPowerDown                   build/stm32f7xx_hal_pwr_ex.o
HAL_PWREx_DisableLowRegulatorLowVoltage           build/stm32f7xx_hal_pwr_ex.o
HAL_PWREx_DisableMainRegulatorLowVoltage          build/stm32f7xx_hal_pwr_ex.o
HAL_PWREx_DisableOverDrive                        build/stm32f7xx_hal_pwr_ex.o
HAL_PWREx_EnableBkUpReg                           build/stm32f7xx_hal_pwr_ex.o
HAL_PWREx_EnableFlashPowerDown                    build/stm32f7xx_hal_pwr_ex.o
HAL_PWREx_EnableLowRegulatorLowVoltage            build/stm32f7xx_hal_pwr_ex.o
HAL_PWREx_EnableMainRegulatorLowVoltage           build/stm32f7xx_hal_pwr_ex.o
HAL_PWREx_EnableOverDrive                         build/stm32f7xx_hal_pwr_ex.o
                                                  build/main.o
HAL_PWREx_EnterUnderDriveSTOPMode                 build/stm32f7xx_hal_pwr_ex.o
HAL_PWREx_GetVoltageRange                         build/stm32f7xx_hal_pwr_ex.o
HAL_PWR_ConfigPVD                                 build/stm32f7xx_hal_pwr.o
HAL_PWR_DeInit                                    build/stm32f7xx_hal_pwr.o
HAL_PWR_DisableBkUpAccess                         build/stm32f7xx_hal_pwr.o
HAL_PWR_DisablePVD                                build/stm32f7xx_hal_pwr.o
HAL_PWR_DisableSEVOnPend                          build/stm32f7xx_hal_pwr.o
HAL_PWR_DisableSleepOnExit                        build/stm32f7xx_hal_pwr.o
HAL_PWR_DisableWakeUpPin                          build/stm32f7xx_hal_pwr.o
HAL_PWR_EnableBkUpAccess                          build/stm32f7xx_hal_pwr.o
                                                  build/main.o
HAL_PWR_EnablePVD                                 build/stm32f7xx_hal_pwr.o
HAL_PWR_EnableSEVOnPend                           build/stm32f7xx_hal_pwr.o
HAL_PWR_EnableSleepOnExit                         build/stm32f7xx_hal_pwr.o
HAL_PWR_EnableWakeUpPin                           build/stm32f7xx_hal_pwr.o
HAL_PWR_EnterSLEEPMode                            build/stm32f7xx_hal_pwr.o
HAL_PWR_EnterSTANDBYMode                          build/stm32f7xx_hal_pwr.o
HAL_PWR_EnterSTOPMode                             build/stm32f7xx_hal_pwr.o
HAL_PWR_PVDCallback                               build/stm32f7xx_hal_pwr.o
HAL_PWR_PVD_IRQHandler                            build/stm32f7xx_hal_pwr.o
HAL_RCCEx_DisablePLLI2S                           build/stm32f7xx_hal_rcc_ex.o
HAL_RCCEx_DisablePLLSAI                           build/stm32f7xx_hal_rcc_ex.o
HAL_RCCEx_EnablePLLI2S                            build/stm32f7xx_hal_rcc_ex.o
HAL_RCCEx_EnablePLLSAI                            build/stm32f7xx_hal_rcc_ex.o
HAL_RCCEx_GetPeriphCLKConfig                      build/stm32f7xx_hal_rcc_ex.o
HAL_RCCEx_GetPeriphCLKFreq                        build/stm32f7xx_hal_rcc_ex.o
HAL_RCCEx_PeriphCLKConfig                         build/stm32f7xx_hal_rcc_ex.o
                                                  build/LCDConf.o
                                                  build/stm32746g_discovery_lcd.o
                                                  build/main.o
HAL_RCC_CSSCallback                               build/stm32f7xx_hal_rcc.o
HAL_RCC_ClockConfig                               build/stm32f7xx_hal_rcc.o
                                                  build/main.o
HAL_RCC_DeInit                                    build/stm32f7xx_hal_rcc.o
HAL_RCC_DisableCSS                                build/stm32f7xx_hal_rcc.o
HAL_RCC_EnableCSS                                 build/stm32f7xx_hal_rcc.o
HAL_RCC_GetClockConfig                            build/stm32f7xx_hal_rcc.o
HAL_RCC_GetHCLKFreq                               build/stm32f7xx_hal_rcc.o
HAL_RCC_GetOscConfig                              build/stm32f7xx_hal_rcc.o
HAL_RCC_GetPCLK1Freq                              build/stm32f7xx_hal_rcc.o
                                                  build/stm32f7xx_hal_uart.o
HAL_RCC_GetPCLK2Freq                              build/stm32f7xx_hal_rcc.o
                                                  build/stm32f7xx_hal_uart.o
HAL_RCC_GetSysClockFreq                           build/stm32f7xx_hal_rcc.o
                                                  build/stm32f7xx_hal_uart.o
HAL_RCC_MCOConfig                                 build/stm32f7xx_hal_rcc.o
HAL_RCC_NMI_IRQHandler                            build/stm32f7xx_hal_rcc.o
HAL_RCC_OscConfig                                 build/stm32f7xx_hal_rcc.o
                                                  build/main.o
HAL_RS485Ex_Init                                  build/stm32f7xx_hal_uart_ex.o
HAL_ResumeTick                                    build/stm32f7xx_hal.o
HAL_SDRAM_DMA_XferCpltCallback                    build/stm32f7xx_hal_sdram.o
HAL_SDRAM_DMA_XferErrorCallback                   build/stm32f7xx_hal_sdram.o
HAL_SDRAM_DeInit                                  build/stm32f7xx_hal_sdram.o
                                                  build/stm32746g_discovery_sdram.o
HAL_SDRAM_GetModeStatus                           build/stm32f7xx_hal_sdram.o
HAL_SDRAM_GetState                                build/stm32f7xx_hal_sdram.o
HAL_SDRAM_IRQHandler                              build/stm32f7xx_hal_sdram.o
HAL_SDRAM_Init                                    build/stm32f7xx_hal_sdram.o
                                                  build/stm32746g_discovery_sdram.o
                                                  build/main.o
HAL_SDRAM_MspDeInit                               build/stm32f7xx_hal_sdram.o
HAL_SDRAM_MspInit                                 build/stm32f7xx_hal_sdram.o
HAL_SDRAM_ProgramRefreshRate                      build/stm32f7xx_hal_sdram.o
                                                  build/stm32746g_discovery_sdram.o
HAL_SDRAM_Read_16b                                build/stm32f7xx_hal_sdram.o
HAL_SDRAM_Read_32b                                build/stm32f7xx_hal_sdram.o
                                                  build/stm32746g_discovery_sdram.o
HAL_SDRAM_Read_8b                                 build/stm32f7xx_hal_sdram.o
HAL_SDRAM_Read_DMA                                build/stm32f7xx_hal_sdram.o
                                                  build/stm32746g_discovery_sdram.o
HAL_SDRAM_RefreshErrorCallback                    build/stm32f7xx_hal_sdram.o
HAL_SDRAM_SendCommand                             build/stm32f7xx_hal_sdram.o
                                                  build/stm32746g_discovery_sdram.o
HAL_SDRAM_SetAutoRefreshNumber                    build/stm32f7xx_hal_sdram.o
HAL_SDRAM_WriteProtection_Disable                 build/stm32f7xx_hal_sdram.o
HAL_SDRAM_WriteProtection_Enable                  build/stm32f7xx_hal_sdram.o
HAL_SDRAM_Write_16b                               build/stm32f7xx_hal_sdram.o
HAL_SDRAM_Write_32b                               build/stm32f7xx_hal_sdram.o
                                                  build/stm32746g_discovery_sdram.o
HAL_SDRAM_Write_8b                                build/stm32f7xx_hal_sdram.o
HAL_SDRAM_Write_DMA                               build/stm32f7xx_hal_sdram.o
                                                  build/stm32746g_discovery_sdram.o
HAL_SYSTICK_CLKSourceConfig                       build/stm32f7xx_hal_cortex.o
HAL_SYSTICK_Callback                              build/main.o
HAL_SYSTICK_Config                                build/stm32f7xx_hal_cortex.o
                                                  build/stm32f7xx_hal.o
HAL_SYSTICK_IRQHandler                            build/stm32f7xx_hal_cortex.o
                                                  build/stm32f7xx_it.o
HAL_SetTickFreq                                   build/stm32f7xx_hal.o
HAL_SuspendTick                                   build/stm32f7xx_hal.o
HAL_UART_Abort                                    build/stm32f7xx_hal_uart.o
HAL_UART_AbortCpltCallback                        build/stm32f7xx_hal_uart.o
HAL_UART_AbortReceive                             build/stm32f7xx_hal_uart.o
HAL_UART_AbortReceiveCpltCallback                 build/stm32f7xx_hal_uart.o
HAL_UART_AbortReceive_IT                          build/stm32f7xx_hal_uart.o
HAL_UART_AbortTransmit                            build/stm32f7xx_hal_uart.o
HAL_UART_AbortTransmitCpltCallback                build/stm32f7xx_hal_uart.o
HAL_UART_AbortTransmit_IT                         build/stm32f7xx_hal_uart.o
HAL_UART_Abort_IT                                 build/stm32f7xx_hal_uart.o
HAL_UART_DMAPause                                 build/stm32f7xx_hal_uart.o
HAL_UART_DMAResume                                build/stm32f7xx_hal_uart.o
HAL_UART_DMAStop                                  build/stm32f7xx_hal_uart.o
HAL_UART_DeInit                                   build/stm32f7xx_hal_uart.o
                                                  build/stm32746g_discovery.o
HAL_UART_DisableReceiverTimeout                   build/stm32f7xx_hal_uart.o
HAL_UART_EnableReceiverTimeout                    build/stm32f7xx_hal_uart.o
HAL_UART_ErrorCallback                            build/stm32f7xx_hal_uart.o
HAL_UART_GetError                                 build/stm32f7xx_hal_uart.o
HAL_UART_GetState                                 build/stm32f7xx_hal_uart.o
HAL_UART_IRQHandler                               build/stm32f7xx_hal_uart.o
HAL_UART_Init                                     build/stm32f7xx_hal_uart.o
                                                  build/stm32746g_discovery.o
                                                  build/main.o
HAL_UART_MspDeInit                                build/stm32f7xx_hal_uart.o
HAL_UART_MspInit                                  build/stm32f7xx_hal_uart.o
                                                  build/stm32f7xx_hal_uart_ex.o
HAL_UART_Receive                                  build/stm32f7xx_hal_uart.o
HAL_UART_Receive_DMA                              build/stm32f7xx_hal_uart.o
HAL_UART_Receive_IT                               build/stm32f7xx_hal_uart.o
HAL_UART_ReceiverTimeout_Config                   build/stm32f7xx_hal_uart.o
HAL_UART_RxCpltCallback                           build/stm32f7xx_hal_uart.o
HAL_UART_RxHalfCpltCallback                       build/stm32f7xx_hal_uart.o
HAL_UART_Transmit                                 build/stm32f7xx_hal_uart.o
HAL_UART_Transmit_DMA                             build/stm32f7xx_hal_uart.o
HAL_UART_Transmit_IT                              build/stm32f7xx_hal_uart.o
HAL_UART_TxCpltCallback                           build/stm32f7xx_hal_uart.o
HAL_UART_TxHalfCpltCallback                       build/stm32f7xx_hal_uart.o
HardFault_Handler                                 build/stm32f7xx_it.o
I2C1_ER_IRQHandler                                build/startup_stm32f746xx.o
I2C1_EV_IRQHandler                                build/startup_stm32f746xx.o
I2C2_ER_IRQHandler                                build/startup_stm32f746xx.o
I2C2_EV_IRQHandler                                build/startup_stm32f746xx.o
I2C3_ER_IRQHandler                                build/startup_stm32f746xx.o
I2C3_EV_IRQHandler                                build/startup_stm32f746xx.o
I2C4_ER_IRQHandler                                build/startup_stm32f746xx.o
I2C4_EV_IRQHandler                                build/startup_stm32f746xx.o
LCD_AA_EnableGamma                                Middlewares/STemWin/Lib/STemWin_CM7_wc32.a(LCD_AA.o)
LCD_AA_GetGamma                                   Middlewares/STemWin/Lib/STemWin_CM7_wc32.a(LCD_AA.o)
LCD_AA_MixColors16                                Middlewares/STemWin/Lib/STemWin_CM7_wc32.a(LCD_AA.o)
LCD_AA_MixColors256                               Middlewares/STemWin/Lib/STemWin_CM7_wc32.a(LCD_AA.o)
LCD_AA_SetAndMask                                 Middlewares/STemWin/Lib/STemWin_CM7_wc32.a(LCD_AA.o)
                                                  Middlewares/STemWin/Lib/STemWin_CM7_wc32.a(GUI_SetAlpha.o)
                                                  Middlewares/STemWin/Lib/STemWin_CM7_wc32.a(GUI_DrawBitmap.o)
LCD_AA_SetGamma                                   Middlewares/STemWin/Lib/STemWin_CM7_wc32.a(LCD_AA.o)
LCD_AA_pfMixColors16                              Middlewares/STemWin/Lib/STemWin_CM7_wc32.a(LCD_AA.o)
LCD_APIList180                                    Middlewares/STemWin/Lib/STemWin_CM7_wc32.a(LCD_Rotate180.o)
                                                  Middlewares/STemWin/Lib/STemWin_CM7_wc32.a(GUI_DispString.o)
LCD_APIListCCW                                    Middlewares/STemWin/Lib/STemWin_CM7_wc32.a(LCD_RotateCCW.o)
                                                  Middlewares/STemWin/Lib/STemWin_CM7_wc32.a(GUI_DispString.o)
LCD_APIListCW                                     Middlewares/STemWin/Lib/STemWin_CM7_wc32.a(LCD_RotateCW.o)
                                                  Middlewares/STemWin/Lib/STemWin_CM7_wc32.a(GUI_DispString.o)
LCD_API_ColorConv_0                               Middlewares/STemWin/Lib/STemWin_CM7_wc32.a(GUICC_0.o)
                                                  Middlewares/STemWin/Lib/STemWin_CM7_wc32.a(LCD_Color.o)
LCD_API_ColorConv_8888                            Middlewares/STemWin/Lib/STemWin_CM7_wc32.a(GUICC_8888.o)
                                                  Middlewares/STemWin/Lib/STemWin_CM7_wc32.a(GUIDEV_CreateFixed.o)
                                                  Middlewares/STemWin/Lib/STemWin_CM7_wc32.a(GUIDEV_StaticDevices.o)
                                                  Middlewares/STemWin/Lib/STemWin_CM7_wc32.a(GUIDEV.o)
LCD_API_ColorConv_M8888I                          Middlewares/STemWin/Lib/STemWin_CM7_wc32.a(GUICC_M8888I.o)
                                                  build/LCDConf.o
LCD_Color2Index                                   Middlewares/STemWin/Lib/STemWin_CM7_wc32.a(LCD.o)
                                                  Middlewares/STemWin/Lib/STemWin_CM7_wc32.a(LCD_AA.o)
                                                  Middlewares/STemWin/Lib/STemWin_CM7_wc32.a(LCD_UpdateColorIndices.o)
                                                  Middlewares/STemWin/Lib/STemWin_CM7_wc32.a(LCD_Color.o)
                                                  Middlewares/STemWin/Lib/STemWin_CM7_wc32.a(GUI__Private.o)
                                                  Middlewares/STemWin/Lib/STemWin_CM7_wc32.a(GUI_Common.o)
LCD_DrawBitmap                                    Middlewares/STemWin/Lib/STemWin_CM7_wc32.a(LCD.o)
                                                  Middlewares/STemWin/Lib/STemWin_CM7_wc32.a(GUI_CharP.o)
                                                  Middlewares/STemWin/Lib/STemWin_CM7_wc32.a(GUIDEV_WriteToActiveOpaque.o)
                                                  Middlewares/STemWin/Lib/STemWin_CM7_wc32.a(GUI_DrawLib.o)
                                                  Middlewares/STemWin/Lib/STemWin_CM7_wc32.a(GUI_DrawBitmap.o)
                                                  Middlewares/STemWin/Lib/STemWin_CM7_wc32.a(GUI_CharM.o)
                                                  Middlewares/STemWin/Lib/STemWin_CM7_wc32.a(GUIDEV_WriteToActiveAlpha.o)
LCD_DrawHLine                                     Middlewares/STemWin/Lib/STemWin_CM7_wc32.a(LCD.o)
                                                  Middlewares/STemWin/Lib/STemWin_CM7_wc32.a(GUI_Circ.o)
                                                  Middlewares/STemWin/Lib/STemWin_CM7_wc32.a(GUI__DrawTwinArc.o)
                                                  Middlewares/STemWin/Lib/STemWin_CM7_wc32.a(GUI_DrawGradient.o)
                                                  Middlewares/STemWin/Lib/STemWin_CM7_wc32.a(GUI_2DLib.o)
                                                  Middlewares/STemWin/Lib/STemWin_CM7_wc32.a(GUI_Core.o)
LCD_DrawPixel                                     Middlewares/STemWin/Lib/STemWin_CM7_wc32.a(LCD.o)
                                                  Middlewares/STemWin/Lib/STemWin_CM7_wc32.a(GUI_DrawLib.o)
                                                  Middlewares/STemWin/Lib/STemWin_CM7_wc32.a(GUI_Core.o)
LCD_DrawVLine                                     Middlewares/STemWin/Lib/STemWin_CM7_wc32.a(LCD.o)
                                                  Middlewares/STemWin/Lib/STemWin_CM7_wc32.a(GUI_DrawLine.o)
                                                  Middlewares/STemWin/Lib/STemWin_CM7_wc32.a(GUI_DrawLib.o)
                                                  Middlewares/STemWin/Lib/STemWin_CM7_wc32.a(GUI_DrawGradient.o)
                                                  Middlewares/STemWin/Lib/STemWin_CM7_wc32.a(GUI_2DLib.o)
LCD_FillRect                                      Middlewares/STemWin/Lib/STemWin_CM7_wc32.a(LCD.o)
                                                  Middlewares/STemWin/Lib/STemWin_CM7_wc32.a(GUI_CharP.o)
                                                  Middlewares/STemWin/Lib/STemWin_CM7_wc32.a(GUI_DrawLib.o)
                                                  Middlewares/STemWin/Lib/STemWin_CM7_wc32.a(GUI_DrawGradient.o)
                                                  Middlewares/STemWin/Lib/STemWin_CM7_wc32.a(GUI_CharM.o)
                                                  Middlewares/STemWin/Lib/STemWin_CM7_wc32.a(LCD_RotateCW.o)
                                                  Middlewares/STemWin/Lib/STemWin_CM7_wc32.a(LCD_RotateCCW.o)
                                                  Middlewares/STemWin/Lib/STemWin_CM7_wc32.a(LCD_Rotate180.o)
                                                  Middlewares/STemWin/Lib/STemWin_CM7_wc32.a(GUI_DispStringInRectEx.o)
                                                  Middlewares/STemWin/Lib/STemWin_CM7_wc32.a(GUI_Core.o)
                                                  Middlewares/STemWin/Lib/STemWin_CM7_wc32.a(GUI_Common.o)
                                                  build/LCDConf.o
LCD_GetBitsPerPixel                               Middlewares/STemWin/Lib/STemWin_CM7_wc32.a(LCD_GetEx.o)
                                                  Middlewares/STemWin/Lib/STemWin_CM7_wc32.a(LCD_ReadRect.o)
LCD_GetBitsPerPixelEx                             Middlewares/STemWin/Lib/STemWin_CM7_wc32.a(LCD_GetEx.o)
                                                  Middlewares/STemWin/Lib/STemWin_CM7_wc32.a(GUI_SetAlpha.o)
                                                  Middlewares/STemWin/Lib/STemWin_CM7_wc32.a(LCD_Color.o)
                                                  build/LCDConf.o
LCD_GetBitsPerPixelMax                            Middlewares/STemWin/Lib/STemWin_CM7_wc32.a(LCD_GetEx.o)
LCD_GetBkColorIndex                               Middlewares/STemWin/Lib/STemWin_CM7_wc32.a(LCD_GetColorIndex.o)
                                                  Middlewares/STemWin/Lib/STemWin_CM7_wc32.a(GUI_Common.o)
LCD_GetColorIndex                                 Middlewares/STemWin/Lib/STemWin_CM7_wc32.a(LCD_GetColorIndex.o)
                                                  Middlewares/STemWin/Lib/STemWin_CM7_wc32.a(GUI_Common.o)
LCD_GetDevFunc                                    Middlewares/STemWin/Lib/STemWin_CM7_wc32.a(LCD_GetEx.o)
LCD_GetMaxNumColors                               Middlewares/STemWin/Lib/STemWin_CM7_wc32.a(LCD_Color.o)
LCD_GetMirrorX                                    Middlewares/STemWin/Lib/STemWin_CM7_wc32.a(LCD_GetEx.o)
LCD_GetMirrorXEx                                  Middlewares/STemWin/Lib/STemWin_CM7_wc32.a(LCD_GetEx.o)
                                                  Middlewares/STemWin/Lib/STemWin_CM7_wc32.a(GUIDRV_Lin_32.o)
LCD_GetMirrorY                                    Middlewares/STemWin/Lib/STemWin_CM7_wc32.a(LCD_GetEx.o)
LCD_GetMirrorYEx                                  Middlewares/STemWin/Lib/STemWin_CM7_wc32.a(LCD_GetEx.o)
                                                  Middlewares/STemWin/Lib/STemWin_CM7_wc32.a(GUIDRV_Lin_32.o)
LCD_GetNumColors                                  Middlewares/STemWin/Lib/STemWin_CM7_wc32.a(LCD_GetEx.o)
                                                  Middlewares/STemWin/Lib/STemWin_CM7_wc32.a(GUICC_0.o)
LCD_GetNumColorsEx                                Middlewares/STemWin/Lib/STemWin_CM7_wc32.a(LCD_GetEx.o)
                                                  Middlewares/STemWin/Lib/STemWin_CM7_wc32.a(LCD_Color.o)
LCD_GetNumLayers                                  Middlewares/STemWin/Lib/STemWin_CM7_wc32.a(LCD_GetNumDisplays.o)
                                                  Middlewares/STemWin/Lib/STemWin_CM7_wc32.a(LCD_Color.o)
LCD_GetPalette                                    Middlewares/STemWin/Lib/STemWin_CM7_wc32.a(LCD_GetEx.o)
                                                  Middlewares/STemWin/Lib/STemWin_CM7_wc32.a(GUICC_0.o)
LCD_GetPaletteEx                                  Middlewares/STemWin/Lib/STemWin_CM7_wc32.a(LCD_GetEx.o)
LCD_GetPixelColor                                 Middlewares/STemWin/Lib/STemWin_CM7_wc32.a(LCD_GetPixelColor.o)
                                                  Middlewares/STemWin/Lib/STemWin_CM7_wc32.a(LCD_AA.o)
                                                  Middlewares/STemWin/Lib/STemWin_CM7_wc32.a(GUI__Private.o)
LCD_GetPixelIndex                                 Middlewares/STemWin/Lib/STemWin_CM7_wc32.a(LCD_GetP.o)
                                                  Middlewares/STemWin/Lib/STemWin_CM7_wc32.a(LCD_GetPixelColor.o)
                                                  Middlewares/STemWin/Lib/STemWin_CM7_wc32.a(GUI_Common.o)
LCD_GetPos                                        Middlewares/STemWin/Lib/STemWin_CM7_wc32.a(LCD_Set.o)
LCD_GetPosEx                                      Middlewares/STemWin/Lib/STemWin_CM7_wc32.a(LCD_Set.o)
                                                  Middlewares/STemWin/Lib/STemWin_CM7_wc32.a(GUI_SelectLayer.o)
LCD_GetSwapXY                                     Middlewares/STemWin/Lib/STemWin_CM7_wc32.a(LCD_GetEx.o)
LCD_GetSwapXYEx                                   Middlewares/STemWin/Lib/STemWin_CM7_wc32.a(LCD_GetEx.o)
                                                  Middlewares/STemWin/Lib/STemWin_CM7_wc32.a(GUIDRV_Lin_32.o)
                                                  build/LCDConf.o
LCD_GetVXSize                                     Middlewares/STemWin/Lib/STemWin_CM7_wc32.a(LCD_GetEx.o)
LCD_GetVXSizeEx                                   Middlewares/STemWin/Lib/STemWin_CM7_wc32.a(LCD_GetEx.o)
                                                  Middlewares/STemWin/Lib/STemWin_CM7_wc32.a(GUIDEV_Banding.o)
LCD_GetVXSizeMax                                  Middlewares/STemWin/Lib/STemWin_CM7_wc32.a(LCD_GetEx.o)
                                                  Middlewares/STemWin/Lib/STemWin_CM7_wc32.a(GUI_SetAlpha.o)
                                                  Middlewares/STemWin/Lib/STemWin_CM7_wc32.a(GUI__Alpha.o)
LCD_GetVYSize                                     Middlewares/STemWin/Lib/STemWin_CM7_wc32.a(LCD_GetEx.o)
LCD_GetVYSizeEx                                   Middlewares/STemWin/Lib/STemWin_CM7_wc32.a(LCD_GetEx.o)
                                                  Middlewares/STemWin/Lib/STemWin_CM7_wc32.a(GUIDEV_Banding.o)
LCD_GetVYSizeMax                                  Middlewares/STemWin/Lib/STemWin_CM7_wc32.a(LCD_GetEx.o)
LCD_GetXMag                                       Middlewares/STemWin/Lib/STemWin_CM7_wc32.a(LCD_GetEx.o)
LCD_GetXMagEx                                     Middlewares/STemWin/Lib/STemWin_CM7_wc32.a(LCD_GetEx.o)
LCD_GetXSize                                      Middlewares/STemWin/Lib/STemWin_CM7_wc32.a(LCD_GetEx.o)
                                                  Middlewares/STemWin/Lib/STemWin_CM7_wc32.a(GUIDEV_StaticDevices.o)
                                                  Middlewares/STemWin/Lib/STemWin_CM7_wc32.a(LCD_RotateCW.o)
                                                  Middlewares/STemWin/Lib/STemWin_CM7_wc32.a(LCD_RotateCCW.o)
                                                  Middlewares/STemWin/Lib/STemWin_CM7_wc32.a(LCD_Rotate180.o)
                                                  Middlewares/STemWin/Lib/STemWin_CM7_wc32.a(GUI_Common.o)
LCD_GetXSizeDisplay                               Middlewares/STemWin/Lib/STemWin_CM7_wc32.a(LCD_GetEx.o)
                                                  Middlewares/STemWin/Lib/STemWin_CM7_wc32.a(GUIDRV_Lin_32.o)
                                                  Middlewares/STemWin/Lib/STemWin_CM7_wc32.a(GUI_Core.o)
LCD_GetXSizeEx                                    Middlewares/STemWin/Lib/STemWin_CM7_wc32.a(LCD_GetEx.o)
                                                  Middlewares/STemWin/Lib/STemWin_CM7_wc32.a(GUIDEV_Banding.o)
                                                  Middlewares/STemWin/Lib/STemWin_CM7_wc32.a(GUI_SPRITE.o)
LCD_GetXSizeMax                                   Middlewares/STemWin/Lib/STemWin_CM7_wc32.a(LCD_GetEx.o)
                                                  Middlewares/STemWin/Lib/STemWin_CM7_wc32.a(GUI_Core.o)
LCD_GetYMag                                       Middlewares/STemWin/Lib/STemWin_CM7_wc32.a(LCD_GetEx.o)
LCD_GetYMagEx                                     Middlewares/STemWin/Lib/STemWin_CM7_wc32.a(LCD_GetEx.o)
LCD_GetYSize                                      Middlewares/STemWin/Lib/STemWin_CM7_wc32.a(LCD_GetEx.o)
                                                  Middlewares/STemWin/Lib/STemWin_CM7_wc32.a(GUIDEV_StaticDevices.o)
                                                  Middlewares/STemWin/Lib/STemWin_CM7_wc32.a(LCD_RotateCW.o)
                                                  Middlewares/STemWin/Lib/STemWin_CM7_wc32.a(LCD_RotateCCW.o)
                                                  Middlewares/STemWin/Lib/STemWin_CM7_wc32.a(LCD_Rotate180.o)
                                                  Middlewares/STemWin/Lib/STemWin_CM7_wc32.a(GUI_Common.o)
LCD_GetYSizeDisplay                               Middlewares/STemWin/Lib/STemWin_CM7_wc32.a(LCD_GetEx.o)
                                                  Middlewares/STemWin/Lib/STemWin_CM7_wc32.a(GUIDRV_Lin_32.o)
                                                  Middlewares/STemWin/Lib/STemWin_CM7_wc32.a(GUI_Core.o)
LCD_GetYSizeEx                                    Middlewares/STemWin/Lib/STemWin_CM7_wc32.a(LCD_GetEx.o)
                                                  Middlewares/STemWin/Lib/STemWin_CM7_wc32.a(GUIDEV_Banding.o)
                                                  Middlewares/STemWin/Lib/STemWin_CM7_wc32.a(GUI_SPRITE.o)
LCD_GetYSizeMax                                   Middlewares/STemWin/Lib/STemWin_CM7_wc32.a(LCD_GetEx.o)
                                                  Middlewares/STemWin/Lib/STemWin_CM7_wc32.a(GUI_Core.o)
LCD_GetpPalConvTable                              Middlewares/STemWin/Lib/STemWin_CM7_wc32.a(LCD_Color.o)
LCD_GetpPalConvTableBM                            Middlewares/STemWin/Lib/STemWin_CM7_wc32.a(LCD_Color.o)
                                                  Middlewares/STemWin/Lib/STemWin_CM7_wc32.a(GUI_Core.o)
LCD_GetpPalConvTableUncached                      Middlewares/STemWin/Lib/STemWin_CM7_wc32.a(LCD_Color.o)
LCD_GetpfColor2IndexEx                            Middlewares/STemWin/Lib/STemWin_CM7_wc32.a(LCD_GetEx.o)
LCD_GetpfIndex2ColorEx                            Middlewares/STemWin/Lib/STemWin_CM7_wc32.a(LCD_GetEx.o)
LCD_Index2Color                                   Middlewares/STemWin/Lib/STemWin_CM7_wc32.a(LCD.o)
                                                  Middlewares/STemWin/Lib/STemWin_CM7_wc32.a(GUI_SetAlpha.o)
                                                  Middlewares/STemWin/Lib/STemWin_CM7_wc32.a(LCD_AA.o)
                                                  Middlewares/STemWin/Lib/STemWin_CM7_wc32.a(LCD_GetPixelColor.o)
                                                  Middlewares/STemWin/Lib/STemWin_CM7_wc32.a(LCD_Color.o)
                                                  Middlewares/STemWin/Lib/STemWin_CM7_wc32.a(GUI_Common.o)
LCD_Index2Color_888                               Middlewares/STemWin/Lib/STemWin_CM7_wc32.a(GUICC_888_Index2Color.o)
                                                  Middlewares/STemWin/Lib/STemWin_CM7_wc32.a(GUI__Alpha.o)
LCD_Index2Color_8888                              Middlewares/STemWin/Lib/STemWin_CM7_wc32.a(GUICC_8888_Index2Color.o)
                                                  Middlewares/STemWin/Lib/STemWin_CM7_wc32.a(GUICC_8888.o)
                                                  Middlewares/STemWin/Lib/STemWin_CM7_wc32.a(GUI__Alpha.o)
                                                  Middlewares/STemWin/Lib/STemWin_CM7_wc32.a(GUIDEV_WriteToActiveAlpha.o)
LCD_Index2Color_M8888I                            Middlewares/STemWin/Lib/STemWin_CM7_wc32.a(GUICC_M8888I_Index2Color.o)
                                                  Middlewares/STemWin/Lib/STemWin_CM7_wc32.a(GUICC_M8888I.o)
LCD_InitColors                                    Middlewares/STemWin/Lib/STemWin_CM7_wc32.a(LCD_Color.o)
                                                  Middlewares/STemWin/Lib/STemWin_CM7_wc32.a(LCD.o)
LCD_InitLUT                                       Middlewares/STemWin/Lib/STemWin_CM7_wc32.a(LCD_Color.o)
                                                  Middlewares/STemWin/Lib/STemWin_CM7_wc32.a(LCD.o)
LCD_Off                                           Middlewares/STemWin/Lib/STemWin_CM7_wc32.a(LCD_Set.o)
LCD_OffEx                                         Middlewares/STemWin/Lib/STemWin_CM7_wc32.a(LCD_Set.o)
LCD_On                                            Middlewares/STemWin/Lib/STemWin_CM7_wc32.a(LCD_Set.o)
LCD_OnEx                                          Middlewares/STemWin/Lib/STemWin_CM7_wc32.a(LCD_Set.o)
LCD_ReadRect                                      Middlewares/STemWin/Lib/STemWin_CM7_wc32.a(LCD_ReadRect.o)
LCD_ReadRectNoClip                                Middlewares/STemWin/Lib/STemWin_CM7_wc32.a(LCD_ReadRect.o)
LCD_Refresh                                       Middlewares/STemWin/Lib/STemWin_CM7_wc32.a(LCD_Set.o)
LCD_RefreshEx                                     Middlewares/STemWin/Lib/STemWin_CM7_wc32.a(LCD_Set.o)
LCD_SelectLCD                                     Middlewares/STemWin/Lib/STemWin_CM7_wc32.a(LCD_SelectLCD.o)
                                                  Middlewares/STemWin/Lib/STemWin_CM7_wc32.a(GUI_Common.o)
LCD_SetAlpha                                      Middlewares/STemWin/Lib/STemWin_CM7_wc32.a(LCD_Set.o)
LCD_SetAlphaEx                                    Middlewares/STemWin/Lib/STemWin_CM7_wc32.a(LCD_Set.o)
                                                  Middlewares/STemWin/Lib/STemWin_CM7_wc32.a(GUI_SelectLayer.o)
LCD_SetAlphaMode                                  Middlewares/STemWin/Lib/STemWin_CM7_wc32.a(LCD_Set.o)
LCD_SetAlphaModeEx                                Middlewares/STemWin/Lib/STemWin_CM7_wc32.a(LCD_Set.o)
LCD_SetBkColor                                    Middlewares/STemWin/Lib/STemWin_CM7_wc32.a(LCD.o)
                                                  Middlewares/STemWin/Lib/STemWin_CM7_wc32.a(TEXT.o)
                                                  Middlewares/STemWin/Lib/STemWin_CM7_wc32.a(MULTIEDIT.o)
                                                  Middlewares/STemWin/Lib/STemWin_CM7_wc32.a(FRAMEWIN.o)
                                                  Middlewares/STemWin/Lib/STemWin_CM7_wc32.a(WM_Lib.o)
                                                  Middlewares/STemWin/Lib/STemWin_CM7_wc32.a(GUI_Core.o)
                                                  Middlewares/STemWin/Lib/STemWin_CM7_wc32.a(GUI_Common.o)
LCD_SetBkColorIndex                               Middlewares/STemWin/Lib/STemWin_CM7_wc32.a(LCD.o)
                                                  Middlewares/STemWin/Lib/STemWin_CM7_wc32.a(LCD_UpdateColorIndices.o)
                                                  Middlewares/STemWin/Lib/STemWin_CM7_wc32.a(GUI_Common.o)
LCD_SetBufferPtr                                  Middlewares/STemWin/Lib/STemWin_CM7_wc32.a(LCD_Set.o)
LCD_SetBufferPtrEx                                Middlewares/STemWin/Lib/STemWin_CM7_wc32.a(LCD_Set.o)
LCD_SetChroma                                     Middlewares/STemWin/Lib/STemWin_CM7_wc32.a(LCD_Set.o)
LCD_SetChromaEx                                   Middlewares/STemWin/Lib/STemWin_CM7_wc32.a(LCD_Set.o)
LCD_SetChromaMode                                 Middlewares/STemWin/Lib/STemWin_CM7_wc32.a(LCD_Set.o)
LCD_SetChromaModeEx                               Middlewares/STemWin/Lib/STemWin_CM7_wc32.a(LCD_Set.o)
LCD_SetClipRectEx                                 Middlewares/STemWin/Lib/STemWin_CM7_wc32.a(LCD_SetClipRectEx.o)
                                                  Middlewares/STemWin/Lib/STemWin_CM7_wc32.a(WM.o)
LCD_SetClipRectMax                                Middlewares/STemWin/Lib/STemWin_CM7_wc32.a(LCD.o)
                                                  Middlewares/STemWin/Lib/STemWin_CM7_wc32.a(GUIDEV_SetOrg.o)
                                                  Middlewares/STemWin/Lib/STemWin_CM7_wc32.a(GUIDEV.o)
                                                  Middlewares/STemWin/Lib/STemWin_CM7_wc32.a(WM.o)
                                                  Middlewares/STemWin/Lib/STemWin_CM7_wc32.a(LCD_SelectLCD.o)
LCD_SetColor                                      Middlewares/STemWin/Lib/STemWin_CM7_wc32.a(LCD.o)
                                                  Middlewares/STemWin/Lib/STemWin_CM7_wc32.a(GUI_DrawGradient.o)
                                                  Middlewares/STemWin/Lib/STemWin_CM7_wc32.a(WIDGET_Effect_Simple.o)
                                                  Middlewares/STemWin/Lib/STemWin_CM7_wc32.a(TEXT.o)
                                                  Middlewares/STemWin/Lib/STemWin_CM7_wc32.a(MULTIEDIT.o)
                                                  Middlewares/STemWin/Lib/STemWin_CM7_wc32.a(WM_Lib.o)
                                                  Middlewares/STemWin/Lib/STemWin_CM7_wc32.a(GUI_Core.o)
                                                  Middlewares/STemWin/Lib/STemWin_CM7_wc32.a(GUI_Common.o)
LCD_SetColorIndex                                 Middlewares/STemWin/Lib/STemWin_CM7_wc32.a(LCD.o)
                                                  Middlewares/STemWin/Lib/STemWin_CM7_wc32.a(LCD_UpdateColorIndices.o)
                                                  Middlewares/STemWin/Lib/STemWin_CM7_wc32.a(GUI_Common.o)
LCD_SetDevFunc                                    Middlewares/STemWin/Lib/STemWin_CM7_wc32.a(LCD_Set.o)
                                                  build/LCDConf.o
LCD_SetDisplaySize                                Middlewares/STemWin/Lib/STemWin_CM7_wc32.a(LCD_GetEx.o)
                                                  Middlewares/STemWin/Lib/STemWin_CM7_wc32.a(GUI_Core.o)
LCD_SetDrawMode                                   Middlewares/STemWin/Lib/STemWin_CM7_wc32.a(LCD.o)
                                                  Middlewares/STemWin/Lib/STemWin_CM7_wc32.a(GUI_CharP.o)
                                                  Middlewares/STemWin/Lib/STemWin_CM7_wc32.a(GUI_CharM.o)
                                                  Middlewares/STemWin/Lib/STemWin_CM7_wc32.a(GUI_Core.o)
                                                  Middlewares/STemWin/Lib/STemWin_CM7_wc32.a(GUI_Common.o)
LCD_SetLUT                                        Middlewares/STemWin/Lib/STemWin_CM7_wc32.a(GUICC_0.o)
LCD_SetLUTEntry                                   Middlewares/STemWin/Lib/STemWin_CM7_wc32.a(LCD_Set.o)
LCD_SetLUTEntryEx                                 Middlewares/STemWin/Lib/STemWin_CM7_wc32.a(LCD_Set.o)
                                                  Middlewares/STemWin/Lib/STemWin_CM7_wc32.a(GUICC_0.o)
                                                  Middlewares/STemWin/Lib/STemWin_CM7_wc32.a(LCD_Color.o)
LCD_SetLUTEx                                      Middlewares/STemWin/Lib/STemWin_CM7_wc32.a(GUICC_0.o)
LCD_SetMaxNumColors                               Middlewares/STemWin/Lib/STemWin_CM7_wc32.a(LCD_Color.o)
LCD_SetOrg                                        Middlewares/STemWin/Lib/STemWin_CM7_wc32.a(LCD_Set.o)
LCD_SetPixelAA4_NoTrans                           Middlewares/STemWin/Lib/STemWin_CM7_wc32.a(LCD_AA.o)
LCD_SetPixelAA4_Trans                             Middlewares/STemWin/Lib/STemWin_CM7_wc32.a(LCD_AA.o)
LCD_SetPixelAA8_NoTrans                           Middlewares/STemWin/Lib/STemWin_CM7_wc32.a(LCD_AA.o)
LCD_SetPixelAA8_Trans                             Middlewares/STemWin/Lib/STemWin_CM7_wc32.a(LCD_AA.o)
LCD_SetPixelIndex                                 Middlewares/STemWin/Lib/STemWin_CM7_wc32.a(LCD.o)
                                                  Middlewares/STemWin/Lib/STemWin_CM7_wc32.a(GUI_Common.o)
LCD_SetPos                                        Middlewares/STemWin/Lib/STemWin_CM7_wc32.a(LCD_Set.o)
LCD_SetPosEx                                      Middlewares/STemWin/Lib/STemWin_CM7_wc32.a(LCD_Set.o)
                                                  Middlewares/STemWin/Lib/STemWin_CM7_wc32.a(GUI_SelectLayer.o)
LCD_SetSize                                       Middlewares/STemWin/Lib/STemWin_CM7_wc32.a(LCD_Set.o)
LCD_SetSizeEx                                     Middlewares/STemWin/Lib/STemWin_CM7_wc32.a(LCD_Set.o)
                                                  Middlewares/STemWin/Lib/STemWin_CM7_wc32.a(GUI_SelectLayer.o)
                                                  build/LCDConf.o
LCD_SetVRAMAddr                                   Middlewares/STemWin/Lib/STemWin_CM7_wc32.a(LCD_Set.o)
LCD_SetVRAMAddrEx                                 Middlewares/STemWin/Lib/STemWin_CM7_wc32.a(LCD_Set.o)
                                                  build/LCDConf.o
LCD_SetVSize                                      Middlewares/STemWin/Lib/STemWin_CM7_wc32.a(LCD_Set.o)
LCD_SetVSizeEx                                    Middlewares/STemWin/Lib/STemWin_CM7_wc32.a(LCD_Set.o)
                                                  build/LCDConf.o
LCD_SetVis                                        Middlewares/STemWin/Lib/STemWin_CM7_wc32.a(LCD_Set.o)
LCD_SetVisEx                                      Middlewares/STemWin/Lib/STemWin_CM7_wc32.a(LCD_Set.o)
                                                  Middlewares/STemWin/Lib/STemWin_CM7_wc32.a(GUI_SelectLayer.o)
LCD_UpdateColorIndices                            Middlewares/STemWin/Lib/STemWin_CM7_wc32.a(LCD_UpdateColorIndices.o)
                                                  Middlewares/STemWin/Lib/STemWin_CM7_wc32.a(GUIDEV.o)
                                                  Middlewares/STemWin/Lib/STemWin_CM7_wc32.a(GUI_Common.o)
LCD_X_Config                                      build/LCDConf.o
                                                  Middlewares/STemWin/Lib/STemWin_CM7_wc32.a(GUI_Core.o)
LCD_X_DisplayDriver                               build/LCDConf.o
                                                  Middlewares/STemWin/Lib/STemWin_CM7_wc32.a(GUIDRV_Lin_32.o)
LCD__DrawBitmap_1bpp                              Middlewares/STemWin/Lib/STemWin_CM7_wc32.a(LCD.o)
                                                  Middlewares/STemWin/Lib/STemWin_CM7_wc32.a(GUIDEV_WriteToActiveOpaque.o)
LCD__GetBPP                                       Middlewares/STemWin/Lib/STemWin_CM7_wc32.a(LCD_GetEx.o)
LCD__GetBPPDevice                                 Middlewares/STemWin/Lib/STemWin_CM7_wc32.a(LCD_GetEx.o)
                                                  Middlewares/STemWin/Lib/STemWin_CM7_wc32.a(GUIDEV.o)
LCD__GetPfSetPixel                                Middlewares/STemWin/Lib/STemWin_CM7_wc32.a(LCD_AA.o)
                                                  Middlewares/STemWin/Lib/STemWin_CM7_wc32.a(LCD_RotateCW.o)
                                                  Middlewares/STemWin/Lib/STemWin_CM7_wc32.a(LCD_RotateCCW.o)
                                                  Middlewares/STemWin/Lib/STemWin_CM7_wc32.a(LCD_Rotate180.o)
LCD__SetPaletteConversionHook                     Middlewares/STemWin/Lib/STemWin_CM7_wc32.a(LCD_Color.o)
LCD__aConvTable                                   Middlewares/STemWin/Lib/STemWin_CM7_wc32.a(LCD_Color.o)
LCD__pSetColorAPI                                 Middlewares/STemWin/Lib/STemWin_CM7_wc32.a(LCD.o)
LCD_aMirror                                       Middlewares/STemWin/Lib/STemWin_CM7_wc32.a(LCD_Mirror.o)
                                                  Middlewares/STemWin/Lib/STemWin_CM7_wc32.a(GUIDEV_32.o)
                                                  Middlewares/STemWin/Lib/STemWin_CM7_wc32.a(GUIDRV_Lin_32.o)
LPTIM1_IRQHandler                                 build/startup_stm32f746xx.o
LTDC_ER_IRQHandler                                build/startup_stm32f746xx.o
LTDC_IRQHandler                                   build/stm32f7xx_it.o
MULTIEDIT_AddKey                                  Middlewares/STemWin/Lib/STemWin_CM7_wc32.a(MULTIEDIT.o)
MULTIEDIT_AddText                                 Middlewares/STemWin/Lib/STemWin_CM7_wc32.a(MULTIEDIT.o)
MULTIEDIT_Callback                                Middlewares/STemWin/Lib/STemWin_CM7_wc32.a(MULTIEDIT.o)
MULTIEDIT_Create                                  Middlewares/STemWin/Lib/STemWin_CM7_wc32.a(MULTIEDIT.o)
MULTIEDIT_CreateEx                                Middlewares/STemWin/Lib/STemWin_CM7_wc32.a(MULTIEDIT.o)
                                                  build/FramewinDLG.o
MULTIEDIT_CreateIndirect                          Middlewares/STemWin/Lib/STemWin_CM7_wc32.a(MULTIEDIT.o)
MULTIEDIT_CreateUser                              Middlewares/STemWin/Lib/STemWin_CM7_wc32.a(MULTIEDIT.o)
MULTIEDIT_EnableBlink                             Middlewares/STemWin/Lib/STemWin_CM7_wc32.a(MULTIEDIT.o)
MULTIEDIT_GetBkColor                              Middlewares/STemWin/Lib/STemWin_CM7_wc32.a(MULTIEDIT.o)
MULTIEDIT_GetCursorCharPos                        Middlewares/STemWin/Lib/STemWin_CM7_wc32.a(MULTIEDIT.o)
MULTIEDIT_GetCursorPixelPos                       Middlewares/STemWin/Lib/STemWin_CM7_wc32.a(MULTIEDIT.o)
MULTIEDIT_GetFont                                 Middlewares/STemWin/Lib/STemWin_CM7_wc32.a(MULTIEDIT.o)
MULTIEDIT_GetPrompt                               Middlewares/STemWin/Lib/STemWin_CM7_wc32.a(MULTIEDIT.o)
MULTIEDIT_GetText                                 Middlewares/STemWin/Lib/STemWin_CM7_wc32.a(MULTIEDIT.o)
MULTIEDIT_GetTextColor                            Middlewares/STemWin/Lib/STemWin_CM7_wc32.a(MULTIEDIT.o)
MULTIEDIT_GetTextSize                             Middlewares/STemWin/Lib/STemWin_CM7_wc32.a(MULTIEDIT.o)
MULTIEDIT_GetUserData                             Middlewares/STemWin/Lib/STemWin_CM7_wc32.a(MULTIEDIT.o)
MULTIEDIT_SetAutoScrollH                          Middlewares/STemWin/Lib/STemWin_CM7_wc32.a(MULTIEDIT.o)
MULTIEDIT_SetAutoScrollV                          Middlewares/STemWin/Lib/STemWin_CM7_wc32.a(MULTIEDIT.o)
MULTIEDIT_SetBkColor                              Middlewares/STemWin/Lib/STemWin_CM7_wc32.a(MULTIEDIT.o)
MULTIEDIT_SetBufferSize                           Middlewares/STemWin/Lib/STemWin_CM7_wc32.a(MULTIEDIT.o)
MULTIEDIT_SetCursorCharPos                        Middlewares/STemWin/Lib/STemWin_CM7_wc32.a(MULTIEDIT.o)
MULTIEDIT_SetCursorOffset                         Middlewares/STemWin/Lib/STemWin_CM7_wc32.a(MULTIEDIT.o)
MULTIEDIT_SetCursorPixelPos                       Middlewares/STemWin/Lib/STemWin_CM7_wc32.a(MULTIEDIT.o)
MULTIEDIT_SetFocusable                            Middlewares/STemWin/Lib/STemWin_CM7_wc32.a(MULTIEDIT.o)
MULTIEDIT_SetFont                                 Middlewares/STemWin/Lib/STemWin_CM7_wc32.a(MULTIEDIT.o)
MULTIEDIT_SetHBorder                              Middlewares/STemWin/Lib/STemWin_CM7_wc32.a(MULTIEDIT.o)
MULTIEDIT_SetInsertMode                           Middlewares/STemWin/Lib/STemWin_CM7_wc32.a(MULTIEDIT.o)
MULTIEDIT_SetMaxNumChars                          Middlewares/STemWin/Lib/STemWin_CM7_wc32.a(MULTIEDIT.o)
MULTIEDIT_SetPasswordMode                         Middlewares/STemWin/Lib/STemWin_CM7_wc32.a(MULTIEDIT.o)
MULTIEDIT_SetPrompt                               Middlewares/STemWin/Lib/STemWin_CM7_wc32.a(MULTIEDIT.o)
MULTIEDIT_SetReadOnly                             Middlewares/STemWin/Lib/STemWin_CM7_wc32.a(MULTIEDIT.o)
MULTIEDIT_SetText                                 Middlewares/STemWin/Lib/STemWin_CM7_wc32.a(MULTIEDIT.o)
MULTIEDIT_SetTextAlign                            Middlewares/STemWin/Lib/STemWin_CM7_wc32.a(MULTIEDIT.o)
MULTIEDIT_SetTextColor                            Middlewares/STemWin/Lib/STemWin_CM7_wc32.a(MULTIEDIT.o)
MULTIEDIT_SetUserData                             Middlewares/STemWin/Lib/STemWin_CM7_wc32.a(MULTIEDIT.o)
MULTIEDIT_SetWrapChar                             Middlewares/STemWin/Lib/STemWin_CM7_wc32.a(MULTIEDIT.o)
MULTIEDIT_SetWrapNone                             Middlewares/STemWin/Lib/STemWin_CM7_wc32.a(MULTIEDIT.o)
MULTIEDIT_SetWrapWord                             Middlewares/STemWin/Lib/STemWin_CM7_wc32.a(MULTIEDIT.o)
MULTIEDIT_ShowCursor                              Middlewares/STemWin/Lib/STemWin_CM7_wc32.a(MULTIEDIT.o)
MemManage_Handler                                 build/stm32f7xx_it.o
NMI_Handler                                       build/stm32f7xx_it.o
OS_TimeMS                                         build/GUI_X.o
                                                  build/main.o
OTG_FS_IRQHandler                                 build/startup_stm32f746xx.o
OTG_FS_WKUP_IRQHandler                            build/startup_stm32f746xx.o
OTG_HS_EP1_IN_IRQHandler                          build/startup_stm32f746xx.o
OTG_HS_EP1_OUT_IRQHandler                         build/startup_stm32f746xx.o
OTG_HS_IRQHandler                                 build/startup_stm32f746xx.o
OTG_HS_WKUP_IRQHandler                            build/startup_stm32f746xx.o
PVD_IRQHandler                                    build/startup_stm32f746xx.o
PendSV_Handler                                    build/startup_stm32f746xx.o
QUADSPI_IRQHandler                                build/startup_stm32f746xx.o
RCC_IRQHandler                                    build/startup_stm32f746xx.o
RNG_IRQHandler                                    build/startup_stm32f746xx.o
RTC_Alarm_IRQHandler                              build/startup_stm32f746xx.o
RTC_WKUP_IRQHandler                               build/startup_stm32f746xx.o
Reset_Handler                                     build/startup_stm32f746xx.o
SAI1_IRQHandler                                   build/startup_stm32f746xx.o
SAI2_IRQHandler                                   build/startup_stm32f746xx.o
SCROLLBAR_AddValue                                Middlewares/STemWin/Lib/STemWin_CM7_wc32.a(SCROLLBAR.o)
SCROLLBAR_Callback                                Middlewares/STemWin/Lib/STemWin_CM7_wc32.a(SCROLLBAR.o)
SCROLLBAR_Create                                  Middlewares/STemWin/Lib/STemWin_CM7_wc32.a(SCROLLBAR.o)
SCROLLBAR_CreateAttached                          Middlewares/STemWin/Lib/STemWin_CM7_wc32.a(SCROLLBAR.o)
                                                  Middlewares/STemWin/Lib/STemWin_CM7_wc32.a(WM_SetScrollbar.o)
SCROLLBAR_CreateEx                                Middlewares/STemWin/Lib/STemWin_CM7_wc32.a(SCROLLBAR.o)
SCROLLBAR_CreateIndirect                          Middlewares/STemWin/Lib/STemWin_CM7_wc32.a(SCROLLBAR.o)
SCROLLBAR_CreateUser                              Middlewares/STemWin/Lib/STemWin_CM7_wc32.a(SCROLLBAR.o)
SCROLLBAR_Dec                                     Middlewares/STemWin/Lib/STemWin_CM7_wc32.a(SCROLLBAR.o)
                                                  Middlewares/STemWin/Lib/STemWin_CM7_wc32.a(MULTIEDIT.o)
SCROLLBAR_DrawSkinFlex                            Middlewares/STemWin/Lib/STemWin_CM7_wc32.a(SCROLLBAR_SkinFlex.o)
                                                  Middlewares/STemWin/Lib/STemWin_CM7_wc32.a(SCROLLBAR.o)
SCROLLBAR_GetColor                                Middlewares/STemWin/Lib/STemWin_CM7_wc32.a(SCROLLBAR.o)
SCROLLBAR_GetNumItems                             Middlewares/STemWin/Lib/STemWin_CM7_wc32.a(SCROLLBAR.o)
SCROLLBAR_GetPageSize                             Middlewares/STemWin/Lib/STemWin_CM7_wc32.a(SCROLLBAR.o)
SCROLLBAR_GetSkinFlexProps                        Middlewares/STemWin/Lib/STemWin_CM7_wc32.a(SCROLLBAR_SkinFlex.o)
SCROLLBAR_GetUserData                             Middlewares/STemWin/Lib/STemWin_CM7_wc32.a(SCROLLBAR.o)
SCROLLBAR_GetValue                                Middlewares/STemWin/Lib/STemWin_CM7_wc32.a(SCROLLBAR.o)
SCROLLBAR_Inc                                     Middlewares/STemWin/Lib/STemWin_CM7_wc32.a(SCROLLBAR.o)
                                                  Middlewares/STemWin/Lib/STemWin_CM7_wc32.a(MULTIEDIT.o)
SCROLLBAR_SetColor                                Middlewares/STemWin/Lib/STemWin_CM7_wc32.a(SCROLLBAR.o)
SCROLLBAR_SetDefaultSkin                          Middlewares/STemWin/Lib/STemWin_CM7_wc32.a(SCROLLBAR_Skin.o)
SCROLLBAR_SetNumItems                             Middlewares/STemWin/Lib/STemWin_CM7_wc32.a(SCROLLBAR.o)
SCROLLBAR_SetPageSize                             Middlewares/STemWin/Lib/STemWin_CM7_wc32.a(SCROLLBAR.o)
SCROLLBAR_SetSkin                                 Middlewares/STemWin/Lib/STemWin_CM7_wc32.a(SCROLLBAR_Skin.o)
SCROLLBAR_SetSkinFlexProps                        Middlewares/STemWin/Lib/STemWin_CM7_wc32.a(SCROLLBAR_SkinFlex.o)
SCROLLBAR_SetState                                Middlewares/STemWin/Lib/STemWin_CM7_wc32.a(SCROLLBAR.o)
SCROLLBAR_SetUserData                             Middlewares/STemWin/Lib/STemWin_CM7_wc32.a(SCROLLBAR.o)
SCROLLBAR_SetValue                                Middlewares/STemWin/Lib/STemWin_CM7_wc32.a(SCROLLBAR.o)
SCROLLBAR_SetWidth                                Middlewares/STemWin/Lib/STemWin_CM7_wc32.a(SCROLLBAR.o)
SCROLLBAR__DefaultProps                           Middlewares/STemWin/Lib/STemWin_CM7_wc32.a(SCROLLBAR.o)
                                                  Middlewares/STemWin/Lib/STemWin_CM7_wc32.a(SCROLLBAR_Skin.o)
SCROLLBAR__DefaultWidth                           Middlewares/STemWin/Lib/STemWin_CM7_wc32.a(SCROLLBAR.o)
SCROLLBAR__InvalidatePartner                      Middlewares/STemWin/Lib/STemWin_CM7_wc32.a(SCROLLBAR.o)
SCROLLBAR__Rect2VRect                             Middlewares/STemWin/Lib/STemWin_CM7_wc32.a(SCROLLBAR.o)
                                                  Middlewares/STemWin/Lib/STemWin_CM7_wc32.a(SCROLLBAR_Skin.o)
SCROLLBAR__Skin                                   Middlewares/STemWin/Lib/STemWin_CM7_wc32.a(SCROLLBAR_Skin.o)
                                                  Middlewares/STemWin/Lib/STemWin_CM7_wc32.a(SCROLLBAR.o)
SCROLLBAR__ThumbSizeMin                           Middlewares/STemWin/Lib/STemWin_CM7_wc32.a(SCROLLBAR.o)
                                                  Middlewares/STemWin/Lib/STemWin_CM7_wc32.a(SCROLLBAR_Skin.o)
SCROLLBAR__pSkinDefault                           Middlewares/STemWin/Lib/STemWin_CM7_wc32.a(SCROLLBAR.o)
                                                  Middlewares/STemWin/Lib/STemWin_CM7_wc32.a(SCROLLBAR_Skin.o)
SDMMC1_IRQHandler                                 build/startup_stm32f746xx.o
SPDIF_RX_IRQHandler                               build/startup_stm32f746xx.o
SPI1_IRQHandler                                   build/startup_stm32f746xx.o
SPI2_IRQHandler                                   build/startup_stm32f746xx.o
SPI3_IRQHandler                                   build/startup_stm32f746xx.o
SPI4_IRQHandler                                   build/startup_stm32f746xx.o
SPI5_IRQHandler                                   build/startup_stm32f746xx.o
SPI6_IRQHandler                                   build/startup_stm32f746xx.o
SVC_Handler                                       build/startup_stm32f746xx.o
SysTick_Handler                                   build/stm32f7xx_it.o
SystemClock_Config                                build/main.o
SystemCoreClock                                   build/system_stm32f7xx.o
                                                  build/stm32f7xx_hal_dma.o
                                                  build/stm32f7xx_hal_rcc.o
                                                  build/stm32f7xx_hal.o
SystemCoreClockUpdate                             build/system_stm32f7xx.o
SystemInit                                        build/system_stm32f7xx.o
                                                  build/startup_stm32f746xx.o
TAMP_STAMP_IRQHandler                             build/startup_stm32f746xx.o
TEXT_Callback                                     Middlewares/STemWin/Lib/STemWin_CM7_wc32.a(TEXT.o)
TEXT_Create                                       Middlewares/STemWin/Lib/STemWin_CM7_wc32.a(TEXT.o)
TEXT_CreateAsChild                                Middlewares/STemWin/Lib/STemWin_CM7_wc32.a(TEXT.o)
TEXT_CreateEx                                     Middlewares/STemWin/Lib/STemWin_CM7_wc32.a(TEXT.o)
                                                  build/FramewinDLG.o
TEXT_CreateIndirect                               Middlewares/STemWin/Lib/STemWin_CM7_wc32.a(TEXT.o)
TEXT_CreateUser                                   Middlewares/STemWin/Lib/STemWin_CM7_wc32.a(TEXT.o)
TEXT_GetBkColor                                   Middlewares/STemWin/Lib/STemWin_CM7_wc32.a(TEXT.o)
TEXT_GetFont                                      Middlewares/STemWin/Lib/STemWin_CM7_wc32.a(TEXT.o)
TEXT_GetNumLines                                  Middlewares/STemWin/Lib/STemWin_CM7_wc32.a(TEXT.o)
TEXT_GetText                                      Middlewares/STemWin/Lib/STemWin_CM7_wc32.a(TEXT.o)
TEXT_GetTextAlign                                 Middlewares/STemWin/Lib/STemWin_CM7_wc32.a(TEXT.o)
TEXT_GetTextColor                                 Middlewares/STemWin/Lib/STemWin_CM7_wc32.a(TEXT.o)
TEXT_GetUserData                                  Middlewares/STemWin/Lib/STemWin_CM7_wc32.a(TEXT.o)
TEXT_GetWrapMode                                  Middlewares/STemWin/Lib/STemWin_CM7_wc32.a(TEXT.o)
TEXT_SetBkColor                                   Middlewares/STemWin/Lib/STemWin_CM7_wc32.a(TEXT.o)
TEXT_SetDec                                       Middlewares/STemWin/Lib/STemWin_CM7_wc32.a(TEXT.o)
TEXT_SetFont                                      Middlewares/STemWin/Lib/STemWin_CM7_wc32.a(TEXT.o)
TEXT_SetText                                      Middlewares/STemWin/Lib/STemWin_CM7_wc32.a(TEXT.o)
TEXT_SetTextAlign                                 Middlewares/STemWin/Lib/STemWin_CM7_wc32.a(TEXT.o)
TEXT_SetTextColor                                 Middlewares/STemWin/Lib/STemWin_CM7_wc32.a(TEXT.o)
TEXT_SetUserData                                  Middlewares/STemWin/Lib/STemWin_CM7_wc32.a(TEXT.o)
TEXT_SetWrapMode                                  Middlewares/STemWin/Lib/STemWin_CM7_wc32.a(TEXT.o)
TEXT__DefaultProps                                Middlewares/STemWin/Lib/STemWin_CM7_wc32.a(TEXT.o)
TIM1_BRK_TIM9_IRQHandler                          build/startup_stm32f746xx.o
TIM1_CC_IRQHandler                                build/startup_stm32f746xx.o
TIM1_TRG_COM_TIM11_IRQHandler                     build/startup_stm32f746xx.o
TIM1_UP_TIM10_IRQHandler                          build/startup_stm32f746xx.o
TIM2_IRQHandler                                   build/startup_stm32f746xx.o
TIM3_IRQHandler                                   build/startup_stm32f746xx.o
TIM4_IRQHandler                                   build/startup_stm32f746xx.o
TIM5_IRQHandler                                   build/startup_stm32f746xx.o
TIM6_DAC_IRQHandler                               build/startup_stm32f746xx.o
TIM7_IRQHandler                                   build/startup_stm32f746xx.o
TIM8_BRK_TIM12_IRQHandler                         build/startup_stm32f746xx.o
TIM8_CC_IRQHandler                                build/startup_stm32f746xx.o
TIM8_TRG_COM_TIM14_IRQHandler                     build/startup_stm32f746xx.o
TIM8_UP_TIM13_IRQHandler                          build/startup_stm32f746xx.o
TS_IO_Delay                                       build/stm32746g_discovery.o
                                                  build/ft5336.o
TS_IO_Init                                        build/stm32746g_discovery.o
                                                  build/ft5336.o
TS_IO_Read                                        build/stm32746g_discovery.o
                                                  build/ft5336.o
TS_IO_Write                                       build/stm32746g_discovery.o
                                                  build/ft5336.o
UART4_IRQHandler                                  build/startup_stm32f746xx.o
UART5_IRQHandler                                  build/startup_stm32f746xx.o
UART7_IRQHandler                                  build/startup_stm32f746xx.o
UART8_IRQHandler                                  build/startup_stm32f746xx.o
UART_AdvFeatureConfig                             build/stm32f7xx_hal_uart.o
                                                  build/stm32f7xx_hal_uart_ex.o
UART_CheckIdleState                               build/stm32f7xx_hal_uart.o
                                                  build/stm32f7xx_hal_uart_ex.o
UART_SetConfig                                    build/stm32f7xx_hal_uart.o
                                                  build/stm32f7xx_hal_uart_ex.o
UART_WaitOnFlagUntilTimeout                       build/stm32f7xx_hal_uart.o
USART1_IRQHandler                                 build/startup_stm32f746xx.o
USART2_IRQHandler                                 build/startup_stm32f746xx.o
USART3_IRQHandler                                 build/startup_stm32f746xx.o
USART6_IRQHandler                                 build/startup_stm32f746xx.o
UsageFault_Handler                                build/stm32f7xx_it.o
WIDGET_AndState                                   Middlewares/STemWin/Lib/STemWin_CM7_wc32.a(WIDGET.o)
                                                  Middlewares/STemWin/Lib/STemWin_CM7_wc32.a(SCROLLBAR.o)
                                                  Middlewares/STemWin/Lib/STemWin_CM7_wc32.a(MULTIEDIT.o)
                                                  Middlewares/STemWin/Lib/STemWin_CM7_wc32.a(BUTTON.o)
WIDGET_EFFECT_Simple_GetColor                     Middlewares/STemWin/Lib/STemWin_CM7_wc32.a(WIDGET_Effect_Simple.o)
WIDGET_EFFECT_Simple_GetNumColors                 Middlewares/STemWin/Lib/STemWin_CM7_wc32.a(WIDGET_Effect_Simple.o)
WIDGET_EFFECT_Simple_SetColor                     Middlewares/STemWin/Lib/STemWin_CM7_wc32.a(WIDGET_Effect_Simple.o)
WIDGET_Effect_Simple                              Middlewares/STemWin/Lib/STemWin_CM7_wc32.a(WIDGET_Effect_Simple.o)
                                                  Middlewares/STemWin/Lib/STemWin_CM7_wc32.a(WIDGET.o)
WIDGET_GetDefaultEffect                           Middlewares/STemWin/Lib/STemWin_CM7_wc32.a(WIDGET.o)
WIDGET_GetState                                   Middlewares/STemWin/Lib/STemWin_CM7_wc32.a(WIDGET.o)
                                                  Middlewares/STemWin/Lib/STemWin_CM7_wc32.a(MULTIEDIT.o)
WIDGET_HandleActive                               Middlewares/STemWin/Lib/STemWin_CM7_wc32.a(WIDGET.o)
                                                  Middlewares/STemWin/Lib/STemWin_CM7_wc32.a(TEXT.o)
                                                  Middlewares/STemWin/Lib/STemWin_CM7_wc32.a(SCROLLBAR.o)
                                                  Middlewares/STemWin/Lib/STemWin_CM7_wc32.a(MULTIEDIT.o)
                                                  Middlewares/STemWin/Lib/STemWin_CM7_wc32.a(FRAMEWIN.o)
                                                  Middlewares/STemWin/Lib/STemWin_CM7_wc32.a(BUTTON.o)
WIDGET_OrState                                    Middlewares/STemWin/Lib/STemWin_CM7_wc32.a(WIDGET.o)
                                                  Middlewares/STemWin/Lib/STemWin_CM7_wc32.a(SCROLLBAR.o)
                                                  Middlewares/STemWin/Lib/STemWin_CM7_wc32.a(MULTIEDIT.o)
                                                  Middlewares/STemWin/Lib/STemWin_CM7_wc32.a(FRAMEWIN.o)
                                                  Middlewares/STemWin/Lib/STemWin_CM7_wc32.a(DIALOG.o)
                                                  Middlewares/STemWin/Lib/STemWin_CM7_wc32.a(BUTTON.o)
WIDGET_SetDefaultEffect                           Middlewares/STemWin/Lib/STemWin_CM7_wc32.a(WIDGET.o)
WIDGET_SetEffect                                  Middlewares/STemWin/Lib/STemWin_CM7_wc32.a(WIDGET.o)
WIDGET_SetFocusable                               Middlewares/STemWin/Lib/STemWin_CM7_wc32.a(WIDGET.o)
WIDGET_SetState                                   Middlewares/STemWin/Lib/STemWin_CM7_wc32.a(WIDGET.o)
                                                  Middlewares/STemWin/Lib/STemWin_CM7_wc32.a(BUTTON.o)
WIDGET_SetWidth                                   Middlewares/STemWin/Lib/STemWin_CM7_wc32.a(WIDGET.o)
                                                  Middlewares/STemWin/Lib/STemWin_CM7_wc32.a(SCROLLBAR.o)
WIDGET__DrawFocusRect                             Middlewares/STemWin/Lib/STemWin_CM7_wc32.a(WIDGET.o)
WIDGET__DrawHLine                                 Middlewares/STemWin/Lib/STemWin_CM7_wc32.a(WIDGET.o)
WIDGET__DrawTriangle                              Middlewares/STemWin/Lib/STemWin_CM7_wc32.a(WIDGET.o)
                                                  Middlewares/STemWin/Lib/STemWin_CM7_wc32.a(SCROLLBAR_SkinFlex.o)
WIDGET__DrawVLine                                 Middlewares/STemWin/Lib/STemWin_CM7_wc32.a(WIDGET.o)
WIDGET__EFFECT_DrawDown                           Middlewares/STemWin/Lib/STemWin_CM7_wc32.a(WIDGET.o)
                                                  Middlewares/STemWin/Lib/STemWin_CM7_wc32.a(MULTIEDIT.o)
WIDGET__EFFECT_DrawDownRect                       Middlewares/STemWin/Lib/STemWin_CM7_wc32.a(WIDGET.o)
WIDGET__EFFECT_DrawUpRect                         Middlewares/STemWin/Lib/STemWin_CM7_wc32.a(WIDGET.o)
WIDGET__FillRectEx                                Middlewares/STemWin/Lib/STemWin_CM7_wc32.a(WIDGET.o)
WIDGET__FillStringInRect                          Middlewares/STemWin/Lib/STemWin_CM7_wc32.a(WIDGET.o)
WIDGET__GetBkColor                                Middlewares/STemWin/Lib/STemWin_CM7_wc32.a(WIDGET.o)
WIDGET__GetClientRect                             Middlewares/STemWin/Lib/STemWin_CM7_wc32.a(WIDGET.o)
                                                  Middlewares/STemWin/Lib/STemWin_CM7_wc32.a(SCROLLBAR_Skin.o)
WIDGET__GetInsideRect                             Middlewares/STemWin/Lib/STemWin_CM7_wc32.a(WIDGET.o)
WIDGET__GetWindowSizeX                            Middlewares/STemWin/Lib/STemWin_CM7_wc32.a(WIDGET.o)
WIDGET__GetXSize                                  Middlewares/STemWin/Lib/STemWin_CM7_wc32.a(WIDGET.o)
WIDGET__GetYSize                                  Middlewares/STemWin/Lib/STemWin_CM7_wc32.a(WIDGET.o)
WIDGET__Init                                      Middlewares/STemWin/Lib/STemWin_CM7_wc32.a(WIDGET.o)
                                                  Middlewares/STemWin/Lib/STemWin_CM7_wc32.a(TEXT.o)
                                                  Middlewares/STemWin/Lib/STemWin_CM7_wc32.a(SCROLLBAR.o)
                                                  Middlewares/STemWin/Lib/STemWin_CM7_wc32.a(MULTIEDIT.o)
                                                  Middlewares/STemWin/Lib/STemWin_CM7_wc32.a(FRAMEWIN.o)
                                                  Middlewares/STemWin/Lib/STemWin_CM7_wc32.a(BUTTON.o)
WIDGET__RotateRect90                              Middlewares/STemWin/Lib/STemWin_CM7_wc32.a(WIDGET.o)
                                                  Middlewares/STemWin/Lib/STemWin_CM7_wc32.a(SCROLLBAR_SkinFlex.o)
WIDGET__SetScrollState                            Middlewares/STemWin/Lib/STemWin_CM7_wc32.a(WIDGET.o)
                                                  Middlewares/STemWin/Lib/STemWin_CM7_wc32.a(MULTIEDIT.o)
WM_Activate                                       Middlewares/STemWin/Lib/STemWin_CM7_wc32.a(WM.o)
                                                  Middlewares/STemWin/Lib/STemWin_CM7_wc32.a(GUIDEV.o)
                                                  Middlewares/STemWin/Lib/STemWin_CM7_wc32.a(GUI_Common.o)
WM_AttachWindow                                   Middlewares/STemWin/Lib/STemWin_CM7_wc32.a(WM_Lib.o)
WM_AttachWindowAt                                 Middlewares/STemWin/Lib/STemWin_CM7_wc32.a(WM_Lib.o)
WM_BringToBottom                                  Middlewares/STemWin/Lib/STemWin_CM7_wc32.a(WM_Lib.o)
                                                  Middlewares/STemWin/Lib/STemWin_CM7_wc32.a(WM.o)
WM_BringToTop                                     Middlewares/STemWin/Lib/STemWin_CM7_wc32.a(WM_BringToTop.o)
                                                  Middlewares/STemWin/Lib/STemWin_CM7_wc32.a(WIDGET.o)
                                                  Middlewares/STemWin/Lib/STemWin_CM7_wc32.a(FRAMEWIN.o)
WM_BroadcastMessage                               Middlewares/STemWin/Lib/STemWin_CM7_wc32.a(WM_Lib.o)
WM_CheckScrollBounds                              Middlewares/STemWin/Lib/STemWin_CM7_wc32.a(WM_Lib.o)
WM_CheckScrollPos                                 Middlewares/STemWin/Lib/STemWin_CM7_wc32.a(WM_Lib.o)
                                                  Middlewares/STemWin/Lib/STemWin_CM7_wc32.a(MULTIEDIT.o)
WM_ClrHasTrans                                    Middlewares/STemWin/Lib/STemWin_CM7_wc32.a(WM_SetTrans.o)
                                                  Middlewares/STemWin/Lib/STemWin_CM7_wc32.a(TEXT.o)
WM_CreateTimer                                    Middlewares/STemWin/Lib/STemWin_CM7_wc32.a(WM_Timer.o)
                                                  Middlewares/STemWin/Lib/STemWin_CM7_wc32.a(SCROLLBAR.o)
                                                  Middlewares/STemWin/Lib/STemWin_CM7_wc32.a(MULTIEDIT.o)
WM_CreateWindow                                   Middlewares/STemWin/Lib/STemWin_CM7_wc32.a(WM.o)
WM_CreateWindowAsChild                            Middlewares/STemWin/Lib/STemWin_CM7_wc32.a(WM.o)
                                                  Middlewares/STemWin/Lib/STemWin_CM7_wc32.a(TEXT.o)
                                                  Middlewares/STemWin/Lib/STemWin_CM7_wc32.a(SCROLLBAR.o)
                                                  Middlewares/STemWin/Lib/STemWin_CM7_wc32.a(MULTIEDIT.o)
                                                  Middlewares/STemWin/Lib/STemWin_CM7_wc32.a(FRAMEWIN.o)
                                                  Middlewares/STemWin/Lib/STemWin_CM7_wc32.a(BUTTON.o)
WM_Deactivate                                     Middlewares/STemWin/Lib/STemWin_CM7_wc32.a(WM.o)
                                                  Middlewares/STemWin/Lib/STemWin_CM7_wc32.a(GUIDEV.o)
WM_DefaultProc                                    Middlewares/STemWin/Lib/STemWin_CM7_wc32.a(WM.o)
                                                  Middlewares/STemWin/Lib/STemWin_CM7_wc32.a(TEXT.o)
                                                  Middlewares/STemWin/Lib/STemWin_CM7_wc32.a(SCROLLBAR.o)
                                                  Middlewares/STemWin/Lib/STemWin_CM7_wc32.a(MULTIEDIT.o)
                                                  Middlewares/STemWin/Lib/STemWin_CM7_wc32.a(FRAMEWIN.o)
                                                  Middlewares/STemWin/Lib/STemWin_CM7_wc32.a(BUTTON.o)
                                                  Middlewares/STemWin/Lib/STemWin_CM7_wc32.a(WM__Private.o)
                                                  build/FramewinDLG.o
WM_DeleteTimer                                    Middlewares/STemWin/Lib/STemWin_CM7_wc32.a(WM_Timer.o)
                                                  Middlewares/STemWin/Lib/STemWin_CM7_wc32.a(SCROLLBAR.o)
                                                  Middlewares/STemWin/Lib/STemWin_CM7_wc32.a(MULTIEDIT.o)
WM_DeleteWindow                                   Middlewares/STemWin/Lib/STemWin_CM7_wc32.a(WM.o)
                                                  Middlewares/STemWin/Lib/STemWin_CM7_wc32.a(MULTIEDIT.o)
                                                  Middlewares/STemWin/Lib/STemWin_CM7_wc32.a(DIALOG.o)
WM_DetachWindow                                   Middlewares/STemWin/Lib/STemWin_CM7_wc32.a(WM_Lib.o)
WM_DisableMemdev                                  Middlewares/STemWin/Lib/STemWin_CM7_wc32.a(WM_MemDev.o)
                                                  Middlewares/STemWin/Lib/STemWin_CM7_wc32.a(FRAMEWIN.o)
WM_DisableWindow                                  Middlewares/STemWin/Lib/STemWin_CM7_wc32.a(WM_Lib.o)
WM_EnableMemdev                                   Middlewares/STemWin/Lib/STemWin_CM7_wc32.a(WM_MemDev.o)
WM_EnableWindow                                   Middlewares/STemWin/Lib/STemWin_CM7_wc32.a(WM_Lib.o)
WM_Exec                                           Middlewares/STemWin/Lib/STemWin_CM7_wc32.a(WM.o)
                                                  Middlewares/STemWin/Lib/STemWin_CM7_wc32.a(GUI_Common.o)
WM_Exec1                                          Middlewares/STemWin/Lib/STemWin_CM7_wc32.a(WM.o)
WM_ForEachDesc                                    Middlewares/STemWin/Lib/STemWin_CM7_wc32.a(WM_Lib.o)
                                                  Middlewares/STemWin/Lib/STemWin_CM7_wc32.a(WM_BringToTop.o)
WM_GetActiveWindow                                Middlewares/STemWin/Lib/STemWin_CM7_wc32.a(WM.o)
                                                  Middlewares/STemWin/Lib/STemWin_CM7_wc32.a(WM_GetWindowSize.o)
WM_GetBkColor                                     Middlewares/STemWin/Lib/STemWin_CM7_wc32.a(WM_Lib.o)
                                                  Middlewares/STemWin/Lib/STemWin_CM7_wc32.a(WIDGET.o)
WM_GetCallback                                    Middlewares/STemWin/Lib/STemWin_CM7_wc32.a(WM_Lib.o)
WM_GetClientRect                                  Middlewares/STemWin/Lib/STemWin_CM7_wc32.a(WM_Lib.o)
                                                  Middlewares/STemWin/Lib/STemWin_CM7_wc32.a(WIDGET_Effect_Simple.o)
                                                  Middlewares/STemWin/Lib/STemWin_CM7_wc32.a(WIDGET.o)
                                                  Middlewares/STemWin/Lib/STemWin_CM7_wc32.a(TEXT.o)
                                                  Middlewares/STemWin/Lib/STemWin_CM7_wc32.a(GUI_Common.o)
WM_GetClientRectEx                                Middlewares/STemWin/Lib/STemWin_CM7_wc32.a(WM_Lib.o)
                                                  Middlewares/STemWin/Lib/STemWin_CM7_wc32.a(TEXT.o)
                                                  Middlewares/STemWin/Lib/STemWin_CM7_wc32.a(MULTIEDIT.o)
WM_GetClientWindow                                Middlewares/STemWin/Lib/STemWin_CM7_wc32.a(WM_Lib.o)
                                                  Middlewares/STemWin/Lib/STemWin_CM7_wc32.a(DIALOG.o)
WM_GetDesktopWindow                               Middlewares/STemWin/Lib/STemWin_CM7_wc32.a(WM_Lib.o)
                                                  Middlewares/STemWin/Lib/STemWin_CM7_wc32.a(GUIDEV_StaticDevices.o)
                                                  Middlewares/STemWin/Lib/STemWin_CM7_wc32.a(MULTIEDIT.o)
                                                  Middlewares/STemWin/Lib/STemWin_CM7_wc32.a(DIALOG.o)
                                                  Middlewares/STemWin/Lib/STemWin_CM7_wc32.a(GUI_Core.o)
                                                  build/FramewinDLG.o
WM_GetDesktopWindowEx                             Middlewares/STemWin/Lib/STemWin_CM7_wc32.a(WM_Lib.o)
                                                  Middlewares/STemWin/Lib/STemWin_CM7_wc32.a(WM_Screen2Win.o)
WM_GetDialogItem                                  Middlewares/STemWin/Lib/STemWin_CM7_wc32.a(WM_Lib.o)
                                                  Middlewares/STemWin/Lib/STemWin_CM7_wc32.a(WM_SetScrollbar.o)
                                                  Middlewares/STemWin/Lib/STemWin_CM7_wc32.a(WIDGET.o)
WM_GetFirstChild                                  Middlewares/STemWin/Lib/STemWin_CM7_wc32.a(WM_Lib.o)
                                                  Middlewares/STemWin/Lib/STemWin_CM7_wc32.a(FRAMEWIN__UpdateButtons.o)
                                                  Middlewares/STemWin/Lib/STemWin_CM7_wc32.a(FRAMEWIN.o)
                                                  Middlewares/STemWin/Lib/STemWin_CM7_wc32.a(WM__Private.o)
                                                  Middlewares/STemWin/Lib/STemWin_CM7_wc32.a(WM.o)
WM_GetFlags                                       Middlewares/STemWin/Lib/STemWin_CM7_wc32.a(WM_Lib.o)
WM_GetFocusedWindow                               Middlewares/STemWin/Lib/STemWin_CM7_wc32.a(WM_Lib.o)
                                                  Middlewares/STemWin/Lib/STemWin_CM7_wc32.a(MULTIEDIT.o)
                                                  Middlewares/STemWin/Lib/STemWin_CM7_wc32.a(DIALOG.o)
WM_GetHasTrans                                    Middlewares/STemWin/Lib/STemWin_CM7_wc32.a(WM_SetTrans.o)
                                                  Middlewares/STemWin/Lib/STemWin_CM7_wc32.a(TEXT.o)
WM_GetId                                          Middlewares/STemWin/Lib/STemWin_CM7_wc32.a(WM_Lib.o)
                                                  build/FramewinDLG.o
WM_GetInsideRect                                  Middlewares/STemWin/Lib/STemWin_CM7_wc32.a(WM_Lib.o)
WM_GetInsideRectEx                                Middlewares/STemWin/Lib/STemWin_CM7_wc32.a(WM_Lib.o)
                                                  Middlewares/STemWin/Lib/STemWin_CM7_wc32.a(SCROLLBAR.o)
WM_GetInsideRectExScrollbar                       Middlewares/STemWin/Lib/STemWin_CM7_wc32.a(WM_Lib.o)
                                                  Middlewares/STemWin/Lib/STemWin_CM7_wc32.a(MULTIEDIT.o)
WM_GetInvalidRect                                 Middlewares/STemWin/Lib/STemWin_CM7_wc32.a(WM_Lib.o)
WM_GetNextSibling                                 Middlewares/STemWin/Lib/STemWin_CM7_wc32.a(WM_Lib.o)
                                                  Middlewares/STemWin/Lib/STemWin_CM7_wc32.a(FRAMEWIN__UpdateButtons.o)
                                                  Middlewares/STemWin/Lib/STemWin_CM7_wc32.a(FRAMEWIN.o)
WM_GetNumInvalidWindows                           Middlewares/STemWin/Lib/STemWin_CM7_wc32.a(WM_Lib.o)
WM_GetNumWindows                                  Middlewares/STemWin/Lib/STemWin_CM7_wc32.a(WM_Lib.o)
WM_GetOrgX                                        Middlewares/STemWin/Lib/STemWin_CM7_wc32.a(WM_Lib.o)
WM_GetOrgY                                        Middlewares/STemWin/Lib/STemWin_CM7_wc32.a(WM_Lib.o)
WM_GetParent                                      Middlewares/STemWin/Lib/STemWin_CM7_wc32.a(WM_Lib.o)
                                                  Middlewares/STemWin/Lib/STemWin_CM7_wc32.a(WM_SetCaptureMove.o)
                                                  Middlewares/STemWin/Lib/STemWin_CM7_wc32.a(WIDGET.o)
                                                  Middlewares/STemWin/Lib/STemWin_CM7_wc32.a(SCROLLBAR.o)
                                                  Middlewares/STemWin/Lib/STemWin_CM7_wc32.a(MULTIEDIT.o)
                                                  Middlewares/STemWin/Lib/STemWin_CM7_wc32.a(FRAMEWIN.o)
                                                  Middlewares/STemWin/Lib/STemWin_CM7_wc32.a(WM__Private.o)
                                                  Middlewares/STemWin/Lib/STemWin_CM7_wc32.a(WM_Touch.o)
WM_GetPrevSibling                                 Middlewares/STemWin/Lib/STemWin_CM7_wc32.a(WM_Lib.o)
WM_GetScrollPartner                               Middlewares/STemWin/Lib/STemWin_CM7_wc32.a(WM_Lib.o)
                                                  Middlewares/STemWin/Lib/STemWin_CM7_wc32.a(SCROLLBAR.o)
WM_GetScrollState                                 Middlewares/STemWin/Lib/STemWin_CM7_wc32.a(WM_Lib.o)
                                                  Middlewares/STemWin/Lib/STemWin_CM7_wc32.a(MULTIEDIT.o)
WM_GetScrollbarH                                  Middlewares/STemWin/Lib/STemWin_CM7_wc32.a(WM_Lib.o)
                                                  Middlewares/STemWin/Lib/STemWin_CM7_wc32.a(SCROLLBAR_Skin.o)
                                                  Middlewares/STemWin/Lib/STemWin_CM7_wc32.a(MULTIEDIT.o)
WM_GetScrollbarV                                  Middlewares/STemWin/Lib/STemWin_CM7_wc32.a(WM_Lib.o)
                                                  Middlewares/STemWin/Lib/STemWin_CM7_wc32.a(SCROLLBAR_Skin.o)
                                                  Middlewares/STemWin/Lib/STemWin_CM7_wc32.a(MULTIEDIT.o)
WM_GetStayOnTop                                   Middlewares/STemWin/Lib/STemWin_CM7_wc32.a(WM_Lib.o)
WM_GetTimerId                                     Middlewares/STemWin/Lib/STemWin_CM7_wc32.a(WM_Timer.o)
WM_GetUserData                                    Middlewares/STemWin/Lib/STemWin_CM7_wc32.a(WM_UserData.o)
WM_GetWindowInfo                                  Middlewares/STemWin/Lib/STemWin_CM7_wc32.a(WM.o)
WM_GetWindowOrgX                                  Middlewares/STemWin/Lib/STemWin_CM7_wc32.a(WM_Lib.o)
                                                  Middlewares/STemWin/Lib/STemWin_CM7_wc32.a(GUIDEV_StaticDevices.o)
WM_GetWindowOrgY                                  Middlewares/STemWin/Lib/STemWin_CM7_wc32.a(WM_Lib.o)
WM_GetWindowRect                                  Middlewares/STemWin/Lib/STemWin_CM7_wc32.a(WM_Lib.o)
                                                  Middlewares/STemWin/Lib/STemWin_CM7_wc32.a(LCD_RotateCW.o)
                                                  Middlewares/STemWin/Lib/STemWin_CM7_wc32.a(LCD_RotateCCW.o)
                                                  Middlewares/STemWin/Lib/STemWin_CM7_wc32.a(LCD_Rotate180.o)
WM_GetWindowRectEx                                Middlewares/STemWin/Lib/STemWin_CM7_wc32.a(WM_Lib.o)
                                                  Middlewares/STemWin/Lib/STemWin_CM7_wc32.a(WM_SetCaptureMove.o)
                                                  Middlewares/STemWin/Lib/STemWin_CM7_wc32.a(GUIDEV_StaticDevices.o)
                                                  Middlewares/STemWin/Lib/STemWin_CM7_wc32.a(SCROLLBAR_Skin.o)
WM_GetWindowSizeX                                 Middlewares/STemWin/Lib/STemWin_CM7_wc32.a(WM_GetWindowSize.o)
                                                  Middlewares/STemWin/Lib/STemWin_CM7_wc32.a(WIDGET.o)
                                                  Middlewares/STemWin/Lib/STemWin_CM7_wc32.a(MULTIEDIT.o)
                                                  Middlewares/STemWin/Lib/STemWin_CM7_wc32.a(FRAMEWIN_Skin.o)
                                                  Middlewares/STemWin/Lib/STemWin_CM7_wc32.a(BUTTON_Skin.o)
WM_GetWindowSizeY                                 Middlewares/STemWin/Lib/STemWin_CM7_wc32.a(WM_GetWindowSize.o)
                                                  Middlewares/STemWin/Lib/STemWin_CM7_wc32.a(WIDGET.o)
                                                  Middlewares/STemWin/Lib/STemWin_CM7_wc32.a(MULTIEDIT.o)
                                                  Middlewares/STemWin/Lib/STemWin_CM7_wc32.a(FRAMEWIN_Skin.o)
                                                  Middlewares/STemWin/Lib/STemWin_CM7_wc32.a(FRAMEWIN.o)
                                                  Middlewares/STemWin/Lib/STemWin_CM7_wc32.a(BUTTON_Skin.o)
WM_HandlePID                                      Middlewares/STemWin/Lib/STemWin_CM7_wc32.a(WM_Touch.o)
                                                  Middlewares/STemWin/Lib/STemWin_CM7_wc32.a(GUI_PID.o)
WM_HasCaptured                                    Middlewares/STemWin/Lib/STemWin_CM7_wc32.a(WM_Lib.o)
                                                  Middlewares/STemWin/Lib/STemWin_CM7_wc32.a(WM_SetCaptureMove.o)
WM_HasFocus                                       Middlewares/STemWin/Lib/STemWin_CM7_wc32.a(WM_Lib.o)
                                                  Middlewares/STemWin/Lib/STemWin_CM7_wc32.a(MULTIEDIT.o)
                                                  Middlewares/STemWin/Lib/STemWin_CM7_wc32.a(FRAMEWIN.o)
WM_HideWindow                                     Middlewares/STemWin/Lib/STemWin_CM7_wc32.a(WM_Hide.o)
                                                  Middlewares/STemWin/Lib/STemWin_CM7_wc32.a(WM_SetScrollbar.o)
                                                  Middlewares/STemWin/Lib/STemWin_CM7_wc32.a(FRAMEWIN.o)
WM_Init                                           Middlewares/STemWin/Lib/STemWin_CM7_wc32.a(WM.o)
                                                  Middlewares/STemWin/Lib/STemWin_CM7_wc32.a(GUI_Core.o)
WM_InvalidateArea                                 Middlewares/STemWin/Lib/STemWin_CM7_wc32.a(WM_Lib.o)
WM_InvalidateRect                                 Middlewares/STemWin/Lib/STemWin_CM7_wc32.a(WM.o)
                                                  Middlewares/STemWin/Lib/STemWin_CM7_wc32.a(MULTIEDIT.o)
WM_InvalidateWindow                               Middlewares/STemWin/Lib/STemWin_CM7_wc32.a(WM.o)
                                                  Middlewares/STemWin/Lib/STemWin_CM7_wc32.a(WM_SetTrans.o)
                                                  Middlewares/STemWin/Lib/STemWin_CM7_wc32.a(WM_BringToTop.o)
                                                  Middlewares/STemWin/Lib/STemWin_CM7_wc32.a(WIDGET.o)
                                                  Middlewares/STemWin/Lib/STemWin_CM7_wc32.a(TEXT.o)
                                                  Middlewares/STemWin/Lib/STemWin_CM7_wc32.a(SCROLLBAR_Skin.o)
                                                  Middlewares/STemWin/Lib/STemWin_CM7_wc32.a(SCROLLBAR.o)
                                                  Middlewares/STemWin/Lib/STemWin_CM7_wc32.a(MULTIEDIT.o)
                                                  Middlewares/STemWin/Lib/STemWin_CM7_wc32.a(FRAMEWIN_Skin.o)
                                                  Middlewares/STemWin/Lib/STemWin_CM7_wc32.a(FRAMEWIN.o)
                                                  Middlewares/STemWin/Lib/STemWin_CM7_wc32.a(BUTTON_Skin.o)
                                                  Middlewares/STemWin/Lib/STemWin_CM7_wc32.a(BUTTON.o)
                                                  Middlewares/STemWin/Lib/STemWin_CM7_wc32.a(WM_Lib.o)
WM_InvalidateWindowAndDescs                       Middlewares/STemWin/Lib/STemWin_CM7_wc32.a(WM_Lib.o)
WM_InvalidateWindowAndDescsEx                     Middlewares/STemWin/Lib/STemWin_CM7_wc32.a(WM.o)
WM_IsEnabled                                      Middlewares/STemWin/Lib/STemWin_CM7_wc32.a(WM_Lib.o)
WM_IsFocusable                                    Middlewares/STemWin/Lib/STemWin_CM7_wc32.a(WM_Lib.o)
                                                  Middlewares/STemWin/Lib/STemWin_CM7_wc32.a(WM_SetFocusOnPrevChild.o)
                                                  Middlewares/STemWin/Lib/STemWin_CM7_wc32.a(WM_SetFocusOnNextChild.o)
WM_IsVisible                                      Middlewares/STemWin/Lib/STemWin_CM7_wc32.a(WM_Lib.o)
WM_IsWindow                                       Middlewares/STemWin/Lib/STemWin_CM7_wc32.a(WM_Lib.o)
                                                  Middlewares/STemWin/Lib/STemWin_CM7_wc32.a(FRAMEWIN.o)
                                                  Middlewares/STemWin/Lib/STemWin_CM7_wc32.a(WM_Touch.o)
WM_MULTIBUF__pAPI                                 Middlewares/STemWin/Lib/STemWin_CM7_wc32.a(WM.o)
WM_MoveChildTo                                    Middlewares/STemWin/Lib/STemWin_CM7_wc32.a(WM_Lib.o)
                                                  Middlewares/STemWin/Lib/STemWin_CM7_wc32.a(FRAMEWIN.o)
WM_MoveTo                                         Middlewares/STemWin/Lib/STemWin_CM7_wc32.a(WM_Move.o)
                                                  Middlewares/STemWin/Lib/STemWin_CM7_wc32.a(WM_Lib.o)
WM_MoveWindow                                     Middlewares/STemWin/Lib/STemWin_CM7_wc32.a(WM_Move.o)
                                                  Middlewares/STemWin/Lib/STemWin_CM7_wc32.a(WM_SetCaptureMove.o)
                                                  Middlewares/STemWin/Lib/STemWin_CM7_wc32.a(FRAMEWIN__UpdateButtons.o)
                                                  Middlewares/STemWin/Lib/STemWin_CM7_wc32.a(FRAMEWIN.o)
                                                  Middlewares/STemWin/Lib/STemWin_CM7_wc32.a(WM__Private.o)
                                                  Middlewares/STemWin/Lib/STemWin_CM7_wc32.a(WM_Lib.o)
WM_NotifyParent                                   Middlewares/STemWin/Lib/STemWin_CM7_wc32.a(WM_Lib.o)
                                                  Middlewares/STemWin/Lib/STemWin_CM7_wc32.a(WIDGET.o)
                                                  Middlewares/STemWin/Lib/STemWin_CM7_wc32.a(TEXT.o)
                                                  Middlewares/STemWin/Lib/STemWin_CM7_wc32.a(SCROLLBAR.o)
                                                  Middlewares/STemWin/Lib/STemWin_CM7_wc32.a(MULTIEDIT.o)
                                                  Middlewares/STemWin/Lib/STemWin_CM7_wc32.a(BUTTON.o)
                                                  Middlewares/STemWin/Lib/STemWin_CM7_wc32.a(WM.o)
WM_OnKey                                          Middlewares/STemWin/Lib/STemWin_CM7_wc32.a(WM_Lib.o)
                                                  Middlewares/STemWin/Lib/STemWin_CM7_wc32.a(GUI_OnKey.o)
WM_PID__GetPrevState                              Middlewares/STemWin/Lib/STemWin_CM7_wc32.a(WM_PID__GetPrevState.o)
WM_PID__SetPrevState                              Middlewares/STemWin/Lib/STemWin_CM7_wc32.a(WM_PID__GetPrevState.o)
                                                  Middlewares/STemWin/Lib/STemWin_CM7_wc32.a(WM_Touch.o)
WM_Paint                                          Middlewares/STemWin/Lib/STemWin_CM7_wc32.a(WM_Lib.o)
WM_ReleaseCapture                                 Middlewares/STemWin/Lib/STemWin_CM7_wc32.a(WM_SetCapture.o)
                                                  Middlewares/STemWin/Lib/STemWin_CM7_wc32.a(WM_Touch.o)
WM_ResizeWindow                                   Middlewares/STemWin/Lib/STemWin_CM7_wc32.a(WM_Lib.o)
                                                  Middlewares/STemWin/Lib/STemWin_CM7_wc32.a(FRAMEWIN__UpdateButtons.o)
                                                  Middlewares/STemWin/Lib/STemWin_CM7_wc32.a(WM__Private.o)
WM_RestartTimer                                   Middlewares/STemWin/Lib/STemWin_CM7_wc32.a(WM_Timer.o)
                                                  Middlewares/STemWin/Lib/STemWin_CM7_wc32.a(SCROLLBAR.o)
                                                  Middlewares/STemWin/Lib/STemWin_CM7_wc32.a(MULTIEDIT.o)
WM_Screen2hWin                                    Middlewares/STemWin/Lib/STemWin_CM7_wc32.a(WM_Screen2Win.o)
                                                  Middlewares/STemWin/Lib/STemWin_CM7_wc32.a(WM_Touch.o)
WM_Screen2hWinEx                                  Middlewares/STemWin/Lib/STemWin_CM7_wc32.a(WM_Screen2Win.o)
WM_SelectWindow                                   Middlewares/STemWin/Lib/STemWin_CM7_wc32.a(WM.o)
                                                  Middlewares/STemWin/Lib/STemWin_CM7_wc32.a(GUIDEV_StaticDevices.o)
                                                  Middlewares/STemWin/Lib/STemWin_CM7_wc32.a(MULTIEDIT.o)
WM_SendMessage                                    Middlewares/STemWin/Lib/STemWin_CM7_wc32.a(WM.o)
                                                  Middlewares/STemWin/Lib/STemWin_CM7_wc32.a(WIDGET.o)
                                                  Middlewares/STemWin/Lib/STemWin_CM7_wc32.a(DIALOG.o)
                                                  Middlewares/STemWin/Lib/STemWin_CM7_wc32.a(WM_Timer.o)
                                                  Middlewares/STemWin/Lib/STemWin_CM7_wc32.a(WM_Lib.o)
WM_SendMessageNoPara                              Middlewares/STemWin/Lib/STemWin_CM7_wc32.a(WM_Lib.o)
                                                  Middlewares/STemWin/Lib/STemWin_CM7_wc32.a(SCROLLBAR.o)
                                                  Middlewares/STemWin/Lib/STemWin_CM7_wc32.a(DIALOG.o)
                                                  Middlewares/STemWin/Lib/STemWin_CM7_wc32.a(WM.o)
WM_SendToParent                                   Middlewares/STemWin/Lib/STemWin_CM7_wc32.a(WM_Lib.o)
                                                  Middlewares/STemWin/Lib/STemWin_CM7_wc32.a(WM.o)
WM_SetAnchor                                      Middlewares/STemWin/Lib/STemWin_CM7_wc32.a(WM_Lib.o)
WM_SetCallback                                    Middlewares/STemWin/Lib/STemWin_CM7_wc32.a(WM_Lib.o)
WM_SetCapture                                     Middlewares/STemWin/Lib/STemWin_CM7_wc32.a(WM_SetCapture.o)
                                                  Middlewares/STemWin/Lib/STemWin_CM7_wc32.a(WM_SetCaptureMove.o)
                                                  Middlewares/STemWin/Lib/STemWin_CM7_wc32.a(SCROLLBAR.o)
WM_SetCaptureMove                                 Middlewares/STemWin/Lib/STemWin_CM7_wc32.a(WM_SetCaptureMove.o)
                                                  Middlewares/STemWin/Lib/STemWin_CM7_wc32.a(FRAMEWIN.o)
WM_SetCreateFlags                                 Middlewares/STemWin/Lib/STemWin_CM7_wc32.a(WM_Lib.o)
WM_SetDefault                                     Middlewares/STemWin/Lib/STemWin_CM7_wc32.a(WM.o)
                                                  Middlewares/STemWin/Lib/STemWin_CM7_wc32.a(GUIDEV_StaticDevices.o)
WM_SetDesktopColor                                Middlewares/STemWin/Lib/STemWin_CM7_wc32.a(WM_Lib.o)
WM_SetDesktopColorEx                              Middlewares/STemWin/Lib/STemWin_CM7_wc32.a(WM_Lib.o)
WM_SetDesktopColors                               Middlewares/STemWin/Lib/STemWin_CM7_wc32.a(WM_Lib.o)
WM_SetEnableState                                 Middlewares/STemWin/Lib/STemWin_CM7_wc32.a(WM_Lib.o)
WM_SetFocus                                       Middlewares/STemWin/Lib/STemWin_CM7_wc32.a(WM_Lib.o)
                                                  Middlewares/STemWin/Lib/STemWin_CM7_wc32.a(WM_SetFocusOnPrevChild.o)
                                                  Middlewares/STemWin/Lib/STemWin_CM7_wc32.a(WM_SetFocusOnNextChild.o)
                                                  Middlewares/STemWin/Lib/STemWin_CM7_wc32.a(WIDGET.o)
                                                  Middlewares/STemWin/Lib/STemWin_CM7_wc32.a(MULTIEDIT.o)
                                                  Middlewares/STemWin/Lib/STemWin_CM7_wc32.a(FRAMEWIN.o)
WM_SetFocusOnNextChild                            Middlewares/STemWin/Lib/STemWin_CM7_wc32.a(WM_SetFocusOnNextChild.o)
                                                  Middlewares/STemWin/Lib/STemWin_CM7_wc32.a(MULTIEDIT.o)
                                                  Middlewares/STemWin/Lib/STemWin_CM7_wc32.a(FRAMEWIN.o)
                                                  Middlewares/STemWin/Lib/STemWin_CM7_wc32.a(DIALOG.o)
WM_SetFocusOnPrevChild                            Middlewares/STemWin/Lib/STemWin_CM7_wc32.a(WM_SetFocusOnPrevChild.o)
                                                  Middlewares/STemWin/Lib/STemWin_CM7_wc32.a(FRAMEWIN.o)
WM_SetHasTrans                                    Middlewares/STemWin/Lib/STemWin_CM7_wc32.a(WM_SetTrans.o)
                                                  Middlewares/STemWin/Lib/STemWin_CM7_wc32.a(TEXT.o)
                                                  Middlewares/STemWin/Lib/STemWin_CM7_wc32.a(SCROLLBAR_Skin.o)
                                                  Middlewares/STemWin/Lib/STemWin_CM7_wc32.a(FRAMEWIN_SkinFlex.o)
                                                  Middlewares/STemWin/Lib/STemWin_CM7_wc32.a(BUTTON_SkinFlex.o)
WM_SetId                                          Middlewares/STemWin/Lib/STemWin_CM7_wc32.a(WM_Lib.o)
WM_SetScrollState                                 Middlewares/STemWin/Lib/STemWin_CM7_wc32.a(WM_Lib.o)
                                                  Middlewares/STemWin/Lib/STemWin_CM7_wc32.a(WIDGET.o)
WM_SetScrollValue                                 Middlewares/STemWin/Lib/STemWin_CM7_wc32.a(WM_Lib.o)
WM_SetScrollbarH                                  Middlewares/STemWin/Lib/STemWin_CM7_wc32.a(WM_SetScrollbar.o)
                                                  Middlewares/STemWin/Lib/STemWin_CM7_wc32.a(MULTIEDIT.o)
WM_SetScrollbarV                                  Middlewares/STemWin/Lib/STemWin_CM7_wc32.a(WM_SetScrollbar.o)
                                                  Middlewares/STemWin/Lib/STemWin_CM7_wc32.a(MULTIEDIT.o)
WM_SetSize                                        Middlewares/STemWin/Lib/STemWin_CM7_wc32.a(WM_Lib.o)
                                                  Middlewares/STemWin/Lib/STemWin_CM7_wc32.a(GUIDEV_StaticDevices.o)
                                                  Middlewares/STemWin/Lib/STemWin_CM7_wc32.a(FRAMEWIN.o)
WM_SetStayOnTop                                   Middlewares/STemWin/Lib/STemWin_CM7_wc32.a(WM_Lib.o)
WM_SetUserClipRect                                Middlewares/STemWin/Lib/STemWin_CM7_wc32.a(WM_Lib.o)
                                                  Middlewares/STemWin/Lib/STemWin_CM7_wc32.a(WIDGET.o)
                                                  Middlewares/STemWin/Lib/STemWin_CM7_wc32.a(MULTIEDIT.o)
                                                  Middlewares/STemWin/Lib/STemWin_CM7_wc32.a(GUI_DispStringInRectEx.o)
                                                  Middlewares/STemWin/Lib/STemWin_CM7_wc32.a(GUI_DispString.o)
                                                  Middlewares/STemWin/Lib/STemWin_CM7_wc32.a(GUI_Common.o)
WM_SetUserData                                    Middlewares/STemWin/Lib/STemWin_CM7_wc32.a(WM_UserData.o)
WM_SetWindowPos                                   Middlewares/STemWin/Lib/STemWin_CM7_wc32.a(WM_Lib.o)
WM_SetXSize                                       Middlewares/STemWin/Lib/STemWin_CM7_wc32.a(WM_Lib.o)
                                                  Middlewares/STemWin/Lib/STemWin_CM7_wc32.a(WIDGET.o)
WM_SetYSize                                       Middlewares/STemWin/Lib/STemWin_CM7_wc32.a(WM_Lib.o)
                                                  Middlewares/STemWin/Lib/STemWin_CM7_wc32.a(WIDGET.o)
WM_SetpfPollPID                                   Middlewares/STemWin/Lib/STemWin_CM7_wc32.a(WM_Lib.o)
WM_ShowWindow                                     Middlewares/STemWin/Lib/STemWin_CM7_wc32.a(WM_Lib.o)
                                                  Middlewares/STemWin/Lib/STemWin_CM7_wc32.a(FRAMEWIN.o)
                                                  Middlewares/STemWin/Lib/STemWin_CM7_wc32.a(DIALOG.o)
WM_Update                                         Middlewares/STemWin/Lib/STemWin_CM7_wc32.a(WM_Lib.o)
WM_ValidateWindow                                 Middlewares/STemWin/Lib/STemWin_CM7_wc32.a(WM_Lib.o)
                                                  Middlewares/STemWin/Lib/STemWin_CM7_wc32.a(WM_SetTrans.o)
WM__ActivateClipRect                              Middlewares/STemWin/Lib/STemWin_CM7_wc32.a(WM.o)
                                                  Middlewares/STemWin/Lib/STemWin_CM7_wc32.a(WM_Lib.o)
WM__AddCriticalHandle                             Middlewares/STemWin/Lib/STemWin_CM7_wc32.a(WM__Private.o)
                                                  Middlewares/STemWin/Lib/STemWin_CM7_wc32.a(WM_Touch.o)
                                                  Middlewares/STemWin/Lib/STemWin_CM7_wc32.a(WM.o)
WM__CaptureReleaseAuto                            Middlewares/STemWin/Lib/STemWin_CM7_wc32.a(WM.o)
                                                  Middlewares/STemWin/Lib/STemWin_CM7_wc32.a(WM_SetCapture.o)
                                                  Middlewares/STemWin/Lib/STemWin_CM7_wc32.a(WM_Touch.o)
WM__Client2Screen                                 Middlewares/STemWin/Lib/STemWin_CM7_wc32.a(WM.o)
WM__ClipAtParentBorders                           Middlewares/STemWin/Lib/STemWin_CM7_wc32.a(WM.o)
                                                  Middlewares/STemWin/Lib/STemWin_CM7_wc32.a(GUIDEV_StaticDevices.o)
WM__CreateFlags                                   Middlewares/STemWin/Lib/STemWin_CM7_wc32.a(WM.o)
                                                  Middlewares/STemWin/Lib/STemWin_CM7_wc32.a(WM_Lib.o)
WM__DeleteAssocTimer                              Middlewares/STemWin/Lib/STemWin_CM7_wc32.a(WM_Timer.o)
                                                  Middlewares/STemWin/Lib/STemWin_CM7_wc32.a(WM.o)
WM__DeleteSecure                                  Middlewares/STemWin/Lib/STemWin_CM7_wc32.a(WM.o)
                                                  Middlewares/STemWin/Lib/STemWin_CM7_wc32.a(WM_SetScrollbar.o)
                                                  Middlewares/STemWin/Lib/STemWin_CM7_wc32.a(DIALOG.o)
WM__DetachWindow                                  Middlewares/STemWin/Lib/STemWin_CM7_wc32.a(WM.o)
                                                  Middlewares/STemWin/Lib/STemWin_CM7_wc32.a(WM_Lib.o)
WM__FirstWin                                      Middlewares/STemWin/Lib/STemWin_CM7_wc32.a(WM.o)
                                                  Middlewares/STemWin/Lib/STemWin_CM7_wc32.a(WM_Lib.o)
WM__ForEachDesc                                   Middlewares/STemWin/Lib/STemWin_CM7_wc32.a(WM__Private.o)
                                                  Middlewares/STemWin/Lib/STemWin_CM7_wc32.a(WM_Lib.o)
WM__GetClientRectEx                               Middlewares/STemWin/Lib/STemWin_CM7_wc32.a(WM__Private.o)
                                                  Middlewares/STemWin/Lib/STemWin_CM7_wc32.a(WM_Lib.o)
                                                  Middlewares/STemWin/Lib/STemWin_CM7_wc32.a(WM.o)
WM__GetClientRectWin                              Middlewares/STemWin/Lib/STemWin_CM7_wc32.a(WM.o)
                                                  Middlewares/STemWin/Lib/STemWin_CM7_wc32.a(WIDGET.o)
                                                  Middlewares/STemWin/Lib/STemWin_CM7_wc32.a(WM__Private.o)
WM__GetFirstSibling                               Middlewares/STemWin/Lib/STemWin_CM7_wc32.a(WM__Private.o)
WM__GetFocusedChild                               Middlewares/STemWin/Lib/STemWin_CM7_wc32.a(WM__Private.o)
                                                  Middlewares/STemWin/Lib/STemWin_CM7_wc32.a(WM_SetFocusOnPrevChild.o)
                                                  Middlewares/STemWin/Lib/STemWin_CM7_wc32.a(WM_SetFocusOnNextChild.o)
WM__GetLastSibling                                Middlewares/STemWin/Lib/STemWin_CM7_wc32.a(WM__Private.o)
                                                  Middlewares/STemWin/Lib/STemWin_CM7_wc32.a(WM_SetFocusOnPrevChild.o)
WM__GetNextIVR                                    Middlewares/STemWin/Lib/STemWin_CM7_wc32.a(WM.o)
                                                  Middlewares/STemWin/Lib/STemWin_CM7_wc32.a(GUI_Circ.o)
                                                  Middlewares/STemWin/Lib/STemWin_CM7_wc32.a(GUI_Arc.o)
                                                  Middlewares/STemWin/Lib/STemWin_CM7_wc32.a(GUIDEV_Write.o)
                                                  Middlewares/STemWin/Lib/STemWin_CM7_wc32.a(GUIDEV.o)
                                                  Middlewares/STemWin/Lib/STemWin_CM7_wc32.a(GUI__DrawTwinArc.o)
                                                  Middlewares/STemWin/Lib/STemWin_CM7_wc32.a(GUI_FillPolygon.o)
                                                  Middlewares/STemWin/Lib/STemWin_CM7_wc32.a(GUI_DrawLine.o)
                                                  Middlewares/STemWin/Lib/STemWin_CM7_wc32.a(GUI_DrawLib.o)
                                                  Middlewares/STemWin/Lib/STemWin_CM7_wc32.a(GUI_DrawGradient.o)
                                                  Middlewares/STemWin/Lib/STemWin_CM7_wc32.a(GUI_DrawBitmap.o)
                                                  Middlewares/STemWin/Lib/STemWin_CM7_wc32.a(GUI_DispChar.o)
                                                  Middlewares/STemWin/Lib/STemWin_CM7_wc32.a(GUI_CharLine.o)
                                                  Middlewares/STemWin/Lib/STemWin_CM7_wc32.a(GUI_2DLib.o)
                                                  Middlewares/STemWin/Lib/STemWin_CM7_wc32.a(FRAMEWIN_Skin.o)
                                                  Middlewares/STemWin/Lib/STemWin_CM7_wc32.a(GUI_Core.o)
WM__GetOrgX_AA                                    Middlewares/STemWin/Lib/STemWin_CM7_wc32.a(WM__Private.o)
WM__GetOrgY_AA                                    Middlewares/STemWin/Lib/STemWin_CM7_wc32.a(WM__Private.o)
WM__GetPrevSibling                                Middlewares/STemWin/Lib/STemWin_CM7_wc32.a(WM__Private.o)
                                                  Middlewares/STemWin/Lib/STemWin_CM7_wc32.a(WM_SetFocusOnPrevChild.o)
                                                  Middlewares/STemWin/Lib/STemWin_CM7_wc32.a(WM_Lib.o)
WM__GetTopLevelLayer                              Middlewares/STemWin/Lib/STemWin_CM7_wc32.a(WM.o)
                                                  Middlewares/STemWin/Lib/STemWin_CM7_wc32.a(WM_SetFocusOnNextChild.o)
WM__GetUserDataEx                                 Middlewares/STemWin/Lib/STemWin_CM7_wc32.a(WM_UserData.o)
                                                  Middlewares/STemWin/Lib/STemWin_CM7_wc32.a(TEXT.o)
                                                  Middlewares/STemWin/Lib/STemWin_CM7_wc32.a(SCROLLBAR.o)
                                                  Middlewares/STemWin/Lib/STemWin_CM7_wc32.a(MULTIEDIT.o)
                                                  Middlewares/STemWin/Lib/STemWin_CM7_wc32.a(FRAMEWIN.o)
                                                  Middlewares/STemWin/Lib/STemWin_CM7_wc32.a(BUTTON.o)
WM__GetWindowSizeX                                Middlewares/STemWin/Lib/STemWin_CM7_wc32.a(WM_GetWindowSize.o)
                                                  Middlewares/STemWin/Lib/STemWin_CM7_wc32.a(FRAMEWIN.o)
WM__GetWindowSizeY                                Middlewares/STemWin/Lib/STemWin_CM7_wc32.a(WM_GetWindowSize.o)
                                                  Middlewares/STemWin/Lib/STemWin_CM7_wc32.a(FRAMEWIN.o)
WM__InitIVRSearch                                 Middlewares/STemWin/Lib/STemWin_CM7_wc32.a(WM.o)
                                                  Middlewares/STemWin/Lib/STemWin_CM7_wc32.a(GUI_Circ.o)
                                                  Middlewares/STemWin/Lib/STemWin_CM7_wc32.a(GUI_Arc.o)
                                                  Middlewares/STemWin/Lib/STemWin_CM7_wc32.a(GUIDEV_Write.o)
                                                  Middlewares/STemWin/Lib/STemWin_CM7_wc32.a(GUIDEV.o)
                                                  Middlewares/STemWin/Lib/STemWin_CM7_wc32.a(GUI__DrawTwinArc.o)
                                                  Middlewares/STemWin/Lib/STemWin_CM7_wc32.a(GUI_FillPolygon.o)
                                                  Middlewares/STemWin/Lib/STemWin_CM7_wc32.a(GUI_DrawLine.o)
                                                  Middlewares/STemWin/Lib/STemWin_CM7_wc32.a(GUI_DrawLib.o)
                                                  Middlewares/STemWin/Lib/STemWin_CM7_wc32.a(GUI_DrawGradient.o)
                                                  Middlewares/STemWin/Lib/STemWin_CM7_wc32.a(GUI_DrawBitmap.o)
                                                  Middlewares/STemWin/Lib/STemWin_CM7_wc32.a(GUI_DispChar.o)
                                                  Middlewares/STemWin/Lib/STemWin_CM7_wc32.a(GUI_CharLine.o)
                                                  Middlewares/STemWin/Lib/STemWin_CM7_wc32.a(GUI_2DLib.o)
                                                  Middlewares/STemWin/Lib/STemWin_CM7_wc32.a(FRAMEWIN_Skin.o)
                                                  Middlewares/STemWin/Lib/STemWin_CM7_wc32.a(GUI_Core.o)
WM__InsertWindowIntoList                          Middlewares/STemWin/Lib/STemWin_CM7_wc32.a(WM.o)
                                                  Middlewares/STemWin/Lib/STemWin_CM7_wc32.a(WM_BringToTop.o)
                                                  Middlewares/STemWin/Lib/STemWin_CM7_wc32.a(WM_Lib.o)
WM__InvalidLayerMask                              Middlewares/STemWin/Lib/STemWin_CM7_wc32.a(WM.o)
WM__Invalidate1Abs                                Middlewares/STemWin/Lib/STemWin_CM7_wc32.a(WM.o)
                                                  Middlewares/STemWin/Lib/STemWin_CM7_wc32.a(WM_Lib.o)
WM__InvalidateDrawAndDescs                        Middlewares/STemWin/Lib/STemWin_CM7_wc32.a(WM.o)
                                                  Middlewares/STemWin/Lib/STemWin_CM7_wc32.a(WM_Lib.o)
WM__InvalidateParent                              Middlewares/STemWin/Lib/STemWin_CM7_wc32.a(WM.o)
                                                  Middlewares/STemWin/Lib/STemWin_CM7_wc32.a(WM_Move.o)
WM__InvalidateRect                                Middlewares/STemWin/Lib/STemWin_CM7_wc32.a(WM.o)
WM__InvalidateRectEx                              Middlewares/STemWin/Lib/STemWin_CM7_wc32.a(WM.o)
                                                  Middlewares/STemWin/Lib/STemWin_CM7_wc32.a(WM_Hide.o)
                                                  Middlewares/STemWin/Lib/STemWin_CM7_wc32.a(WM_Lib.o)
WM__IsAncestor                                    Middlewares/STemWin/Lib/STemWin_CM7_wc32.a(WM__Private.o)
                                                  Middlewares/STemWin/Lib/STemWin_CM7_wc32.a(FRAMEWIN.o)
                                                  Middlewares/STemWin/Lib/STemWin_CM7_wc32.a(WM_Touch.o)
WM__IsAncestorOrSelf                              Middlewares/STemWin/Lib/STemWin_CM7_wc32.a(WM__Private.o)
                                                  Middlewares/STemWin/Lib/STemWin_CM7_wc32.a(FRAMEWIN.o)
WM__IsChild                                       Middlewares/STemWin/Lib/STemWin_CM7_wc32.a(WM__Private.o)
WM__IsEnabled                                     Middlewares/STemWin/Lib/STemWin_CM7_wc32.a(WM__Private.o)
                                                  Middlewares/STemWin/Lib/STemWin_CM7_wc32.a(MULTIEDIT.o)
                                                  Middlewares/STemWin/Lib/STemWin_CM7_wc32.a(BUTTON_SkinFlex.o)
                                                  Middlewares/STemWin/Lib/STemWin_CM7_wc32.a(WM_Touch.o)
                                                  Middlewares/STemWin/Lib/STemWin_CM7_wc32.a(WM_Lib.o)
WM__IsInModalArea                                 Middlewares/STemWin/Lib/STemWin_CM7_wc32.a(WM_Touch.o)
WM__IsInWindow                                    Middlewares/STemWin/Lib/STemWin_CM7_wc32.a(WM_Screen2Win.o)
WM__IsWindow                                      Middlewares/STemWin/Lib/STemWin_CM7_wc32.a(WM.o)
                                                  Middlewares/STemWin/Lib/STemWin_CM7_wc32.a(WM_Lib.o)
WM__ModalLayer                                    Middlewares/STemWin/Lib/STemWin_CM7_wc32.a(WM_Touch.o)
WM__MoveTo                                        Middlewares/STemWin/Lib/STemWin_CM7_wc32.a(WM_Move.o)
WM__MoveWindow                                    Middlewares/STemWin/Lib/STemWin_CM7_wc32.a(WM_Move.o)
                                                  Middlewares/STemWin/Lib/STemWin_CM7_wc32.a(WM_Lib.o)
WM__NotifyVisChanged                              Middlewares/STemWin/Lib/STemWin_CM7_wc32.a(WM__Private.o)
WM__NumInvalidWindows                             Middlewares/STemWin/Lib/STemWin_CM7_wc32.a(WM.o)
                                                  Middlewares/STemWin/Lib/STemWin_CM7_wc32.a(WM_Lib.o)
WM__NumWindows                                    Middlewares/STemWin/Lib/STemWin_CM7_wc32.a(WM.o)
                                                  Middlewares/STemWin/Lib/STemWin_CM7_wc32.a(WM_Lib.o)
WM__Paint                                         Middlewares/STemWin/Lib/STemWin_CM7_wc32.a(WM.o)
                                                  Middlewares/STemWin/Lib/STemWin_CM7_wc32.a(WM_Lib.o)
WM__Paint1                                        Middlewares/STemWin/Lib/STemWin_CM7_wc32.a(WM.o)
                                                  Middlewares/STemWin/Lib/STemWin_CM7_wc32.a(GUIDEV_StaticDevices.o)
WM__PaintCallbackCnt                              Middlewares/STemWin/Lib/STemWin_CM7_wc32.a(WM.o)
WM__RectIsNZ                                      Middlewares/STemWin/Lib/STemWin_CM7_wc32.a(WM.o)
WM__RemoveCriticalHandle                          Middlewares/STemWin/Lib/STemWin_CM7_wc32.a(WM__Private.o)
                                                  Middlewares/STemWin/Lib/STemWin_CM7_wc32.a(WM_Touch.o)
WM__RemoveWindowFromList                          Middlewares/STemWin/Lib/STemWin_CM7_wc32.a(WM.o)
                                                  Middlewares/STemWin/Lib/STemWin_CM7_wc32.a(WM_BringToTop.o)
WM__Screen2Client                                 Middlewares/STemWin/Lib/STemWin_CM7_wc32.a(WM__Private.o)
                                                  Middlewares/STemWin/Lib/STemWin_CM7_wc32.a(WIDGET.o)
WM__SelectTopLevelLayer                           Middlewares/STemWin/Lib/STemWin_CM7_wc32.a(WM.o)
WM__SendMessage                                   Middlewares/STemWin/Lib/STemWin_CM7_wc32.a(WM__Private.o)
                                                  Middlewares/STemWin/Lib/STemWin_CM7_wc32.a(WM_SetCapture.o)
                                                  Middlewares/STemWin/Lib/STemWin_CM7_wc32.a(FRAMEWIN.o)
                                                  Middlewares/STemWin/Lib/STemWin_CM7_wc32.a(WM_Move.o)
                                                  Middlewares/STemWin/Lib/STemWin_CM7_wc32.a(WM_Lib.o)
                                                  Middlewares/STemWin/Lib/STemWin_CM7_wc32.a(WM.o)
WM__SendMessageIfEnabled                          Middlewares/STemWin/Lib/STemWin_CM7_wc32.a(WM__Private.o)
                                                  Middlewares/STemWin/Lib/STemWin_CM7_wc32.a(WM_Touch.o)
WM__SendMessageNoPara                             Middlewares/STemWin/Lib/STemWin_CM7_wc32.a(WM__Private.o)
                                                  Middlewares/STemWin/Lib/STemWin_CM7_wc32.a(WM_UserData.o)
                                                  Middlewares/STemWin/Lib/STemWin_CM7_wc32.a(GUIDEV_Banding.o)
                                                  Middlewares/STemWin/Lib/STemWin_CM7_wc32.a(WM_Lib.o)
WM__SendMsgNoData                                 Middlewares/STemWin/Lib/STemWin_CM7_wc32.a(WM.o)
                                                  Middlewares/STemWin/Lib/STemWin_CM7_wc32.a(WM__Private.o)
                                                  Middlewares/STemWin/Lib/STemWin_CM7_wc32.a(WM_Lib.o)
WM__SendPIDMessage                                Middlewares/STemWin/Lib/STemWin_CM7_wc32.a(WM_Touch.o)
WM__SendTouchMessage                              Middlewares/STemWin/Lib/STemWin_CM7_wc32.a(WM_Touch.o)
WM__SetLastTouched                                Middlewares/STemWin/Lib/STemWin_CM7_wc32.a(WM_Touch.o)
WM__SetMotionCallback                             Middlewares/STemWin/Lib/STemWin_CM7_wc32.a(WM_Touch.o)
WM__SetScrollbarH                                 Middlewares/STemWin/Lib/STemWin_CM7_wc32.a(WM_SetScrollbar.o)
WM__SetScrollbarV                                 Middlewares/STemWin/Lib/STemWin_CM7_wc32.a(WM_SetScrollbar.o)
WM__SetToolTipCallback                            Middlewares/STemWin/Lib/STemWin_CM7_wc32.a(WM_Touch.o)
WM__SetUserDataEx                                 Middlewares/STemWin/Lib/STemWin_CM7_wc32.a(WM_UserData.o)
                                                  Middlewares/STemWin/Lib/STemWin_CM7_wc32.a(TEXT.o)
                                                  Middlewares/STemWin/Lib/STemWin_CM7_wc32.a(SCROLLBAR.o)
                                                  Middlewares/STemWin/Lib/STemWin_CM7_wc32.a(MULTIEDIT.o)
                                                  Middlewares/STemWin/Lib/STemWin_CM7_wc32.a(FRAMEWIN.o)
                                                  Middlewares/STemWin/Lib/STemWin_CM7_wc32.a(BUTTON.o)
WM__TouchedLayer                                  Middlewares/STemWin/Lib/STemWin_CM7_wc32.a(WM.o)
                                                  Middlewares/STemWin/Lib/STemWin_CM7_wc32.a(WM_SetFocusOnNextChild.o)
                                                  Middlewares/STemWin/Lib/STemWin_CM7_wc32.a(WM_SetCapture.o)
                                                  Middlewares/STemWin/Lib/STemWin_CM7_wc32.a(WM_Screen2Win.o)
                                                  Middlewares/STemWin/Lib/STemWin_CM7_wc32.a(WM__Private.o)
                                                  Middlewares/STemWin/Lib/STemWin_CM7_wc32.a(WM_Touch.o)
                                                  Middlewares/STemWin/Lib/STemWin_CM7_wc32.a(WM_Lib.o)
                                                  Middlewares/STemWin/Lib/STemWin_CM7_wc32.a(GUI_SelectLayer.o)
WM__TransWindowCnt                                Middlewares/STemWin/Lib/STemWin_CM7_wc32.a(WM.o)
                                                  Middlewares/STemWin/Lib/STemWin_CM7_wc32.a(WM_SetTrans.o)
WM__UpdateChildPositions                          Middlewares/STemWin/Lib/STemWin_CM7_wc32.a(WM__Private.o)
                                                  Middlewares/STemWin/Lib/STemWin_CM7_wc32.a(WIDGET.o)
                                                  Middlewares/STemWin/Lib/STemWin_CM7_wc32.a(WM_Lib.o)
WM__aBkColor                                      Middlewares/STemWin/Lib/STemWin_CM7_wc32.a(WM.o)
                                                  Middlewares/STemWin/Lib/STemWin_CM7_wc32.a(WM_Lib.o)
WM__aCHWinLast                                    Middlewares/STemWin/Lib/STemWin_CM7_wc32.a(WM_Touch.o)
                                                  Middlewares/STemWin/Lib/STemWin_CM7_wc32.a(WM.o)
WM__aCHWinModal                                   Middlewares/STemWin/Lib/STemWin_CM7_wc32.a(WM_Touch.o)
                                                  Middlewares/STemWin/Lib/STemWin_CM7_wc32.a(WM.o)
WM__aCHWinMouseOver                               Middlewares/STemWin/Lib/STemWin_CM7_wc32.a(WM_Touch.o)
                                                  Middlewares/STemWin/Lib/STemWin_CM7_wc32.a(WM.o)
WM__ahCapture                                     Middlewares/STemWin/Lib/STemWin_CM7_wc32.a(WM.o)
                                                  Middlewares/STemWin/Lib/STemWin_CM7_wc32.a(WM_SetCapture.o)
                                                  Middlewares/STemWin/Lib/STemWin_CM7_wc32.a(WM_Touch.o)
                                                  Middlewares/STemWin/Lib/STemWin_CM7_wc32.a(WM_Lib.o)
WM__ahDesktopWin                                  Middlewares/STemWin/Lib/STemWin_CM7_wc32.a(WM.o)
                                                  Middlewares/STemWin/Lib/STemWin_CM7_wc32.a(WM_Touch.o)
                                                  Middlewares/STemWin/Lib/STemWin_CM7_wc32.a(WM_Lib.o)
WM__ahWinFocus                                    Middlewares/STemWin/Lib/STemWin_CM7_wc32.a(WM.o)
                                                  Middlewares/STemWin/Lib/STemWin_CM7_wc32.a(WM__Private.o)
                                                  Middlewares/STemWin/Lib/STemWin_CM7_wc32.a(WM_Lib.o)
WM__hATransWindow                                 Middlewares/STemWin/Lib/STemWin_CM7_wc32.a(WM.o)
                                                  Middlewares/STemWin/Lib/STemWin_CM7_wc32.a(WM_Lib.o)
WM__hCreateStatic                                 Middlewares/STemWin/Lib/STemWin_CM7_wc32.a(WM.o)
                                                  Middlewares/STemWin/Lib/STemWin_CM7_wc32.a(GUIDEV_StaticDevices.o)
WM__pExecGestures                                 Middlewares/STemWin/Lib/STemWin_CM7_wc32.a(WM.o)
WM__pFirstCriticalHandle                          Middlewares/STemWin/Lib/STemWin_CM7_wc32.a(WM.o)
                                                  Middlewares/STemWin/Lib/STemWin_CM7_wc32.a(WM__Private.o)
WM_pfHandlePID                                    Middlewares/STemWin/Lib/STemWin_CM7_wc32.a(GUI_Core.o)
                                                  Middlewares/STemWin/Lib/STemWin_CM7_wc32.a(GUI_PID.o)
                                                  Middlewares/STemWin/Lib/STemWin_CM7_wc32.a(WM.o)
WM_pfPollPID                                      Middlewares/STemWin/Lib/STemWin_CM7_wc32.a(WM.o)
                                                  Middlewares/STemWin/Lib/STemWin_CM7_wc32.a(WM_Lib.o)
WWDG_IRQHandler                                   build/startup_stm32f746xx.o
__adddf3                                          c:/vsarm/armcc/bin/../lib/gcc/arm-none-eabi/7.3.1/thumb/v7e-m/fpv4-sp/hard\libgcc.a(_arm_addsubdf3.o)
__aeabi_cdcmpeq                                   c:/vsarm/armcc/bin/../lib/gcc/arm-none-eabi/7.3.1/thumb/v7e-m/fpv4-sp/hard\libgcc.a(_arm_cmpdf2.o)
__aeabi_cdcmple                                   c:/vsarm/armcc/bin/../lib/gcc/arm-none-eabi/7.3.1/thumb/v7e-m/fpv4-sp/hard\libgcc.a(_arm_cmpdf2.o)
__aeabi_cdrcmple                                  c:/vsarm/armcc/bin/../lib/gcc/arm-none-eabi/7.3.1/thumb/v7e-m/fpv4-sp/hard\libgcc.a(_arm_cmpdf2.o)
__aeabi_d2iz                                      c:/vsarm/armcc/bin/../lib/gcc/arm-none-eabi/7.3.1/thumb/v7e-m/fpv4-sp/hard\libgcc.a(_arm_fixdfsi.o)
                                                  Middlewares/STemWin/Lib/STemWin_CM7_wc32.a(GUI_Arc.o)
__aeabi_dadd                                      c:/vsarm/armcc/bin/../lib/gcc/arm-none-eabi/7.3.1/thumb/v7e-m/fpv4-sp/hard\libgcc.a(_arm_addsubdf3.o)
                                                  c:/vsarm/armcc/bin/../lib/gcc/arm-none-eabi/7.3.1/../../../../arm-none-eabi/lib/thumb/v7e-m/fpv4-sp/hard\libm.a(lib_a-s_floor.o)
                                                  c:/vsarm/armcc/bin/../lib/gcc/arm-none-eabi/7.3.1/../../../../arm-none-eabi/lib/thumb/v7e-m/fpv4-sp/hard\libm.a(lib_a-s_ceil.o)
__aeabi_dcmpeq                                    c:/vsarm/armcc/bin/../lib/gcc/arm-none-eabi/7.3.1/thumb/v7e-m/fpv4-sp/hard\libgcc.a(_arm_cmpdf2.o)
__aeabi_dcmpge                                    c:/vsarm/armcc/bin/../lib/gcc/arm-none-eabi/7.3.1/thumb/v7e-m/fpv4-sp/hard\libgcc.a(_arm_cmpdf2.o)
__aeabi_dcmpgt                                    c:/vsarm/armcc/bin/../lib/gcc/arm-none-eabi/7.3.1/thumb/v7e-m/fpv4-sp/hard\libgcc.a(_arm_cmpdf2.o)
                                                  c:/vsarm/armcc/bin/../lib/gcc/arm-none-eabi/7.3.1/../../../../arm-none-eabi/lib/thumb/v7e-m/fpv4-sp/hard\libm.a(lib_a-s_floor.o)
                                                  c:/vsarm/armcc/bin/../lib/gcc/arm-none-eabi/7.3.1/../../../../arm-none-eabi/lib/thumb/v7e-m/fpv4-sp/hard\libm.a(lib_a-s_ceil.o)
__aeabi_dcmple                                    c:/vsarm/armcc/bin/../lib/gcc/arm-none-eabi/7.3.1/thumb/v7e-m/fpv4-sp/hard\libgcc.a(_arm_cmpdf2.o)
__aeabi_dcmplt                                    c:/vsarm/armcc/bin/../lib/gcc/arm-none-eabi/7.3.1/thumb/v7e-m/fpv4-sp/hard\libgcc.a(_arm_cmpdf2.o)
__aeabi_drsub                                     c:/vsarm/armcc/bin/../lib/gcc/arm-none-eabi/7.3.1/thumb/v7e-m/fpv4-sp/hard\libgcc.a(_arm_addsubdf3.o)
__aeabi_dsub                                      c:/vsarm/armcc/bin/../lib/gcc/arm-none-eabi/7.3.1/thumb/v7e-m/fpv4-sp/hard\libgcc.a(_arm_addsubdf3.o)
__aeabi_f2d                                       c:/vsarm/armcc/bin/../lib/gcc/arm-none-eabi/7.3.1/thumb/v7e-m/fpv4-sp/hard\libgcc.a(_arm_addsubdf3.o)
                                                  Middlewares/STemWin/Lib/STemWin_CM7_wc32.a(GUI_Arc.o)
__aeabi_i2d                                       c:/vsarm/armcc/bin/../lib/gcc/arm-none-eabi/7.3.1/thumb/v7e-m/fpv4-sp/hard\libgcc.a(_arm_addsubdf3.o)
__aeabi_idiv0                                     c:/vsarm/armcc/bin/../lib/gcc/arm-none-eabi/7.3.1/thumb/v7e-m/fpv4-sp/hard\libgcc.a(_dvmd_tls.o)
__aeabi_l2d                                       c:/vsarm/armcc/bin/../lib/gcc/arm-none-eabi/7.3.1/thumb/v7e-m/fpv4-sp/hard\libgcc.a(_arm_addsubdf3.o)
__aeabi_ldiv0                                     c:/vsarm/armcc/bin/../lib/gcc/arm-none-eabi/7.3.1/thumb/v7e-m/fpv4-sp/hard\libgcc.a(_dvmd_tls.o)
                                                  c:/vsarm/armcc/bin/../lib/gcc/arm-none-eabi/7.3.1/thumb/v7e-m/fpv4-sp/hard\libgcc.a(_aeabi_uldivmod.o)
__aeabi_ui2d                                      c:/vsarm/armcc/bin/../lib/gcc/arm-none-eabi/7.3.1/thumb/v7e-m/fpv4-sp/hard\libgcc.a(_arm_addsubdf3.o)
__aeabi_ul2d                                      c:/vsarm/armcc/bin/../lib/gcc/arm-none-eabi/7.3.1/thumb/v7e-m/fpv4-sp/hard\libgcc.a(_arm_addsubdf3.o)
__aeabi_uldivmod                                  c:/vsarm/armcc/bin/../lib/gcc/arm-none-eabi/7.3.1/thumb/v7e-m/fpv4-sp/hard\libgcc.a(_aeabi_uldivmod.o)
                                                  build/stm32f7xx_hal_rcc.o
__bss_end__                                       c:/vsarm/armcc/bin/../lib/gcc/arm-none-eabi/7.3.1/../../../../arm-none-eabi/lib/thumb/v7e-m/fpv4-sp/hard/crt0.o
__bss_start__                                     c:/vsarm/armcc/bin/../lib/gcc/arm-none-eabi/7.3.1/../../../../arm-none-eabi/lib/thumb/v7e-m/fpv4-sp/hard/crt0.o
__call_exitprocs                                  c:/vsarm/armcc/bin/../lib/gcc/arm-none-eabi/7.3.1/../../../../arm-none-eabi/lib/thumb/v7e-m/fpv4-sp/hard\libc_nano.a(lib_a-exit.o)
__cmpdf2                                          c:/vsarm/armcc/bin/../lib/gcc/arm-none-eabi/7.3.1/thumb/v7e-m/fpv4-sp/hard\libgcc.a(_arm_cmpdf2.o)
__deregister_frame_info                           c:/vsarm/armcc/bin/../lib/gcc/arm-none-eabi/7.3.1/thumb/v7e-m/fpv4-sp/hard/crtbegin.o
__dso_handle                                      c:/vsarm/armcc/bin/../lib/gcc/arm-none-eabi/7.3.1/thumb/v7e-m/fpv4-sp/hard/crtbegin.o
__eqdf2                                           c:/vsarm/armcc/bin/../lib/gcc/arm-none-eabi/7.3.1/thumb/v7e-m/fpv4-sp/hard\libgcc.a(_arm_cmpdf2.o)
__extendsfdf2                                     c:/vsarm/armcc/bin/../lib/gcc/arm-none-eabi/7.3.1/thumb/v7e-m/fpv4-sp/hard\libgcc.a(_arm_addsubdf3.o)
__fixdfsi                                         c:/vsarm/armcc/bin/../lib/gcc/arm-none-eabi/7.3.1/thumb/v7e-m/fpv4-sp/hard\libgcc.a(_arm_fixdfsi.o)
__floatdidf                                       c:/vsarm/armcc/bin/../lib/gcc/arm-none-eabi/7.3.1/thumb/v7e-m/fpv4-sp/hard\libgcc.a(_arm_addsubdf3.o)
__floatsidf                                       c:/vsarm/armcc/bin/../lib/gcc/arm-none-eabi/7.3.1/thumb/v7e-m/fpv4-sp/hard\libgcc.a(_arm_addsubdf3.o)
__floatundidf                                     c:/vsarm/armcc/bin/../lib/gcc/arm-none-eabi/7.3.1/thumb/v7e-m/fpv4-sp/hard\libgcc.a(_arm_addsubdf3.o)
__floatunsidf                                     c:/vsarm/armcc/bin/../lib/gcc/arm-none-eabi/7.3.1/thumb/v7e-m/fpv4-sp/hard\libgcc.a(_arm_addsubdf3.o)
__fp_lock_all                                     c:/vsarm/armcc/bin/../lib/gcc/arm-none-eabi/7.3.1/../../../../arm-none-eabi/lib/thumb/v7e-m/fpv4-sp/hard\libc_nano.a(lib_a-findfp.o)
__fp_unlock_all                                   c:/vsarm/armcc/bin/../lib/gcc/arm-none-eabi/7.3.1/../../../../arm-none-eabi/lib/thumb/v7e-m/fpv4-sp/hard\libc_nano.a(lib_a-findfp.o)
__gedf2                                           c:/vsarm/armcc/bin/../lib/gcc/arm-none-eabi/7.3.1/thumb/v7e-m/fpv4-sp/hard\libgcc.a(_arm_cmpdf2.o)
__gtdf2                                           c:/vsarm/armcc/bin/../lib/gcc/arm-none-eabi/7.3.1/thumb/v7e-m/fpv4-sp/hard\libgcc.a(_arm_cmpdf2.o)
__init_array_end                                  c:/vsarm/armcc/bin/../lib/gcc/arm-none-eabi/7.3.1/../../../../arm-none-eabi/lib/thumb/v7e-m/fpv4-sp/hard\libc_nano.a(lib_a-init.o)
__init_array_start                                c:/vsarm/armcc/bin/../lib/gcc/arm-none-eabi/7.3.1/../../../../arm-none-eabi/lib/thumb/v7e-m/fpv4-sp/hard\libc_nano.a(lib_a-init.o)
__ledf2                                           c:/vsarm/armcc/bin/../lib/gcc/arm-none-eabi/7.3.1/thumb/v7e-m/fpv4-sp/hard\libgcc.a(_arm_cmpdf2.o)
__libc_fini_array                                 c:/vsarm/armcc/bin/../lib/gcc/arm-none-eabi/7.3.1/../../../../arm-none-eabi/lib/thumb/v7e-m/fpv4-sp/hard/crt0.o
__libc_init_array                                 c:/vsarm/armcc/bin/../lib/gcc/arm-none-eabi/7.3.1/../../../../arm-none-eabi/lib/thumb/v7e-m/fpv4-sp/hard\libc_nano.a(lib_a-init.o)
                                                  build/startup_stm32f746xx.o
                                                  c:/vsarm/armcc/bin/../lib/gcc/arm-none-eabi/7.3.1/../../../../arm-none-eabi/lib/thumb/v7e-m/fpv4-sp/hard/crt0.o
__ltdf2                                           c:/vsarm/armcc/bin/../lib/gcc/arm-none-eabi/7.3.1/thumb/v7e-m/fpv4-sp/hard\libgcc.a(_arm_cmpdf2.o)
__malloc_free_list                                c:/vsarm/armcc/bin/../lib/gcc/arm-none-eabi/7.3.1/../../../../arm-none-eabi/lib/thumb/v7e-m/fpv4-sp/hard\libc_nano.a(lib_a-nano-mallocr.o)
                                                  c:/vsarm/armcc/bin/../lib/gcc/arm-none-eabi/7.3.1/../../../../arm-none-eabi/lib/thumb/v7e-m/fpv4-sp/hard\libc_nano.a(lib_a-nano-freer.o)
__malloc_lock                                     c:/vsarm/armcc/bin/../lib/gcc/arm-none-eabi/7.3.1/../../../../arm-none-eabi/lib/thumb/v7e-m/fpv4-sp/hard\libc_nano.a(lib_a-mlock.o)
                                                  c:/vsarm/armcc/bin/../lib/gcc/arm-none-eabi/7.3.1/../../../../arm-none-eabi/lib/thumb/v7e-m/fpv4-sp/hard\libc_nano.a(lib_a-nano-mallocr.o)
                                                  c:/vsarm/armcc/bin/../lib/gcc/arm-none-eabi/7.3.1/../../../../arm-none-eabi/lib/thumb/v7e-m/fpv4-sp/hard\libc_nano.a(lib_a-nano-freer.o)
__malloc_sbrk_start                               c:/vsarm/armcc/bin/../lib/gcc/arm-none-eabi/7.3.1/../../../../arm-none-eabi/lib/thumb/v7e-m/fpv4-sp/hard\libc_nano.a(lib_a-nano-mallocr.o)
__malloc_unlock                                   c:/vsarm/armcc/bin/../lib/gcc/arm-none-eabi/7.3.1/../../../../arm-none-eabi/lib/thumb/v7e-m/fpv4-sp/hard\libc_nano.a(lib_a-mlock.o)
                                                  c:/vsarm/armcc/bin/../lib/gcc/arm-none-eabi/7.3.1/../../../../arm-none-eabi/lib/thumb/v7e-m/fpv4-sp/hard\libc_nano.a(lib_a-nano-mallocr.o)
                                                  c:/vsarm/armcc/bin/../lib/gcc/arm-none-eabi/7.3.1/../../../../arm-none-eabi/lib/thumb/v7e-m/fpv4-sp/hard\libc_nano.a(lib_a-nano-freer.o)
__nedf2                                           c:/vsarm/armcc/bin/../lib/gcc/arm-none-eabi/7.3.1/thumb/v7e-m/fpv4-sp/hard\libgcc.a(_arm_cmpdf2.o)
__preinit_array_end                               c:/vsarm/armcc/bin/../lib/gcc/arm-none-eabi/7.3.1/../../../../arm-none-eabi/lib/thumb/v7e-m/fpv4-sp/hard\libc_nano.a(lib_a-init.o)
__preinit_array_start                             c:/vsarm/armcc/bin/../lib/gcc/arm-none-eabi/7.3.1/../../../../arm-none-eabi/lib/thumb/v7e-m/fpv4-sp/hard\libc_nano.a(lib_a-init.o)
__register_frame_info                             c:/vsarm/armcc/bin/../lib/gcc/arm-none-eabi/7.3.1/thumb/v7e-m/fpv4-sp/hard/crtbegin.o
__sclose                                          c:/vsarm/armcc/bin/../lib/gcc/arm-none-eabi/7.3.1/../../../../arm-none-eabi/lib/thumb/v7e-m/fpv4-sp/hard\libc_nano.a(lib_a-stdio.o)
                                                  c:/vsarm/armcc/bin/../lib/gcc/arm-none-eabi/7.3.1/../../../../arm-none-eabi/lib/thumb/v7e-m/fpv4-sp/hard\libc_nano.a(lib_a-findfp.o)
__seofread                                        c:/vsarm/armcc/bin/../lib/gcc/arm-none-eabi/7.3.1/../../../../arm-none-eabi/lib/thumb/v7e-m/fpv4-sp/hard\libc_nano.a(lib_a-stdio.o)
__sf_fake_stderr                                  c:/vsarm/armcc/bin/../lib/gcc/arm-none-eabi/7.3.1/../../../../arm-none-eabi/lib/thumb/v7e-m/fpv4-sp/hard\libc_nano.a(lib_a-findfp.o)
                                                  c:/vsarm/armcc/bin/../lib/gcc/arm-none-eabi/7.3.1/../../../../arm-none-eabi/lib/thumb/v7e-m/fpv4-sp/hard\libc_nano.a(lib_a-fflush.o)
                                                  c:/vsarm/armcc/bin/../lib/gcc/arm-none-eabi/7.3.1/../../../../arm-none-eabi/lib/thumb/v7e-m/fpv4-sp/hard\libc_nano.a(lib_a-wsetup.o)
                                                  c:/vsarm/armcc/bin/../lib/gcc/arm-none-eabi/7.3.1/../../../../arm-none-eabi/lib/thumb/v7e-m/fpv4-sp/hard\libc_nano.a(lib_a-wbuf.o)
                                                  c:/vsarm/armcc/bin/../lib/gcc/arm-none-eabi/7.3.1/../../../../arm-none-eabi/lib/thumb/v7e-m/fpv4-sp/hard\libc_nano.a(lib_a-puts.o)
                                                  c:/vsarm/armcc/bin/../lib/gcc/arm-none-eabi/7.3.1/../../../../arm-none-eabi/lib/thumb/v7e-m/fpv4-sp/hard\libc_nano.a(lib_a-impure.o)
__sf_fake_stdin                                   c:/vsarm/armcc/bin/../lib/gcc/arm-none-eabi/7.3.1/../../../../arm-none-eabi/lib/thumb/v7e-m/fpv4-sp/hard\libc_nano.a(lib_a-findfp.o)
                                                  c:/vsarm/armcc/bin/../lib/gcc/arm-none-eabi/7.3.1/../../../../arm-none-eabi/lib/thumb/v7e-m/fpv4-sp/hard\libc_nano.a(lib_a-fflush.o)
                                                  c:/vsarm/armcc/bin/../lib/gcc/arm-none-eabi/7.3.1/../../../../arm-none-eabi/lib/thumb/v7e-m/fpv4-sp/hard\libc_nano.a(lib_a-wsetup.o)
                                                  c:/vsarm/armcc/bin/../lib/gcc/arm-none-eabi/7.3.1/../../../../arm-none-eabi/lib/thumb/v7e-m/fpv4-sp/hard\libc_nano.a(lib_a-wbuf.o)
                                                  c:/vsarm/armcc/bin/../lib/gcc/arm-none-eabi/7.3.1/../../../../arm-none-eabi/lib/thumb/v7e-m/fpv4-sp/hard\libc_nano.a(lib_a-puts.o)
                                                  c:/vsarm/armcc/bin/../lib/gcc/arm-none-eabi/7.3.1/../../../../arm-none-eabi/lib/thumb/v7e-m/fpv4-sp/hard\libc_nano.a(lib_a-impure.o)
__sf_fake_stdout                                  c:/vsarm/armcc/bin/../lib/gcc/arm-none-eabi/7.3.1/../../../../arm-none-eabi/lib/thumb/v7e-m/fpv4-sp/hard\libc_nano.a(lib_a-findfp.o)
                                                  c:/vsarm/armcc/bin/../lib/gcc/arm-none-eabi/7.3.1/../../../../arm-none-eabi/lib/thumb/v7e-m/fpv4-sp/hard\libc_nano.a(lib_a-fflush.o)
                                                  c:/vsarm/armcc/bin/../lib/gcc/arm-none-eabi/7.3.1/../../../../arm-none-eabi/lib/thumb/v7e-m/fpv4-sp/hard\libc_nano.a(lib_a-wsetup.o)
                                                  c:/vsarm/armcc/bin/../lib/gcc/arm-none-eabi/7.3.1/../../../../arm-none-eabi/lib/thumb/v7e-m/fpv4-sp/hard\libc_nano.a(lib_a-wbuf.o)
                                                  c:/vsarm/armcc/bin/../lib/gcc/arm-none-eabi/7.3.1/../../../../arm-none-eabi/lib/thumb/v7e-m/fpv4-sp/hard\libc_nano.a(lib_a-puts.o)
                                                  c:/vsarm/armcc/bin/../lib/gcc/arm-none-eabi/7.3.1/../../../../arm-none-eabi/lib/thumb/v7e-m/fpv4-sp/hard\libc_nano.a(lib_a-impure.o)
__sflush_r                                        c:/vsarm/armcc/bin/../lib/gcc/arm-none-eabi/7.3.1/../../../../arm-none-eabi/lib/thumb/v7e-m/fpv4-sp/hard\libc_nano.a(lib_a-fflush.o)
__sfmoreglue                                      c:/vsarm/armcc/bin/../lib/gcc/arm-none-eabi/7.3.1/../../../../arm-none-eabi/lib/thumb/v7e-m/fpv4-sp/hard\libc_nano.a(lib_a-findfp.o)
__sfp                                             c:/vsarm/armcc/bin/../lib/gcc/arm-none-eabi/7.3.1/../../../../arm-none-eabi/lib/thumb/v7e-m/fpv4-sp/hard\libc_nano.a(lib_a-findfp.o)
__sfp_lock_acquire                                c:/vsarm/armcc/bin/../lib/gcc/arm-none-eabi/7.3.1/../../../../arm-none-eabi/lib/thumb/v7e-m/fpv4-sp/hard\libc_nano.a(lib_a-findfp.o)
__sfp_lock_release                                c:/vsarm/armcc/bin/../lib/gcc/arm-none-eabi/7.3.1/../../../../arm-none-eabi/lib/thumb/v7e-m/fpv4-sp/hard\libc_nano.a(lib_a-findfp.o)
__sinit                                           c:/vsarm/armcc/bin/../lib/gcc/arm-none-eabi/7.3.1/../../../../arm-none-eabi/lib/thumb/v7e-m/fpv4-sp/hard\libc_nano.a(lib_a-findfp.o)
                                                  c:/vsarm/armcc/bin/../lib/gcc/arm-none-eabi/7.3.1/../../../../arm-none-eabi/lib/thumb/v7e-m/fpv4-sp/hard\libc_nano.a(lib_a-fflush.o)
                                                  c:/vsarm/armcc/bin/../lib/gcc/arm-none-eabi/7.3.1/../../../../arm-none-eabi/lib/thumb/v7e-m/fpv4-sp/hard\libc_nano.a(lib_a-wsetup.o)
                                                  c:/vsarm/armcc/bin/../lib/gcc/arm-none-eabi/7.3.1/../../../../arm-none-eabi/lib/thumb/v7e-m/fpv4-sp/hard\libc_nano.a(lib_a-wbuf.o)
                                                  c:/vsarm/armcc/bin/../lib/gcc/arm-none-eabi/7.3.1/../../../../arm-none-eabi/lib/thumb/v7e-m/fpv4-sp/hard\libc_nano.a(lib_a-puts.o)
__sinit_lock_acquire                              c:/vsarm/armcc/bin/../lib/gcc/arm-none-eabi/7.3.1/../../../../arm-none-eabi/lib/thumb/v7e-m/fpv4-sp/hard\libc_nano.a(lib_a-findfp.o)
__sinit_lock_release                              c:/vsarm/armcc/bin/../lib/gcc/arm-none-eabi/7.3.1/../../../../arm-none-eabi/lib/thumb/v7e-m/fpv4-sp/hard\libc_nano.a(lib_a-findfp.o)
__smakebuf_r                                      c:/vsarm/armcc/bin/../lib/gcc/arm-none-eabi/7.3.1/../../../../arm-none-eabi/lib/thumb/v7e-m/fpv4-sp/hard\libc_nano.a(lib_a-makebuf.o)
                                                  c:/vsarm/armcc/bin/../lib/gcc/arm-none-eabi/7.3.1/../../../../arm-none-eabi/lib/thumb/v7e-m/fpv4-sp/hard\libc_nano.a(lib_a-wsetup.o)
__sread                                           c:/vsarm/armcc/bin/../lib/gcc/arm-none-eabi/7.3.1/../../../../arm-none-eabi/lib/thumb/v7e-m/fpv4-sp/hard\libc_nano.a(lib_a-stdio.o)
                                                  c:/vsarm/armcc/bin/../lib/gcc/arm-none-eabi/7.3.1/../../../../arm-none-eabi/lib/thumb/v7e-m/fpv4-sp/hard\libc_nano.a(lib_a-findfp.o)
__sseek                                           c:/vsarm/armcc/bin/../lib/gcc/arm-none-eabi/7.3.1/../../../../arm-none-eabi/lib/thumb/v7e-m/fpv4-sp/hard\libc_nano.a(lib_a-stdio.o)
                                                  c:/vsarm/armcc/bin/../lib/gcc/arm-none-eabi/7.3.1/../../../../arm-none-eabi/lib/thumb/v7e-m/fpv4-sp/hard\libc_nano.a(lib_a-findfp.o)
__stack                                           c:/vsarm/armcc/bin/../lib/gcc/arm-none-eabi/7.3.1/../../../../arm-none-eabi/lib/thumb/v7e-m/fpv4-sp/hard/crt0.o
__subdf3                                          c:/vsarm/armcc/bin/../lib/gcc/arm-none-eabi/7.3.1/thumb/v7e-m/fpv4-sp/hard\libgcc.a(_arm_addsubdf3.o)
__swbuf                                           c:/vsarm/armcc/bin/../lib/gcc/arm-none-eabi/7.3.1/../../../../arm-none-eabi/lib/thumb/v7e-m/fpv4-sp/hard\libc_nano.a(lib_a-wbuf.o)
__swbuf_r                                         c:/vsarm/armcc/bin/../lib/gcc/arm-none-eabi/7.3.1/../../../../arm-none-eabi/lib/thumb/v7e-m/fpv4-sp/hard\libc_nano.a(lib_a-wbuf.o)
                                                  c:/vsarm/armcc/bin/../lib/gcc/arm-none-eabi/7.3.1/../../../../arm-none-eabi/lib/thumb/v7e-m/fpv4-sp/hard\libc_nano.a(lib_a-puts.o)
__swhatbuf_r                                      c:/vsarm/armcc/bin/../lib/gcc/arm-none-eabi/7.3.1/../../../../arm-none-eabi/lib/thumb/v7e-m/fpv4-sp/hard\libc_nano.a(lib_a-makebuf.o)
__swrite                                          c:/vsarm/armcc/bin/../lib/gcc/arm-none-eabi/7.3.1/../../../../arm-none-eabi/lib/thumb/v7e-m/fpv4-sp/hard\libc_nano.a(lib_a-stdio.o)
                                                  c:/vsarm/armcc/bin/../lib/gcc/arm-none-eabi/7.3.1/../../../../arm-none-eabi/lib/thumb/v7e-m/fpv4-sp/hard\libc_nano.a(lib_a-findfp.o)
__swsetup_r                                       c:/vsarm/armcc/bin/../lib/gcc/arm-none-eabi/7.3.1/../../../../arm-none-eabi/lib/thumb/v7e-m/fpv4-sp/hard\libc_nano.a(lib_a-wsetup.o)
                                                  c:/vsarm/armcc/bin/../lib/gcc/arm-none-eabi/7.3.1/../../../../arm-none-eabi/lib/thumb/v7e-m/fpv4-sp/hard\libc_nano.a(lib_a-wbuf.o)
                                                  c:/vsarm/armcc/bin/../lib/gcc/arm-none-eabi/7.3.1/../../../../arm-none-eabi/lib/thumb/v7e-m/fpv4-sp/hard\libc_nano.a(lib_a-puts.o)
__udivmoddi4                                      c:/vsarm/armcc/bin/../lib/gcc/arm-none-eabi/7.3.1/thumb/v7e-m/fpv4-sp/hard\libgcc.a(_udivmoddi4.o)
                                                  c:/vsarm/armcc/bin/../lib/gcc/arm-none-eabi/7.3.1/thumb/v7e-m/fpv4-sp/hard\libgcc.a(_aeabi_uldivmod.o)
_cleanup                                          c:/vsarm/armcc/bin/../lib/gcc/arm-none-eabi/7.3.1/../../../../arm-none-eabi/lib/thumb/v7e-m/fpv4-sp/hard\libc_nano.a(lib_a-findfp.o)
_cleanup_r                                        c:/vsarm/armcc/bin/../lib/gcc/arm-none-eabi/7.3.1/../../../../arm-none-eabi/lib/thumb/v7e-m/fpv4-sp/hard\libc_nano.a(lib_a-findfp.o)
                                                  c:/vsarm/armcc/bin/../lib/gcc/arm-none-eabi/7.3.1/../../../../arm-none-eabi/lib/thumb/v7e-m/fpv4-sp/hard\libc_nano.a(lib_a-makebuf.o)
_close                                            c:/vsarm/armcc/bin/../lib/gcc/arm-none-eabi/7.3.1/../../../../arm-none-eabi/lib/thumb/v7e-m/fpv4-sp/hard\libnosys.a(close.o)
                                                  c:/vsarm/armcc/bin/../lib/gcc/arm-none-eabi/7.3.1/../../../../arm-none-eabi/lib/thumb/v7e-m/fpv4-sp/hard\libc_nano.a(lib_a-closer.o)
_close_r                                          c:/vsarm/armcc/bin/../lib/gcc/arm-none-eabi/7.3.1/../../../../arm-none-eabi/lib/thumb/v7e-m/fpv4-sp/hard\libc_nano.a(lib_a-closer.o)
                                                  c:/vsarm/armcc/bin/../lib/gcc/arm-none-eabi/7.3.1/../../../../arm-none-eabi/lib/thumb/v7e-m/fpv4-sp/hard\libc_nano.a(lib_a-stdio.o)
_ebss                                             build/startup_stm32f746xx.o
_edata                                            build/startup_stm32f746xx.o
_estack                                           build/startup_stm32f746xx.o
_exit                                             c:/vsarm/armcc/bin/../lib/gcc/arm-none-eabi/7.3.1/../../../../arm-none-eabi/lib/thumb/v7e-m/fpv4-sp/hard\libnosys.a(_exit.o)
                                                  c:/vsarm/armcc/bin/../lib/gcc/arm-none-eabi/7.3.1/../../../../arm-none-eabi/lib/thumb/v7e-m/fpv4-sp/hard\libc_nano.a(lib_a-exit.o)
_fflush_r                                         c:/vsarm/armcc/bin/../lib/gcc/arm-none-eabi/7.3.1/../../../../arm-none-eabi/lib/thumb/v7e-m/fpv4-sp/hard\libc_nano.a(lib_a-fflush.o)
                                                  c:/vsarm/armcc/bin/../lib/gcc/arm-none-eabi/7.3.1/../../../../arm-none-eabi/lib/thumb/v7e-m/fpv4-sp/hard\libc_nano.a(lib_a-findfp.o)
                                                  c:/vsarm/armcc/bin/../lib/gcc/arm-none-eabi/7.3.1/../../../../arm-none-eabi/lib/thumb/v7e-m/fpv4-sp/hard\libc_nano.a(lib_a-wbuf.o)
_fini                                             c:/vsarm/armcc/bin/../lib/gcc/arm-none-eabi/7.3.1/thumb/v7e-m/fpv4-sp/hard/crti.o
_free_r                                           c:/vsarm/armcc/bin/../lib/gcc/arm-none-eabi/7.3.1/../../../../arm-none-eabi/lib/thumb/v7e-m/fpv4-sp/hard\libc_nano.a(lib_a-nano-freer.o)
                                                  c:/vsarm/armcc/bin/../lib/gcc/arm-none-eabi/7.3.1/../../../../arm-none-eabi/lib/thumb/v7e-m/fpv4-sp/hard\libc_nano.a(lib_a-reent.o)
                                                  c:/vsarm/armcc/bin/../lib/gcc/arm-none-eabi/7.3.1/../../../../arm-none-eabi/lib/thumb/v7e-m/fpv4-sp/hard\libc_nano.a(lib_a-fflush.o)
                                                  c:/vsarm/armcc/bin/../lib/gcc/arm-none-eabi/7.3.1/../../../../arm-none-eabi/lib/thumb/v7e-m/fpv4-sp/hard\libc_nano.a(lib_a-wsetup.o)
_fstat                                            c:/vsarm/armcc/bin/../lib/gcc/arm-none-eabi/7.3.1/../../../../arm-none-eabi/lib/thumb/v7e-m/fpv4-sp/hard\libnosys.a(fstat.o)
                                                  c:/vsarm/armcc/bin/../lib/gcc/arm-none-eabi/7.3.1/../../../../arm-none-eabi/lib/thumb/v7e-m/fpv4-sp/hard\libc_nano.a(lib_a-fstatr.o)
_fstat_r                                          c:/vsarm/armcc/bin/../lib/gcc/arm-none-eabi/7.3.1/../../../../arm-none-eabi/lib/thumb/v7e-m/fpv4-sp/hard\libc_nano.a(lib_a-fstatr.o)
                                                  c:/vsarm/armcc/bin/../lib/gcc/arm-none-eabi/7.3.1/../../../../arm-none-eabi/lib/thumb/v7e-m/fpv4-sp/hard\libc_nano.a(lib_a-makebuf.o)
_fwalk                                            c:/vsarm/armcc/bin/../lib/gcc/arm-none-eabi/7.3.1/../../../../arm-none-eabi/lib/thumb/v7e-m/fpv4-sp/hard\libc_nano.a(lib_a-fwalk.o)
                                                  c:/vsarm/armcc/bin/../lib/gcc/arm-none-eabi/7.3.1/../../../../arm-none-eabi/lib/thumb/v7e-m/fpv4-sp/hard\libc_nano.a(lib_a-findfp.o)
_fwalk_reent                                      c:/vsarm/armcc/bin/../lib/gcc/arm-none-eabi/7.3.1/../../../../arm-none-eabi/lib/thumb/v7e-m/fpv4-sp/hard\libc_nano.a(lib_a-fwalk.o)
                                                  c:/vsarm/armcc/bin/../lib/gcc/arm-none-eabi/7.3.1/../../../../arm-none-eabi/lib/thumb/v7e-m/fpv4-sp/hard\libc_nano.a(lib_a-findfp.o)
                                                  c:/vsarm/armcc/bin/../lib/gcc/arm-none-eabi/7.3.1/../../../../arm-none-eabi/lib/thumb/v7e-m/fpv4-sp/hard\libc_nano.a(lib_a-fflush.o)
_global_impure_ptr                                c:/vsarm/armcc/bin/../lib/gcc/arm-none-eabi/7.3.1/../../../../arm-none-eabi/lib/thumb/v7e-m/fpv4-sp/hard\libc_nano.a(lib_a-impure.o)
                                                  c:/vsarm/armcc/bin/../lib/gcc/arm-none-eabi/7.3.1/../../../../arm-none-eabi/lib/thumb/v7e-m/fpv4-sp/hard\libc_nano.a(lib_a-findfp.o)
                                                  c:/vsarm/armcc/bin/../lib/gcc/arm-none-eabi/7.3.1/../../../../arm-none-eabi/lib/thumb/v7e-m/fpv4-sp/hard\libc_nano.a(lib_a-fflush.o)
                                                  c:/vsarm/armcc/bin/../lib/gcc/arm-none-eabi/7.3.1/../../../../arm-none-eabi/lib/thumb/v7e-m/fpv4-sp/hard\libc_nano.a(lib_a-exit.o)
_impure_ptr                                       c:/vsarm/armcc/bin/../lib/gcc/arm-none-eabi/7.3.1/../../../../arm-none-eabi/lib/thumb/v7e-m/fpv4-sp/hard\libc_nano.a(lib_a-impure.o)
                                                  c:/vsarm/armcc/bin/../lib/gcc/arm-none-eabi/7.3.1/../../../../arm-none-eabi/lib/thumb/v7e-m/fpv4-sp/hard\libc_nano.a(lib_a-reent.o)
                                                  c:/vsarm/armcc/bin/../lib/gcc/arm-none-eabi/7.3.1/../../../../arm-none-eabi/lib/thumb/v7e-m/fpv4-sp/hard\libc_nano.a(lib_a-findfp.o)
                                                  c:/vsarm/armcc/bin/../lib/gcc/arm-none-eabi/7.3.1/../../../../arm-none-eabi/lib/thumb/v7e-m/fpv4-sp/hard\libc_nano.a(lib_a-fflush.o)
                                                  c:/vsarm/armcc/bin/../lib/gcc/arm-none-eabi/7.3.1/../../../../arm-none-eabi/lib/thumb/v7e-m/fpv4-sp/hard\libc_nano.a(lib_a-wsetup.o)
                                                  c:/vsarm/armcc/bin/../lib/gcc/arm-none-eabi/7.3.1/../../../../arm-none-eabi/lib/thumb/v7e-m/fpv4-sp/hard\libc_nano.a(lib_a-wbuf.o)
                                                  c:/vsarm/armcc/bin/../lib/gcc/arm-none-eabi/7.3.1/../../../../arm-none-eabi/lib/thumb/v7e-m/fpv4-sp/hard\libc_nano.a(lib_a-puts.o)
_init                                             c:/vsarm/armcc/bin/../lib/gcc/arm-none-eabi/7.3.1/thumb/v7e-m/fpv4-sp/hard/crti.o
                                                  c:/vsarm/armcc/bin/../lib/gcc/arm-none-eabi/7.3.1/../../../../arm-none-eabi/lib/thumb/v7e-m/fpv4-sp/hard\libc_nano.a(lib_a-init.o)
_isatty                                           c:/vsarm/armcc/bin/../lib/gcc/arm-none-eabi/7.3.1/../../../../arm-none-eabi/lib/thumb/v7e-m/fpv4-sp/hard\libnosys.a(isatty.o)
                                                  c:/vsarm/armcc/bin/../lib/gcc/arm-none-eabi/7.3.1/../../../../arm-none-eabi/lib/thumb/v7e-m/fpv4-sp/hard\libc_nano.a(lib_a-isattyr.o)
_isatty_r                                         c:/vsarm/armcc/bin/../lib/gcc/arm-none-eabi/7.3.1/../../../../arm-none-eabi/lib/thumb/v7e-m/fpv4-sp/hard\libc_nano.a(lib_a-isattyr.o)
                                                  c:/vsarm/armcc/bin/../lib/gcc/arm-none-eabi/7.3.1/../../../../arm-none-eabi/lib/thumb/v7e-m/fpv4-sp/hard\libc_nano.a(lib_a-makebuf.o)
_lseek                                            c:/vsarm/armcc/bin/../lib/gcc/arm-none-eabi/7.3.1/../../../../arm-none-eabi/lib/thumb/v7e-m/fpv4-sp/hard\libnosys.a(lseek.o)
                                                  c:/vsarm/armcc/bin/../lib/gcc/arm-none-eabi/7.3.1/../../../../arm-none-eabi/lib/thumb/v7e-m/fpv4-sp/hard\libc_nano.a(lib_a-lseekr.o)
_lseek_r                                          c:/vsarm/armcc/bin/../lib/gcc/arm-none-eabi/7.3.1/../../../../arm-none-eabi/lib/thumb/v7e-m/fpv4-sp/hard\libc_nano.a(lib_a-lseekr.o)
                                                  c:/vsarm/armcc/bin/../lib/gcc/arm-none-eabi/7.3.1/../../../../arm-none-eabi/lib/thumb/v7e-m/fpv4-sp/hard\libc_nano.a(lib_a-stdio.o)
_mainCRTStartup                                   c:/vsarm/armcc/bin/../lib/gcc/arm-none-eabi/7.3.1/../../../../arm-none-eabi/lib/thumb/v7e-m/fpv4-sp/hard/crt0.o
_malloc_r                                         c:/vsarm/armcc/bin/../lib/gcc/arm-none-eabi/7.3.1/../../../../arm-none-eabi/lib/thumb/v7e-m/fpv4-sp/hard\libc_nano.a(lib_a-nano-mallocr.o)
                                                  c:/vsarm/armcc/bin/../lib/gcc/arm-none-eabi/7.3.1/../../../../arm-none-eabi/lib/thumb/v7e-m/fpv4-sp/hard\libc_nano.a(lib_a-makebuf.o)
                                                  c:/vsarm/armcc/bin/../lib/gcc/arm-none-eabi/7.3.1/../../../../arm-none-eabi/lib/thumb/v7e-m/fpv4-sp/hard\libc_nano.a(lib_a-findfp.o)
_pEffectDefault                                   Middlewares/STemWin/Lib/STemWin_CM7_wc32.a(WIDGET.o)
_pfGUI__BIDI_GetCharDir                           Middlewares/STemWin/Lib/STemWin_CM7_wc32.a(GUI__BiDiRouting.o)
                                                  Middlewares/STemWin/Lib/STemWin_CM7_wc32.a(MULTIEDIT.o)
_pfGUI__BIDI_GetCursorPosChar                     Middlewares/STemWin/Lib/STemWin_CM7_wc32.a(GUI__BiDiRouting.o)
_pfGUI__BIDI_GetCursorPosX                        Middlewares/STemWin/Lib/STemWin_CM7_wc32.a(GUI__BiDiRouting.o)
_pfGUI__BIDI_GetLogChar                           Middlewares/STemWin/Lib/STemWin_CM7_wc32.a(GUI__BiDiRouting.o)
                                                  Middlewares/STemWin/Lib/STemWin_CM7_wc32.a(MULTIEDIT.o)
_pfGUI__BIDI_IsNSM                                Middlewares/STemWin/Lib/STemWin_CM7_wc32.a(GUI__BiDiRouting.o)
_pfGUI__BIDI_Log2Vis                              Middlewares/STemWin/Lib/STemWin_CM7_wc32.a(GUI__BiDiRouting.o)
_puts_r                                           c:/vsarm/armcc/bin/../lib/gcc/arm-none-eabi/7.3.1/../../../../arm-none-eabi/lib/thumb/v7e-m/fpv4-sp/hard\libc_nano.a(lib_a-puts.o)
_read                                             c:/vsarm/armcc/bin/../lib/gcc/arm-none-eabi/7.3.1/../../../../arm-none-eabi/lib/thumb/v7e-m/fpv4-sp/hard\libnosys.a(read.o)
                                                  c:/vsarm/armcc/bin/../lib/gcc/arm-none-eabi/7.3.1/../../../../arm-none-eabi/lib/thumb/v7e-m/fpv4-sp/hard\libc_nano.a(lib_a-readr.o)
_read_r                                           c:/vsarm/armcc/bin/../lib/gcc/arm-none-eabi/7.3.1/../../../../arm-none-eabi/lib/thumb/v7e-m/fpv4-sp/hard\libc_nano.a(lib_a-readr.o)
                                                  c:/vsarm/armcc/bin/../lib/gcc/arm-none-eabi/7.3.1/../../../../arm-none-eabi/lib/thumb/v7e-m/fpv4-sp/hard\libc_nano.a(lib_a-stdio.o)
_reclaim_reent                                    c:/vsarm/armcc/bin/../lib/gcc/arm-none-eabi/7.3.1/../../../../arm-none-eabi/lib/thumb/v7e-m/fpv4-sp/hard\libc_nano.a(lib_a-reent.o)
_sbrk                                             c:/vsarm/armcc/bin/../lib/gcc/arm-none-eabi/7.3.1/../../../../arm-none-eabi/lib/thumb/v7e-m/fpv4-sp/hard\libnosys.a(sbrk.o)
                                                  c:/vsarm/armcc/bin/../lib/gcc/arm-none-eabi/7.3.1/../../../../arm-none-eabi/lib/thumb/v7e-m/fpv4-sp/hard\libc_nano.a(lib_a-sbrkr.o)
_sbrk_r                                           c:/vsarm/armcc/bin/../lib/gcc/arm-none-eabi/7.3.1/../../../../arm-none-eabi/lib/thumb/v7e-m/fpv4-sp/hard\libc_nano.a(lib_a-sbrkr.o)
                                                  c:/vsarm/armcc/bin/../lib/gcc/arm-none-eabi/7.3.1/../../../../arm-none-eabi/lib/thumb/v7e-m/fpv4-sp/hard\libc_nano.a(lib_a-nano-mallocr.o)
_sbss                                             build/startup_stm32f746xx.o
_sdata                                            build/startup_stm32f746xx.o
_sidata                                           build/startup_stm32f746xx.o
_start                                            c:/vsarm/armcc/bin/../lib/gcc/arm-none-eabi/7.3.1/../../../../arm-none-eabi/lib/thumb/v7e-m/fpv4-sp/hard/crt0.o
_write                                            build/main.o
                                                  c:/vsarm/armcc/bin/../lib/gcc/arm-none-eabi/7.3.1/../../../../arm-none-eabi/lib/thumb/v7e-m/fpv4-sp/hard\libc_nano.a(lib_a-writer.o)
_write_r                                          c:/vsarm/armcc/bin/../lib/gcc/arm-none-eabi/7.3.1/../../../../arm-none-eabi/lib/thumb/v7e-m/fpv4-sp/hard\libc_nano.a(lib_a-writer.o)
                                                  c:/vsarm/armcc/bin/../lib/gcc/arm-none-eabi/7.3.1/../../../../arm-none-eabi/lib/thumb/v7e-m/fpv4-sp/hard\libc_nano.a(lib_a-stdio.o)
aMemory                                           build/GUIConf.o
aTan                                              Middlewares/STemWin/Lib/STemWin_CM7_wc32.a(GUI_DrawLine.o)
atexit                                            c:/vsarm/armcc/bin/../lib/gcc/arm-none-eabi/7.3.1/../../../../arm-none-eabi/lib/thumb/v7e-m/fpv4-sp/hard/crt0.o
ceil                                              c:/vsarm/armcc/bin/../lib/gcc/arm-none-eabi/7.3.1/../../../../arm-none-eabi/lib/thumb/v7e-m/fpv4-sp/hard\libm.a(lib_a-s_ceil.o)
                                                  Middlewares/STemWin/Lib/STemWin_CM7_wc32.a(GUI_Arc.o)
cleanup_glue                                      c:/vsarm/armcc/bin/../lib/gcc/arm-none-eabi/7.3.1/../../../../arm-none-eabi/lib/thumb/v7e-m/fpv4-sp/hard\libc_nano.a(lib_a-reent.o)
editLog                                           build/FramewinDLG.o
emWin_LCD_Init                                    Middlewares/STemWin/Lib/STemWin_CM7_wc32.a(LCD.o)
                                                  Middlewares/STemWin/Lib/STemWin_CM7_wc32.a(GUI_Core.o)
end                                               c:/vsarm/armcc/bin/../lib/gcc/arm-none-eabi/7.3.1/../../../../arm-none-eabi/lib/thumb/v7e-m/fpv4-sp/hard\libnosys.a(sbrk.o)
errno                                             c:/vsarm/armcc/bin/../lib/gcc/arm-none-eabi/7.3.1/../../../../arm-none-eabi/lib/thumb/v7e-m/fpv4-sp/hard\libc_nano.a(lib_a-reent.o)
                                                  c:/vsarm/armcc/bin/../lib/gcc/arm-none-eabi/7.3.1/../../../../arm-none-eabi/lib/thumb/v7e-m/fpv4-sp/hard\libnosys.a(read.o)
                                                  c:/vsarm/armcc/bin/../lib/gcc/arm-none-eabi/7.3.1/../../../../arm-none-eabi/lib/thumb/v7e-m/fpv4-sp/hard\libnosys.a(lseek.o)
                                                  c:/vsarm/armcc/bin/../lib/gcc/arm-none-eabi/7.3.1/../../../../arm-none-eabi/lib/thumb/v7e-m/fpv4-sp/hard\libnosys.a(isatty.o)
                                                  c:/vsarm/armcc/bin/../lib/gcc/arm-none-eabi/7.3.1/../../../../arm-none-eabi/lib/thumb/v7e-m/fpv4-sp/hard\libnosys.a(fstat.o)
                                                  c:/vsarm/armcc/bin/../lib/gcc/arm-none-eabi/7.3.1/../../../../arm-none-eabi/lib/thumb/v7e-m/fpv4-sp/hard\libnosys.a(close.o)
                                                  c:/vsarm/armcc/bin/../lib/gcc/arm-none-eabi/7.3.1/../../../../arm-none-eabi/lib/thumb/v7e-m/fpv4-sp/hard\libc_nano.a(lib_a-readr.o)
                                                  c:/vsarm/armcc/bin/../lib/gcc/arm-none-eabi/7.3.1/../../../../arm-none-eabi/lib/thumb/v7e-m/fpv4-sp/hard\libc_nano.a(lib_a-lseekr.o)
                                                  c:/vsarm/armcc/bin/../lib/gcc/arm-none-eabi/7.3.1/../../../../arm-none-eabi/lib/thumb/v7e-m/fpv4-sp/hard\libc_nano.a(lib_a-isattyr.o)
                                                  c:/vsarm/armcc/bin/../lib/gcc/arm-none-eabi/7.3.1/../../../../arm-none-eabi/lib/thumb/v7e-m/fpv4-sp/hard\libc_nano.a(lib_a-fstatr.o)
                                                  c:/vsarm/armcc/bin/../lib/gcc/arm-none-eabi/7.3.1/../../../../arm-none-eabi/lib/thumb/v7e-m/fpv4-sp/hard\libc_nano.a(lib_a-closer.o)
                                                  c:/vsarm/armcc/bin/../lib/gcc/arm-none-eabi/7.3.1/../../../../arm-none-eabi/lib/thumb/v7e-m/fpv4-sp/hard\libc_nano.a(lib_a-writer.o)
                                                  c:/vsarm/armcc/bin/../lib/gcc/arm-none-eabi/7.3.1/../../../../arm-none-eabi/lib/thumb/v7e-m/fpv4-sp/hard\libc_nano.a(lib_a-sbrkr.o)
exit                                              c:/vsarm/armcc/bin/../lib/gcc/arm-none-eabi/7.3.1/../../../../arm-none-eabi/lib/thumb/v7e-m/fpv4-sp/hard\libc_nano.a(lib_a-exit.o)
                                                  c:/vsarm/armcc/bin/../lib/gcc/arm-none-eabi/7.3.1/../../../../arm-none-eabi/lib/thumb/v7e-m/fpv4-sp/hard/crt0.o
fflush                                            c:/vsarm/armcc/bin/../lib/gcc/arm-none-eabi/7.3.1/../../../../arm-none-eabi/lib/thumb/v7e-m/fpv4-sp/hard\libc_nano.a(lib_a-fflush.o)
floor                                             c:/vsarm/armcc/bin/../lib/gcc/arm-none-eabi/7.3.1/../../../../arm-none-eabi/lib/thumb/v7e-m/fpv4-sp/hard\libm.a(lib_a-s_floor.o)
                                                  Middlewares/STemWin/Lib/STemWin_CM7_wc32.a(GUI_Arc.o)
frameMain                                         build/FramewinDLG.o
ft5336_Init                                       build/ft5336.o
ft5336_ReadID                                     build/ft5336.o
ft5336_Reset                                      build/ft5336.o
ft5336_TS_ClearIT                                 build/ft5336.o
ft5336_TS_DetectTouch                             build/ft5336.o
ft5336_TS_DisableIT                               build/ft5336.o
ft5336_TS_EnableIT                                build/ft5336.o
ft5336_TS_GetGestureID                            build/ft5336.o
                                                  build/stm32746g_discovery_ts.o
ft5336_TS_GetTouchInfo                            build/ft5336.o
                                                  build/stm32746g_discovery_ts.o
ft5336_TS_GetXY                                   build/ft5336.o
ft5336_TS_ITStatus                                build/ft5336.o
ft5336_TS_Start                                   build/ft5336.o
ft5336_ts_drv                                     build/ft5336.o
                                                  build/stm32746g_discovery_ts.o
g_pfnVectors                                      build/startup_stm32f746xx.o
hLtdcHandler                                      build/stm32746g_discovery_lcd.o
hardware_init_hook                                c:/vsarm/armcc/bin/../lib/gcc/arm-none-eabi/7.3.1/../../../../arm-none-eabi/lib/thumb/v7e-m/fpv4-sp/hard/crt0.o
hcrc                                              build/main.o
hdma2d                                            build/main.o
                                                  build/stm32f7xx_it.o
hdma_memtomem_dma2_stream0                        build/main.o
hi2c2                                             build/main.o
hltdc                                             build/LCDConf.o
                                                  build/main.o
                                                  build/stm32f7xx_it.o
hsdram1                                           build/main.o
huart6                                            build/main.o
main                                              build/main.o
                                                  build/startup_stm32f746xx.o
                                                  c:/vsarm/armcc/bin/../lib/gcc/arm-none-eabi/7.3.1/../../../../arm-none-eabi/lib/thumb/v7e-m/fpv4-sp/hard/crt0.o
memcpy                                            c:/vsarm/armcc/bin/../lib/gcc/arm-none-eabi/7.3.1/../../../../arm-none-eabi/lib/thumb/v7e-m/fpv4-sp/hard\libc_nano.a(lib_a-memcpy-stub.o)
                                                  Middlewares/STemWin/Lib/STemWin_CM7_wc32.a(GUI__Private.o)
                                                  Middlewares/STemWin/Lib/STemWin_CM7_wc32.a(GUI_Common.o)
memmove                                           c:/vsarm/armcc/bin/../lib/gcc/arm-none-eabi/7.3.1/../../../../arm-none-eabi/lib/thumb/v7e-m/fpv4-sp/hard\libc_nano.a(lib_a-memmove.o)
                                                  Middlewares/STemWin/Lib/STemWin_CM7_wc32.a(MULTIEDIT.o)
                                                  Middlewares/STemWin/Lib/STemWin_CM7_wc32.a(GUI_Alloc.o)
memset                                            c:/vsarm/armcc/bin/../lib/gcc/arm-none-eabi/7.3.1/../../../../arm-none-eabi/lib/thumb/v7e-m/fpv4-sp/hard\libc_nano.a(lib_a-memset.o)
                                                  Middlewares/STemWin/Lib/STemWin_CM7_wc32.a(GUIDEV_UsageBM.o)
                                                  Middlewares/STemWin/Lib/STemWin_CM7_wc32.a(GUI_SPRITE.o)
                                                  Middlewares/STemWin/Lib/STemWin_CM7_wc32.a(DIALOG.o)
                                                  Middlewares/STemWin/Lib/STemWin_CM7_wc32.a(BUTTON_Skin.o)
                                                  Middlewares/STemWin/Lib/STemWin_CM7_wc32.a(WM__Private.o)
                                                  Middlewares/STemWin/Lib/STemWin_CM7_wc32.a(WM_Timer.o)
                                                  Middlewares/STemWin/Lib/STemWin_CM7_wc32.a(WM_Move.o)
                                                  Middlewares/STemWin/Lib/STemWin_CM7_wc32.a(WM_Lib.o)
                                                  Middlewares/STemWin/Lib/STemWin_CM7_wc32.a(WM.o)
                                                  Middlewares/STemWin/Lib/STemWin_CM7_wc32.a(GUIDRV_Lin_32.o)
                                                  Middlewares/STemWin/Lib/STemWin_CM7_wc32.a(GUI__Private.o)
                                                  c:/vsarm/armcc/bin/../lib/gcc/arm-none-eabi/7.3.1/../../../../arm-none-eabi/lib/thumb/v7e-m/fpv4-sp/hard\libc_nano.a(lib_a-findfp.o)
                                                  build/main.o
                                                  c:/vsarm/armcc/bin/../lib/gcc/arm-none-eabi/7.3.1/../../../../arm-none-eabi/lib/thumb/v7e-m/fpv4-sp/hard/crt0.o
pFlash                                            build/stm32f7xx_hal_flash.o
                                                  build/stm32f7xx_hal_flash_ex.o
puts                                              c:/vsarm/armcc/bin/../lib/gcc/arm-none-eabi/7.3.1/../../../../arm-none-eabi/lib/thumb/v7e-m/fpv4-sp/hard\libc_nano.a(lib_a-puts.o)
                                                  build/main.o
sdramHandle                                       build/stm32746g_discovery_sdram.o
software_init_hook                                c:/vsarm/armcc/bin/../lib/gcc/arm-none-eabi/7.3.1/../../../../arm-none-eabi/lib/thumb/v7e-m/fpv4-sp/hard/crt0.o
strcpy                                            c:/vsarm/armcc/bin/../lib/gcc/arm-none-eabi/7.3.1/../../../../arm-none-eabi/lib/thumb/v7e-m/fpv4-sp/hard\libc_nano.a(lib_a-strcpy.o)
                                                  Middlewares/STemWin/Lib/STemWin_CM7_wc32.a(TEXT.o)
                                                  Middlewares/STemWin/Lib/STemWin_CM7_wc32.a(MULTIEDIT.o)
                                                  Middlewares/STemWin/Lib/STemWin_CM7_wc32.a(GUI__Private.o)
strlen                                            c:/vsarm/armcc/bin/../lib/gcc/arm-none-eabi/7.3.1/../../../../arm-none-eabi/lib/thumb/v7e-m/fpv4-sp/hard\libc_nano.a(lib_a-strlen.o)
                                                  Middlewares/STemWin/Lib/STemWin_CM7_wc32.a(TEXT.o)
                                                  Middlewares/STemWin/Lib/STemWin_CM7_wc32.a(MULTIEDIT.o)
                                                  Middlewares/STemWin/Lib/STemWin_CM7_wc32.a(FRAMEWIN.o)
                                                  Middlewares/STemWin/Lib/STemWin_CM7_wc32.a(BUTTON.o)
textAudioStatus                                   build/FramewinDLG.o
textStatus                                        build/FramewinDLG.o
uwTick                                            build/stm32f7xx_hal.o
uwTickFreq                                        build/stm32f7xx_hal.o
uwTickPrio                                        build/stm32f7xx_hal.o
                                                  build/stm32f7xx_hal_rcc.o
wm8994_DeInit                                     build/wm8994.o
wm8994_Init                                       build/wm8994.o
wm8994_Pause                                      build/wm8994.o
wm8994_Play                                       build/wm8994.o
wm8994_ReadID                                     build/wm8994.o
wm8994_Reset                                      build/wm8994.o
wm8994_Resume                                     build/wm8994.o
wm8994_SetFrequency                               build/wm8994.o
wm8994_SetMute                                    build/wm8994.o
wm8994_SetOutputMode                              build/wm8994.o
wm8994_SetVolume                                  build/wm8994.o
wm8994_Stop                                       build/wm8994.o
wm8994_drv                                        build/wm8994.o
